---
triple:          'arm64-apple-darwin'
binary-path:     graphml_reader
relocations:
  - { offset: 0x5C, size: 0x8, addend: 0x0, symName: __ZNSt3__119piecewise_constructE, symObjAddr: 0x26777, symBinAddr: 0x100029C4F, symSize: 0x0 }
  - { offset: 0x11D38, size: 0x8, addend: 0x0, symName: __ZNSt3__124__put_character_sequenceB8ne180100IcNS_11char_traitsIcEEEERNS_13basic_ostreamIT_T0_EES7_PKS4_m, symObjAddr: 0x3F8C, symBinAddr: 0x1000072AC, symSize: 0x1EC }
  - { offset: 0x17921, size: 0x8, addend: 0x0, symName: __ZNSt3__1lsB8ne180100INS_11char_traitsIcEEEERNS_13basic_ostreamIcT_EES6_PKc, symObjAddr: 0xB44, symBinAddr: 0x100003E64, symSize: 0x48 }
  - { offset: 0x18703, size: 0x8, addend: 0x0, symName: __ZNSt3__1lsB8ne180100IcNS_11char_traitsIcEENS_9allocatorIcEEEERNS_13basic_ostreamIT_T0_EES9_RKNS_12basic_stringIS6_S7_T1_EE, symObjAddr: 0xD4C, symBinAddr: 0x10000406C, symSize: 0x4C }
  - { offset: 0x193FF, size: 0x8, addend: 0x0, symName: __ZNSt3__1neB8ne180100ERKNS_21__tree_const_iteratorINS_12basic_stringIcNS_11char_traitsIcEENS_9allocatorIcEEEEPNS_11__tree_nodeIS6_PvEElEESD_, symObjAddr: 0x1080, symBinAddr: 0x1000043A0, symSize: 0x34 }
  - { offset: 0x1958B, size: 0x8, addend: 0x0, symName: __ZNSt3__112__destroy_atB8ne180100INS_4pairIKNS_12basic_stringIcNS_11char_traitsIcEENS_9allocatorIcEEEEN5boost10shared_ptrINS9_20dynamic_property_mapEEEEELi0EEEvPT_, symObjAddr: 0x2338, symBinAddr: 0x100005658, symSize: 0x24 }
  - { offset: 0x195C2, size: 0x8, addend: 0x0, symName: __ZNSt3__17launderB8ne180100INS_4pairIKNS_12basic_stringIcNS_11char_traitsIcEENS_9allocatorIcEEEEN5boost10shared_ptrINS9_20dynamic_property_mapEEEEEEEPT_SF_, symObjAddr: 0x25A0, symBinAddr: 0x1000058C0, symSize: 0x24 }
  - { offset: 0x195F9, size: 0x8, addend: 0x0, symName: __ZNSt3__19__launderB8ne180100INS_4pairIKNS_12basic_stringIcNS_11char_traitsIcEENS_9allocatorIcEEEEN5boost10shared_ptrINS9_20dynamic_property_mapEEEEEEEPT_SF_, symObjAddr: 0x25C4, symBinAddr: 0x1000058E4, symSize: 0x14 }
  - { offset: 0x19630, size: 0x8, addend: 0x0, symName: __ZNSt3__119__libcpp_deallocateB8ne180100EPvmm, symObjAddr: 0x261C, symBinAddr: 0x10000593C, symSize: 0x60 }
  - { offset: 0x19695, size: 0x8, addend: 0x0, symName: __ZNSt3__124__is_overaligned_for_newB8ne180100Em, symObjAddr: 0x267C, symBinAddr: 0x10000599C, symSize: 0x20 }
  - { offset: 0x196C3, size: 0x8, addend: 0x0, symName: __ZNSt3__127__do_deallocate_handle_sizeB8ne180100IJSt11align_val_tEEEvPvmDpT_, symObjAddr: 0x269C, symBinAddr: 0x1000059BC, symSize: 0x30 }
  - { offset: 0x19716, size: 0x8, addend: 0x0, symName: __ZNSt3__127__do_deallocate_handle_sizeB8ne180100IJEEEvPvmDpT_, symObjAddr: 0x26CC, symBinAddr: 0x1000059EC, symSize: 0x28 }
  - { offset: 0x19754, size: 0x8, addend: 0x0, symName: __ZNSt3__124__libcpp_operator_deleteB8ne180100IJPvSt11align_val_tEEEvDpT_, symObjAddr: 0x26F4, symBinAddr: 0x100005A14, symSize: 0x2C }
  - { offset: 0x1979D, size: 0x8, addend: 0x0, symName: __ZNSt3__124__libcpp_operator_deleteB8ne180100IJPvEEEvDpT_, symObjAddr: 0x2720, symBinAddr: 0x100005A40, symSize: 0x24 }
  - { offset: 0x197D2, size: 0x8, addend: 0x0, symName: __ZNSt3__112__to_addressB8ne180100IN5boost6detail12adj_list_genINS1_14adjacency_listINS1_4vecSES5_NS1_9directedSENS1_11no_propertyES7_S7_NS1_5listSEEES5_S5_S6_S7_S7_S7_S8_E6config13stored_vertexEEEPT_SE_, symObjAddr: 0x2FA0, symBinAddr: 0x1000062C0, symSize: 0x14 }
  - { offset: 0x19807, size: 0x8, addend: 0x0, symName: __ZNSt3__112__to_addressB8ne180100IN5boost6detail20stored_edge_propertyImNS1_11no_propertyEEEEEPT_S7_, symObjAddr: 0x3340, symBinAddr: 0x100006660, symSize: 0x14 }
  - { offset: 0x198FC, size: 0x8, addend: 0x0, symName: __ZNSt3__112__destroy_atB8ne180100INS_11__list_nodeIN5boost9list_edgeImNS2_11no_propertyEEEPvEELi0EEEvPT_, symObjAddr: 0x3AD0, symBinAddr: 0x100006DF0, symSize: 0x24 }
  - { offset: 0x19933, size: 0x8, addend: 0x0, symName: __ZNSt3__112__destroy_atB8ne180100IN5boost9list_edgeImNS1_11no_propertyEEELi0EEEvPT_, symObjAddr: 0x3B60, symBinAddr: 0x100006E80, symSize: 0x10 }
  - { offset: 0x1996A, size: 0x8, addend: 0x0, symName: __ZNSt3__112__to_addressB8ne180100IKcEEPT_S3_, symObjAddr: 0x3CA8, symBinAddr: 0x100006FC8, symSize: 0x14 }
  - { offset: 0x199D2, size: 0x8, addend: 0x0, symName: __ZNSt3__118__constexpr_strlenB8ne180100EPKc, symObjAddr: 0x3F68, symBinAddr: 0x100007288, symSize: 0x24 }
  - { offset: 0x199FE, size: 0x8, addend: 0x0, symName: __ZNSt3__116__pad_and_outputB8ne180100IcNS_11char_traitsIcEEEENS_19ostreambuf_iteratorIT_T0_EES6_PKS4_S8_S8_RNS_8ios_baseES4_, symObjAddr: 0x4194, symBinAddr: 0x1000074B4, symSize: 0x240 }
  - { offset: 0x19ACD, size: 0x8, addend: 0x0, symName: __ZNSt3__112__to_addressB8ne180100IcEEPT_S2_, symObjAddr: 0x4604, symBinAddr: 0x100007924, symSize: 0x14 }
  - { offset: 0x19B35, size: 0x8, addend: 0x0, symName: __ZNSt3__19use_facetB8ne180100INS_5ctypeIcEEEERKT_RKNS_6localeE, symObjAddr: 0x484C, symBinAddr: 0x100007B6C, symSize: 0x2C }
  - { offset: 0x1A3C3, size: 0x8, addend: 0x0, symName: __ZNSt3__117__libcpp_allocateB8ne180100Emm, symObjAddr: 0x8B30, symBinAddr: 0x10000BE50, symSize: 0x60 }
  - { offset: 0x1A41D, size: 0x8, addend: 0x0, symName: __ZNSt3__121__libcpp_operator_newB8ne180100IJmSt11align_val_tEEEPvDpT_, symObjAddr: 0x8BB0, symBinAddr: 0x10000BED0, symSize: 0x2C }
  - { offset: 0x1A46A, size: 0x8, addend: 0x0, symName: __ZNSt3__121__libcpp_operator_newB8ne180100IJmEEEPvDpT_, symObjAddr: 0x8BDC, symBinAddr: 0x10000BEFC, symSize: 0x24 }
  - { offset: 0x1A4A3, size: 0x8, addend: 0x0, symName: __ZNSt3__1ltB8ne180100IcNS_11char_traitsIcEENS_9allocatorIcEEEEbRKNS_12basic_stringIT_T0_T1_EESB_, symObjAddr: 0x9020, symBinAddr: 0x10000C340, symSize: 0x38 }
  - { offset: 0x1A4FB, size: 0x8, addend: 0x0, symName: __ZNSt3__13minB8ne180100ImEERKT_S3_S3_, symObjAddr: 0x9284, symBinAddr: 0x10000C5A4, symSize: 0x2C }
  - { offset: 0x1A53E, size: 0x8, addend: 0x0, symName: __ZNSt3__13minB8ne180100ImNS_6__lessIvvEEEERKT_S5_S5_T0_, symObjAddr: 0x92B0, symBinAddr: 0x10000C5D0, symSize: 0x54 }
  - { offset: 0x1A5DD, size: 0x8, addend: 0x0, symName: __ZNSt3__17launderB8ne180100IKNS_4pairIKNS_12basic_stringIcNS_11char_traitsIcEENS_9allocatorIcEEEEN5boost10shared_ptrINS9_20dynamic_property_mapEEEEEEEPT_SG_, symObjAddr: 0x93A0, symBinAddr: 0x10000C6C0, symSize: 0x24 }
  - { offset: 0x1A614, size: 0x8, addend: 0x0, symName: __ZNSt3__19__launderB8ne180100IKNS_4pairIKNS_12basic_stringIcNS_11char_traitsIcEENS_9allocatorIcEEEEN5boost10shared_ptrINS9_20dynamic_property_mapEEEEEEEPT_SG_, symObjAddr: 0x93C4, symBinAddr: 0x10000C6E4, symSize: 0x14 }
  - { offset: 0x1A64B, size: 0x8, addend: 0x0, symName: __ZNSt3__127__tree_balance_after_insertB8ne180100IPNS_16__tree_node_baseIPvEEEEvT_S5_, symObjAddr: 0x9410, symBinAddr: 0x10000C730, symSize: 0x32C }
  - { offset: 0x1A6C7, size: 0x8, addend: 0x0, symName: __ZNSt3__120__tree_is_left_childB8ne180100IPNS_16__tree_node_baseIPvEEEEbT_, symObjAddr: 0x977C, symBinAddr: 0x10000CA9C, symSize: 0x2C }
  - { offset: 0x1A6FC, size: 0x8, addend: 0x0, symName: __ZNSt3__118__tree_left_rotateB8ne180100IPNS_16__tree_node_baseIPvEEEEvT_, symObjAddr: 0x97A8, symBinAddr: 0x10000CAC8, symSize: 0xD8 }
  - { offset: 0x1A73B, size: 0x8, addend: 0x0, symName: __ZNSt3__119__tree_right_rotateB8ne180100IPNS_16__tree_node_baseIPvEEEEvT_, symObjAddr: 0x9880, symBinAddr: 0x10000CBA0, symSize: 0xCC }
  - { offset: 0x1A77D, size: 0x8, addend: 0x0, symName: __ZNSt3__112__destroy_atB8ne180100INS_12basic_stringIcNS_11char_traitsIcEENS_9allocatorIcEEEELi0EEEvPT_, symObjAddr: 0xA0E8, symBinAddr: 0x10000D408, symSize: 0x24 }
  - { offset: 0x1A7D2, size: 0x8, addend: 0x0, symName: __ZNSt3__1eqB8ne180100ERKNS_21__tree_const_iteratorINS_12basic_stringIcNS_11char_traitsIcEENS_9allocatorIcEEEEPNS_11__tree_nodeIS6_PvEElEESD_, symObjAddr: 0xB07C, symBinAddr: 0x10000E39C, symSize: 0x30 }
  - { offset: 0x1A80F, size: 0x8, addend: 0x0, symName: __ZNSt3__116__tree_next_iterB8ne180100IPNS_15__tree_end_nodeIPNS_16__tree_node_baseIPvEEEES5_EET_T0_, symObjAddr: 0xB0AC, symBinAddr: 0x10000E3CC, symSize: 0x80 }
  - { offset: 0x1A84D, size: 0x8, addend: 0x0, symName: __ZNSt3__110__tree_minB8ne180100IPNS_16__tree_node_baseIPvEEEET_S5_, symObjAddr: 0xB12C, symBinAddr: 0x10000E44C, symSize: 0x40 }
  - { offset: 0x1A882, size: 0x8, addend: 0x0, symName: __ZNSt3__112__destroy_atB8ne180100INS_4pairIKNS_12basic_stringIcNS_11char_traitsIcEENS_9allocatorIcEEEES7_EELi0EEEvPT_, symObjAddr: 0xB6C0, symBinAddr: 0x10000E9E0, symSize: 0x24 }
  - { offset: 0x1A8B9, size: 0x8, addend: 0x0, symName: __ZNSt3__17launderB8ne180100INS_4pairIKNS_12basic_stringIcNS_11char_traitsIcEENS_9allocatorIcEEEES7_EEEEPT_SB_, symObjAddr: 0xB76C, symBinAddr: 0x10000EA8C, symSize: 0x24 }
  - { offset: 0x1A8F0, size: 0x8, addend: 0x0, symName: __ZNSt3__19__launderB8ne180100INS_4pairIKNS_12basic_stringIcNS_11char_traitsIcEENS_9allocatorIcEEEES7_EEEEPT_SB_, symObjAddr: 0xB790, symBinAddr: 0x10000EAB0, symSize: 0x14 }
  - { offset: 0x1A95E, size: 0x8, addend: 0x0, symName: __ZNSt3__116forward_as_tupleB8ne180100IJRKNS_12basic_stringIcNS_11char_traitsIcEENS_9allocatorIcEEEEEEENS_5tupleIJDpOT_EEESC_, symObjAddr: 0xC5F8, symBinAddr: 0x10000F918, symSize: 0x2C }
  - { offset: 0x1A997, size: 0x8, addend: 0x0, symName: __ZNSt3__116forward_as_tupleB8ne180100IJEEENS_5tupleIJDpOT_EEES4_, symObjAddr: 0xC624, symBinAddr: 0x10000F944, symSize: 0x4 }
  - { offset: 0x1A9BB, size: 0x8, addend: 0x0, symName: __ZNSt3__17launderB8ne180100IKNS_4pairIKNS_12basic_stringIcNS_11char_traitsIcEENS_9allocatorIcEEEES7_EEEEPT_SC_, symObjAddr: 0xCC0C, symBinAddr: 0x10000FF2C, symSize: 0x24 }
  - { offset: 0x1A9F2, size: 0x8, addend: 0x0, symName: __ZNSt3__19__launderB8ne180100IKNS_4pairIKNS_12basic_stringIcNS_11char_traitsIcEENS_9allocatorIcEEEES7_EEEEPT_SC_, symObjAddr: 0xCC30, symBinAddr: 0x10000FF50, symSize: 0x14 }
  - { offset: 0x1AA52, size: 0x8, addend: 0x0, symName: __ZNSt3__13getB8ne180100ILm0EJRKNS_12basic_stringIcNS_11char_traitsIcEENS_9allocatorIcEEEEEEERNS_13tuple_elementIXT_ENS_5tupleIJDpT0_EEEE4typeERSD_, symObjAddr: 0xD074, symBinAddr: 0x100010394, symSize: 0x24 }
  - { offset: 0x1AAEC, size: 0x8, addend: 0x0, symName: __ZNSt3__13maxB8ne180100ImEERKT_S3_S3_, symObjAddr: 0xF0F0, symBinAddr: 0x100012410, symSize: 0x2C }
  - { offset: 0x1AD1A, size: 0x8, addend: 0x0, symName: __ZNSt3__120__throw_length_errorB8ne180100EPKc, symObjAddr: 0xF1D0, symBinAddr: 0x1000124F0, symSize: 0x64 }
  - { offset: 0x1AD42, size: 0x8, addend: 0x0, symName: __ZNSt3__13maxB8ne180100ImNS_6__lessIvvEEEERKT_S5_S5_T0_, symObjAddr: 0xF2AC, symBinAddr: 0x1000125CC, symSize: 0x54 }
  - { offset: 0x1AD9C, size: 0x8, addend: 0x0, symName: __ZNSt3__119__allocate_at_leastB8ne180100INS_9allocatorIN5boost6detail12adj_list_genINS2_14adjacency_listINS2_4vecSES6_NS2_9directedSENS2_11no_propertyES8_S8_NS2_5listSEEES6_S6_S7_S8_S8_S8_S9_E6config13stored_vertexEEEEENS_19__allocation_resultINS_16allocator_traitsIT_E7pointerEEERSH_m, symObjAddr: 0xF410, symBinAddr: 0x100012730, symSize: 0x40 }
  - { offset: 0x1ADDF, size: 0x8, addend: 0x0, symName: __ZNSt3__142__uninitialized_allocator_move_if_noexceptB8ne180100INS_9allocatorIN5boost6detail12adj_list_genINS2_14adjacency_listINS2_4vecSES6_NS2_9directedSENS2_11no_propertyES8_S8_NS2_5listSEEES6_S6_S7_S8_S8_S8_S9_E6config13stored_vertexEEENS_16reverse_iteratorIPSD_EESH_SH_EET2_RT_T0_T1_SI_, symObjAddr: 0xF5C4, symBinAddr: 0x1000128E4, symSize: 0x12C }
  - { offset: 0x1AE7F, size: 0x8, addend: 0x0, symName: __ZNSt3__14swapB8ne180100IPN5boost6detail12adj_list_genINS1_14adjacency_listINS1_4vecSES5_NS1_9directedSENS1_11no_propertyES7_S7_NS1_5listSEEES5_S5_S6_S7_S7_S7_S8_E6config13stored_vertexEEENS_9enable_ifIXaasr21is_move_constructibleIT_EE5valuesr18is_move_assignableISF_EE5valueEvE4typeERSF_SI_, symObjAddr: 0xF73C, symBinAddr: 0x100012A5C, symSize: 0x3C }
  - { offset: 0x1AED0, size: 0x8, addend: 0x0, symName: __ZNSt3__122__make_exception_guardB8ne180100INS_29_AllocatorDestroyRangeReverseINS_9allocatorIN5boost6detail12adj_list_genINS3_14adjacency_listINS3_4vecSES7_NS3_9directedSENS3_11no_propertyES9_S9_NS3_5listSEEES7_S7_S8_S9_S9_S9_SA_E6config13stored_vertexEEENS_16reverse_iteratorIPSE_EEEEEENS_28__exception_guard_exceptionsIT_EESL_, symObjAddr: 0xF78C, symBinAddr: 0x100012AAC, symSize: 0x4C }
  - { offset: 0x1AF06, size: 0x8, addend: 0x0, symName: __ZNSt3__1neB8ne180100IPN5boost6detail12adj_list_genINS1_14adjacency_listINS1_4vecSES5_NS1_9directedSENS1_11no_propertyES7_S7_NS1_5listSEEES5_S5_S6_S7_S7_S7_S8_E6config13stored_vertexESD_EEbRKNS_16reverse_iteratorIT_EERKNSE_IT0_EE, symObjAddr: 0xF81C, symBinAddr: 0x100012B3C, symSize: 0x48 }
  - { offset: 0x1AF52, size: 0x8, addend: 0x0, symName: __ZNSt3__112__to_addressB8ne180100INS_16reverse_iteratorIPN5boost6detail12adj_list_genINS2_14adjacency_listINS2_4vecSES6_NS2_9directedSENS2_11no_propertyES8_S8_NS2_5listSEEES6_S6_S7_S8_S8_S8_S9_E6config13stored_vertexEEEvEEu7__decayIDTclsr19__to_address_helperIT_EE6__callclsr3stdE7declvalIRKSG_EEEEESI_, symObjAddr: 0xF898, symBinAddr: 0x100012BB8, symSize: 0x24 }
  - { offset: 0x1AFB1, size: 0x8, addend: 0x0, symName: __ZNSt3__119__allocator_destroyB8ne180100INS_9allocatorIN5boost6detail12adj_list_genINS2_14adjacency_listINS2_4vecSES6_NS2_9directedSENS2_11no_propertyES8_S8_NS2_5listSEEES6_S6_S7_S8_S8_S8_S9_E6config13stored_vertexEEENS_16reverse_iteratorINSF_IPSD_EEEESI_EEvRT_T0_T1_, symObjAddr: 0xFE04, symBinAddr: 0x100013124, symSize: 0x70 }
  - { offset: 0x1B016, size: 0x8, addend: 0x0, symName: __ZNSt3__1neB8ne180100INS_16reverse_iteratorIPN5boost6detail12adj_list_genINS2_14adjacency_listINS2_4vecSES6_NS2_9directedSENS2_11no_propertyES8_S8_NS2_5listSEEES6_S6_S7_S8_S8_S8_S9_E6config13stored_vertexEEESF_EEbRKNS1_IT_EERKNS1_IT0_EE, symObjAddr: 0xFEB0, symBinAddr: 0x1000131D0, symSize: 0x60 }
  - { offset: 0x1B062, size: 0x8, addend: 0x0, symName: __ZNSt3__112__to_addressB8ne180100INS_16reverse_iteratorINS1_IPN5boost6detail12adj_list_genINS2_14adjacency_listINS2_4vecSES6_NS2_9directedSENS2_11no_propertyES8_S8_NS2_5listSEEES6_S6_S7_S8_S8_S8_S9_E6config13stored_vertexEEEEEvEEu7__decayIDTclsr19__to_address_helperIT_EE6__callclsr3stdE7declvalIRKSH_EEEEESJ_, symObjAddr: 0xFF10, symBinAddr: 0x100013230, symSize: 0x24 }
  - { offset: 0x1B0C1, size: 0x8, addend: 0x0, symName: __ZNSt3__19make_pairB8ne180100IN5boost3anyERbEENS_4pairINS_18__unwrap_ref_decayIT_E4typeENS5_IT0_E4typeEEEOS6_OS9_, symObjAddr: 0x10334, symBinAddr: 0x100013654, symSize: 0x40 }
  - { offset: 0x1B1E4, size: 0x8, addend: 0x0, symName: __ZNSt3__19make_pairB8ne180100IN5boost6detail14edge_desc_implINS1_12directed_tagEmEERbEENS_4pairINS_18__unwrap_ref_decayIT_E4typeENS8_IT0_E4typeEEEOS9_OSC_, symObjAddr: 0x10B74, symBinAddr: 0x100013E94, symSize: 0x38 }
  - { offset: 0x1B233, size: 0x8, addend: 0x0, symName: __ZNSt3__19make_pairB8ne180100INS_11__wrap_iterIPN5boost6detail20stored_edge_propertyImNS2_11no_propertyEEEEEbEENS_4pairINS_18__unwrap_ref_decayIT_E4typeENSA_IT0_E4typeEEEOSB_OSE_, symObjAddr: 0x10E14, symBinAddr: 0x100014134, symSize: 0x38 }
  - { offset: 0x1B282, size: 0x8, addend: 0x0, symName: __ZNSt3__119__allocate_at_leastB8ne180100INS_9allocatorIN5boost6detail20stored_edge_propertyImNS2_11no_propertyEEEEEEENS_19__allocation_resultINS_16allocator_traitsIT_E7pointerEEERSA_m, symObjAddr: 0x1180C, symBinAddr: 0x100014B2C, symSize: 0x40 }
  - { offset: 0x1B2C5, size: 0x8, addend: 0x0, symName: __ZNSt3__142__uninitialized_allocator_move_if_noexceptB8ne180100INS_9allocatorIN5boost6detail20stored_edge_propertyImNS2_11no_propertyEEEEENS_16reverse_iteratorIPS6_EESA_SA_EET2_RT_T0_T1_SB_, symObjAddr: 0x119C0, symBinAddr: 0x100014CE0, symSize: 0x12C }
  - { offset: 0x1B365, size: 0x8, addend: 0x0, symName: __ZNSt3__14swapB8ne180100IPN5boost6detail20stored_edge_propertyImNS1_11no_propertyEEEEENS_9enable_ifIXaasr21is_move_constructibleIT_EE5valuesr18is_move_assignableIS8_EE5valueEvE4typeERS8_SB_, symObjAddr: 0x11B38, symBinAddr: 0x100014E58, symSize: 0x3C }
  - { offset: 0x1B3B6, size: 0x8, addend: 0x0, symName: __ZNSt3__122__make_exception_guardB8ne180100INS_29_AllocatorDestroyRangeReverseINS_9allocatorIN5boost6detail20stored_edge_propertyImNS3_11no_propertyEEEEENS_16reverse_iteratorIPS7_EEEEEENS_28__exception_guard_exceptionsIT_EESE_, symObjAddr: 0x11B88, symBinAddr: 0x100014EA8, symSize: 0x4C }
  - { offset: 0x1B3EC, size: 0x8, addend: 0x0, symName: __ZNSt3__1neB8ne180100IPN5boost6detail20stored_edge_propertyImNS1_11no_propertyEEES6_EEbRKNS_16reverse_iteratorIT_EERKNS7_IT0_EE, symObjAddr: 0x11C18, symBinAddr: 0x100014F38, symSize: 0x48 }
  - { offset: 0x1B438, size: 0x8, addend: 0x0, symName: __ZNSt3__112__to_addressB8ne180100INS_16reverse_iteratorIPN5boost6detail20stored_edge_propertyImNS2_11no_propertyEEEEEvEEu7__decayIDTclsr19__to_address_helperIT_EE6__callclsr3stdE7declvalIRKS9_EEEEESB_, symObjAddr: 0x11C94, symBinAddr: 0x100014FB4, symSize: 0x24 }
  - { offset: 0x1B497, size: 0x8, addend: 0x0, symName: __ZNSt3__119__allocator_destroyB8ne180100INS_9allocatorIN5boost6detail20stored_edge_propertyImNS2_11no_propertyEEEEENS_16reverse_iteratorINS8_IPS6_EEEESB_EEvRT_T0_T1_, symObjAddr: 0x11FF0, symBinAddr: 0x100015310, symSize: 0x70 }
  - { offset: 0x1B4FC, size: 0x8, addend: 0x0, symName: __ZNSt3__1neB8ne180100INS_16reverse_iteratorIPN5boost6detail20stored_edge_propertyImNS2_11no_propertyEEEEES8_EEbRKNS1_IT_EERKNS1_IT0_EE, symObjAddr: 0x1209C, symBinAddr: 0x1000153BC, symSize: 0x60 }
  - { offset: 0x1B548, size: 0x8, addend: 0x0, symName: __ZNSt3__112__to_addressB8ne180100INS_16reverse_iteratorINS1_IPN5boost6detail20stored_edge_propertyImNS2_11no_propertyEEEEEEEvEEu7__decayIDTclsr19__to_address_helperIT_EE6__callclsr3stdE7declvalIRKSA_EEEEESC_, symObjAddr: 0x120FC, symBinAddr: 0x10001541C, symSize: 0x24 }
  - { offset: 0x1B67B, size: 0x8, addend: 0x0, symName: __ZNSt3__1plB8ne180100IcNS_11char_traitsIcEENS_9allocatorIcEEEENS_12basic_stringIT_T0_T1_EEOS9_RKS9_, symObjAddr: 0x132D0, symBinAddr: 0x1000165F0, symSize: 0x40 }
  - { offset: 0x1B6D3, size: 0x8, addend: 0x0, symName: __ZNSt3__1plB8ne180100IcNS_11char_traitsIcEENS_9allocatorIcEEEENS_12basic_stringIT_T0_T1_EEOS9_PKS6_, symObjAddr: 0x13310, symBinAddr: 0x100016630, symSize: 0x40 }
  - { offset: 0x1B72B, size: 0x8, addend: 0x0, symName: __ZNSt3__1eqB8ne180100IcNS_11char_traitsIcEENS_9allocatorIcEEEEbRKNS_12basic_stringIT_T0_T1_EEPKS6_, symObjAddr: 0x136A4, symBinAddr: 0x1000169C4, symSize: 0xAC }
  - { offset: 0x1B792, size: 0x8, addend: 0x0, symName: __ZNSt3__1neB8ne180100ERKNS_14__map_iteratorINS_15__tree_iteratorINS_12__value_typeINS_12basic_stringIcNS_11char_traitsIcEENS_9allocatorIcEEEEN5boost10shared_ptrINS9_20dynamic_property_mapEEEEEPNS_11__tree_nodeISD_PvEElEEEESL_, symObjAddr: 0x13AB4, symBinAddr: 0x100016DD4, symSize: 0x30 }
  - { offset: 0x1B7CF, size: 0x8, addend: 0x0, symName: __ZNSt3__1eqB8ne180100INS_9allocatorIcEEEEbRKNS_12basic_stringIcNS_11char_traitsIcEET_EES9_, symObjAddr: 0x13B10, symBinAddr: 0x100016E30, symSize: 0x148 }
  - { offset: 0x1B842, size: 0x8, addend: 0x0, symName: __ZNSt3__1neB8ne180100ERKNS_15__tree_iteratorINS_12__value_typeINS_12basic_stringIcNS_11char_traitsIcEENS_9allocatorIcEEEEN5boost10shared_ptrINS8_20dynamic_property_mapEEEEEPNS_11__tree_nodeISC_PvEElEESJ_, symObjAddr: 0x14144, symBinAddr: 0x100017464, symSize: 0x34 }
  - { offset: 0x1B87F, size: 0x8, addend: 0x0, symName: __ZNSt3__1eqB8ne180100ERKNS_15__tree_iteratorINS_12__value_typeINS_12basic_stringIcNS_11char_traitsIcEENS_9allocatorIcEEEEN5boost10shared_ptrINS8_20dynamic_property_mapEEEEEPNS_11__tree_nodeISC_PvEElEESJ_, symObjAddr: 0x14178, symBinAddr: 0x100017498, symSize: 0x30 }
  - { offset: 0x1B922, size: 0x8, addend: 0x0, symName: __ZNSt3__19use_facetB8ne180100INS_8numpunctIcEEEERKT_RKNS_6localeE, symObjAddr: 0x17904, symBinAddr: 0x10001AC24, symSize: 0x2C }
  - { offset: 0x1C2E8, size: 0x8, addend: 0x0, symName: __ZNSt3__18distanceB8ne180100IPKcEENS_15iterator_traitsIT_E15difference_typeES4_S4_, symObjAddr: 0x1C560, symBinAddr: 0x10001F880, symSize: 0x2C }
  - { offset: 0x1C32B, size: 0x8, addend: 0x0, symName: __ZNSt3__110__distanceB8ne180100IPKcEENS_15iterator_traitsIT_E15difference_typeES4_S4_NS_26random_access_iterator_tagE, symObjAddr: 0x1C700, symBinAddr: 0x10001FA20, symSize: 0x20 }
  - { offset: 0x1C44C, size: 0x8, addend: 0x0, symName: __ZNSt3__19make_pairB8ne180100IN5boost12range_detail16integer_iteratorImEES4_EENS_4pairINS_18__unwrap_ref_decayIT_E4typeENS6_IT0_E4typeEEEOS7_OSA_, symObjAddr: 0x22188, symBinAddr: 0x1000254A8, symSize: 0x38 }
  - { offset: 0x1C49B, size: 0x8, addend: 0x0, symName: __ZNSt3__19make_pairB8ne180100IN5boost6detail22adj_list_edge_iteratorINS1_12range_detail16integer_iteratorImEENS2_13out_edge_iterINS_11__wrap_iterIPNS2_20stored_edge_propertyImNS1_11no_propertyEEEEEmNS2_14edge_desc_implINS1_12directed_tagEmEElEENS1_14adjacency_listINS1_4vecSESJ_NS1_9directedSESA_SA_SA_NS1_5listSEEEEESN_EENS_4pairINS_18__unwrap_ref_decayIT_E4typeENSP_IT0_E4typeEEEOSQ_OST_, symObjAddr: 0x224B4, symBinAddr: 0x1000257D4, symSize: 0x40 }
  - { offset: 0x1C4EA, size: 0x8, addend: 0x0, symName: __ZNSt3__19make_pairB8ne180100IN5boost6detail13out_edge_iterINS_11__wrap_iterIPNS2_20stored_edge_propertyImNS1_11no_propertyEEEEEmNS2_14edge_desc_implINS1_12directed_tagEmEElEESD_EENS_4pairINS_18__unwrap_ref_decayIT_E4typeENSF_IT0_E4typeEEEOSG_OSJ_, symObjAddr: 0x22B64, symBinAddr: 0x100025E84, symSize: 0x38 }
  - { offset: 0x1C539, size: 0x8, addend: 0x0, symName: __ZNSt3__1eqB8ne180100IPN5boost6detail20stored_edge_propertyImNS1_11no_propertyEEEEEbRKNS_11__wrap_iterIT_EESB_, symObjAddr: 0x2321C, symBinAddr: 0x10002653C, symSize: 0x48 }
  - { offset: 0x1E056, size: 0x8, addend: 0x0, symName: __ZSt28__throw_bad_array_new_lengthB8ne180100v, symObjAddr: 0x8AFC, symBinAddr: 0x10000BE1C, symSize: 0x34 }
  - { offset: 0x1E08B, size: 0x8, addend: 0x0, symName: __ZN5boost17mutate_graph_implINS_14adjacency_listINS_4vecSES2_NS_9directedSENS_11no_propertyES4_S4_NS_5listSEEEE12m_type_namesE, symObjAddr: 0x27140, symBinAddr: 0x100030000, symSize: 0x0 }
  - { offset: 0x20678, size: 0x8, addend: 0x0, symName: __ZN5boost6detail16atomic_decrementEPj, symObjAddr: 0x24FC, symBinAddr: 0x10000581C, symSize: 0x30 }
  - { offset: 0x206A4, size: 0x8, addend: 0x0, symName: __ZN5boost6detail12get_dispatchINS0_12adj_list_genINS_14adjacency_listINS_4vecSES4_NS_9directedSENS_11no_propertyES6_S6_NS_5listSEEES4_S4_S5_S6_S6_S6_S7_E6configENS_21directed_graph_helperISA_EENS_14vertex_index_tEEENS_12property_mapINT_10graph_typeET1_vE4typeERNS_15adj_list_helperISF_T0_EESH_NS_19vertex_property_tagE, symObjAddr: 0x4FB4, symBinAddr: 0x1000082D4, symSize: 0x38 }
  - { offset: 0x2078F, size: 0x8, addend: 0x0, symName: __ZN5boost6detail26sp_enable_shared_from_thisEz, symObjAddr: 0x53EC, symBinAddr: 0x10000870C, symSize: 0x4 }
  - { offset: 0x207AB, size: 0x8, addend: 0x0, symName: __ZN5boost6detail20sp_deleter_constructINS0_28dynamic_property_map_adaptorINS_26vec_adj_list_vertex_id_mapINS_11no_propertyEmEEEES6_EEvPNS_10shared_ptrIT_EEPT0_, symObjAddr: 0x54D4, symBinAddr: 0x1000087F4, symSize: 0x40 }
  - { offset: 0x2091F, size: 0x8, addend: 0x0, symName: __ZN5boost6detail17get_local_deleterINS0_13sp_ms_deleterINS0_28dynamic_property_map_adaptorINS_26vec_adj_list_vertex_id_mapINS_11no_propertyEmEEEEEEEEPT_SA_, symObjAddr: 0x5AEC, symBinAddr: 0x100008E0C, symSize: 0x14 }
  - { offset: 0x20950, size: 0x8, addend: 0x0, symName: __ZN5boost6detail15get_wrapper_xxxINS_26vec_adj_list_vertex_id_mapINS_11no_propertyEmEEmEENS_15property_traitsIT_E9referenceERKS6_RKT0_, symObjAddr: 0x5E40, symBinAddr: 0x100009160, symSize: 0x2C }
  - { offset: 0x209FE, size: 0x8, addend: 0x0, symName: __ZN5boost6detail16atomic_incrementEPj, symObjAddr: 0x83BC, symBinAddr: 0x10000B6DC, symSize: 0x28 }
  - { offset: 0x20AAD, size: 0x8, addend: 0x0, symName: __ZN5boost6detail20sp_deleter_constructINS0_28dynamic_property_map_adaptorINS_24associative_property_mapINSt3__13mapINS4_12basic_stringIcNS4_11char_traitsIcEENS4_9allocatorIcEEEESB_NS4_4lessISB_EENS9_INS4_4pairIKSB_SB_EEEEEEEEEESK_EEvPNS_10shared_ptrIT_EEPT0_, symObjAddr: 0xBC1C, symBinAddr: 0x10000EF3C, symSize: 0x40 }
  - { offset: 0x20C21, size: 0x8, addend: 0x0, symName: __ZN5boost6detail17get_local_deleterINS0_13sp_ms_deleterINS0_28dynamic_property_map_adaptorINS_24associative_property_mapINSt3__13mapINS5_12basic_stringIcNS5_11char_traitsIcEENS5_9allocatorIcEEEESC_NS5_4lessISC_EENSA_INS5_4pairIKSC_SC_EEEEEEEEEEEEEEPT_SO_, symObjAddr: 0xC08C, symBinAddr: 0x10000F3AC, symSize: 0x14 }
  - { offset: 0x20C52, size: 0x8, addend: 0x0, symName: __ZN5boost6detail15get_wrapper_xxxINS_24associative_property_mapINSt3__13mapINS3_12basic_stringIcNS3_11char_traitsIcEENS3_9allocatorIcEEEESA_NS3_4lessISA_EENS8_INS3_4pairIKSA_SA_EEEEEEEESA_EENS_15property_traitsIT_E9referenceERKSK_RKT0_, symObjAddr: 0xC36C, symBinAddr: 0x10000F68C, symSize: 0x2C }
  - { offset: 0x20C9E, size: 0x8, addend: 0x0, symName: __ZN5boost6detail10read_valueINSt3__112basic_stringIcNS2_11char_traitsIcEENS2_9allocatorIcEEEEEET_RKS8_, symObjAddr: 0xDB34, symBinAddr: 0x100010E54, symSize: 0x38 }
  - { offset: 0x21031, size: 0x8, addend: 0x0, symName: __ZN5boost6detail13parse_inf_nanIcfEEbPKT_S4_RT0_, symObjAddr: 0x19A34, symBinAddr: 0x10001CD54, symSize: 0x68 }
  - { offset: 0x2108B, size: 0x8, addend: 0x0, symName: __ZN5boost6detail18parse_inf_nan_implIcfEEbPKT_S4_RT0_S4_S4_S4_S4_S2_S2_, symObjAddr: 0x19C90, symBinAddr: 0x10001CFB0, symSize: 0x2FC }
  - { offset: 0x21171, size: 0x8, addend: 0x0, symName: __ZN5boost6detail9lc_iequalIcEEbPKT_S4_S4_j, symObjAddr: 0x19F8C, symBinAddr: 0x10001D2AC, symSize: 0xD0 }
  - { offset: 0x211EC, size: 0x8, addend: 0x0, symName: __ZN5boost6detail19lcast_set_precisionIfEEvRNSt3__18ios_baseEPT_, symObjAddr: 0x1A26C, symBinAddr: 0x10001D58C, symSize: 0x2C }
  - { offset: 0x21283, size: 0x8, addend: 0x0, symName: __ZN5boost6detail13parse_inf_nanIcdEEbPKT_S4_RT0_, symObjAddr: 0x1B5A8, symBinAddr: 0x10001E8C8, symSize: 0x68 }
  - { offset: 0x212DD, size: 0x8, addend: 0x0, symName: __ZN5boost6detail18parse_inf_nan_implIcdEEbPKT_S4_RT0_S4_S4_S4_S4_S2_S2_, symObjAddr: 0x1B800, symBinAddr: 0x10001EB20, symSize: 0x2FC }
  - { offset: 0x213C3, size: 0x8, addend: 0x0, symName: __ZN5boost6detail19lcast_set_precisionIdEEvRNSt3__18ios_baseEPT_, symObjAddr: 0x1BBAC, symBinAddr: 0x10001EECC, symSize: 0x2C }
  - { offset: 0x21CF3, size: 0x8, addend: 0x0, symName: __ZN5boost3mpl3aux6unwrapINS_17mutate_graph_implINS_14adjacency_listINS_4vecSES5_NS_9directedSENS_11no_propertyES7_S7_NS_5listSEEEE12put_propertyIPS9_NS0_6vectorIbilfdNSt3__112basic_stringIcNSE_11char_traitsIcEENSE_9allocatorIcEEEEN4mpl_2naESM_SM_SM_SM_SM_SM_SM_SM_SM_SM_SM_SM_SM_EEEEEERT_SQ_l, symObjAddr: 0x134C4, symBinAddr: 0x1000167E4, symSize: 0x18 }
  - { offset: 0x21E12, size: 0x8, addend: 0x0, symName: __ZN5boost3mpl3aux6unwrapINS_17mutate_graph_implINS_14adjacency_listINS_4vecSES5_NS_9directedSENS_11no_propertyES7_S7_NS_5listSEEEE12put_propertyImNS0_6vectorIbilfdNSt3__112basic_stringIcNSD_11char_traitsIcEENSD_9allocatorIcEEEEN4mpl_2naESL_SL_SL_SL_SL_SL_SL_SL_SL_SL_SL_SL_SL_EEEEEERT_SP_l, symObjAddr: 0x1D504, symBinAddr: 0x100020824, symSize: 0x18 }
  - { offset: 0x21E51, size: 0x8, addend: 0x0, symName: __ZN5boost3mpl3aux6unwrapINS_17mutate_graph_implINS_14adjacency_listINS_4vecSES5_NS_9directedSENS_11no_propertyES7_S7_NS_5listSEEEE12put_propertyINS_6detail14edge_desc_implINS_12directed_tagEmEENS0_6vectorIbilfdNSt3__112basic_stringIcNSH_11char_traitsIcEENSH_9allocatorIcEEEEN4mpl_2naESP_SP_SP_SP_SP_SP_SP_SP_SP_SP_SP_SP_SP_EEEEEERT_ST_l, symObjAddr: 0x1F854, symBinAddr: 0x100022B74, symSize: 0x18 }
  - { offset: 0x21EFB, size: 0x8, addend: 0x0, symName: __ZN5boost3mpl8for_eachINS0_6vectorIbilfdNSt3__112basic_stringIcNS3_11char_traitsIcEENS3_9allocatorIcEEEEN4mpl_2naESB_SB_SB_SB_SB_SB_SB_SB_SB_SB_SB_SB_SB_EENS0_8identityISB_EENS_17mutate_graph_implINS_14adjacency_listINS_4vecSESH_NS_9directedSENS_11no_propertyESJ_SJ_NS_5listSEEEE12put_propertyIPSL_SC_EEEEvT1_PT_PT0_, symObjAddr: 0x133B0, symBinAddr: 0x1000166D0, symSize: 0x58 }
  - { offset: 0x22638, size: 0x8, addend: 0x0, symName: __ZN5boost3mpl8for_eachINS0_6vectorIbilfdNSt3__112basic_stringIcNS3_11char_traitsIcEENS3_9allocatorIcEEEEN4mpl_2naESB_SB_SB_SB_SB_SB_SB_SB_SB_SB_SB_SB_SB_EENS0_8identityISB_EENS_17mutate_graph_implINS_14adjacency_listINS_4vecSESH_NS_9directedSENS_11no_propertyESJ_SJ_NS_5listSEEEE12put_propertyImSC_EEEEvT1_PT_PT0_, symObjAddr: 0x1D41C, symBinAddr: 0x10002073C, symSize: 0x58 }
  - { offset: 0x226A6, size: 0x8, addend: 0x0, symName: __ZN5boost3mpl8for_eachINS0_6vectorIbilfdNSt3__112basic_stringIcNS3_11char_traitsIcEENS3_9allocatorIcEEEEN4mpl_2naESB_SB_SB_SB_SB_SB_SB_SB_SB_SB_SB_SB_SB_EENS0_8identityISB_EENS_17mutate_graph_implINS_14adjacency_listINS_4vecSESH_NS_9directedSENS_11no_propertyESJ_SJ_NS_5listSEEEE12put_propertyINS_6detail14edge_desc_implINS_12directed_tagEmEESC_EEEEvT1_PT_PT0_, symObjAddr: 0x1F76C, symBinAddr: 0x100022A8C, symSize: 0x58 }
  - { offset: 0x22714, size: 0x8, addend: 0x0, symName: __ZN5boost3mpl8for_eachINS0_6vectorIbilfdNSt3__112basic_stringIcNS3_11char_traitsIcEENS3_9allocatorIcEEEEN4mpl_2naESB_SB_SB_SB_SB_SB_SB_SB_SB_SB_SB_SB_SB_EENS_17mutate_graph_implINS_14adjacency_listINS_4vecSESF_NS_9directedSENS_11no_propertyESH_SH_NS_5listSEEEE12put_propertyIPSJ_SC_EEEEvT0_PT_, symObjAddr: 0x131A8, symBinAddr: 0x1000164C8, symSize: 0x50 }
  - { offset: 0x22759, size: 0x8, addend: 0x0, symName: __ZN5boost3mpl8for_eachINS0_6vectorIbilfdNSt3__112basic_stringIcNS3_11char_traitsIcEENS3_9allocatorIcEEEEN4mpl_2naESB_SB_SB_SB_SB_SB_SB_SB_SB_SB_SB_SB_SB_EENS_17mutate_graph_implINS_14adjacency_listINS_4vecSESF_NS_9directedSENS_11no_propertyESH_SH_NS_5listSEEEE12put_propertyImSC_EEEEvT0_PT_, symObjAddr: 0x1D368, symBinAddr: 0x100020688, symSize: 0x50 }
  - { offset: 0x2279E, size: 0x8, addend: 0x0, symName: __ZN5boost3mpl8for_eachINS0_6vectorIbilfdNSt3__112basic_stringIcNS3_11char_traitsIcEENS3_9allocatorIcEEEEN4mpl_2naESB_SB_SB_SB_SB_SB_SB_SB_SB_SB_SB_SB_SB_EENS_17mutate_graph_implINS_14adjacency_listINS_4vecSESF_NS_9directedSENS_11no_propertyESH_SH_NS_5listSEEEE12put_propertyINS_6detail14edge_desc_implINS_12directed_tagEmEESC_EEEEvT0_PT_, symObjAddr: 0x1F620, symBinAddr: 0x100022940, symSize: 0x50 }
  - { offset: 0x23423, size: 0x8, addend: 0x0, symName: __ZN5boost9iteratorsneINS_12range_detail16integer_iteratorImEEmNS0_27random_access_traversal_tagEmlS4_mS5_mlEENS0_6detail23enable_if_interoperableIT_T4_bE4typeERKNS0_15iterator_facadeIS8_T0_T1_T2_T3_EERKNSC_IS9_T5_T6_T7_T8_EE, symObjAddr: 0x14D8, symBinAddr: 0x1000047F8, symSize: 0x34 }
  - { offset: 0x2350C, size: 0x8, addend: 0x0, symName: __ZN5boost9iteratorsmiINS_12range_detail16integer_iteratorImEEmNS0_27random_access_traversal_tagEmlS4_mS5_mlEENS0_6detail51enable_if_interoperable_and_random_access_traversalIT_T4_NSt3__111conditionalIXsr3std14is_convertibleIS9_S8_EE5valueENS0_19iterator_differenceIS8_EENSC_IS9_EEE4type4typeEE4typeERKNS0_15iterator_facadeIS8_T0_T1_T2_T3_EERKNSJ_IS9_T5_T6_T7_T8_EE, symObjAddr: 0x21CAC, symBinAddr: 0x100024FCC, symSize: 0x2C }
  - { offset: 0x236C6, size: 0x8, addend: 0x0, symName: __ZN5boost9iteratorsneINS_6detail13out_edge_iterINSt3__111__wrap_iterIPNS2_20stored_edge_propertyImNS_11no_propertyEEEEEmNS2_14edge_desc_implINS_12directed_tagEmEElEESD_NS0_27random_access_traversal_tagESD_lSE_SD_SF_SD_lEENS0_6detail23enable_if_interoperableIT_T4_bE4typeERKNS0_15iterator_facadeISI_T0_T1_T2_T3_EERKNSM_ISJ_T5_T6_T7_T8_EE, symObjAddr: 0x2311C, symBinAddr: 0x10002643C, symSize: 0x34 }
  - { offset: 0x2375D, size: 0x8, addend: 0x0, symName: __ZN5boost9iteratorseqINS_6detail13out_edge_iterINSt3__111__wrap_iterIPNS2_20stored_edge_propertyImNS_11no_propertyEEEEEmNS2_14edge_desc_implINS_12directed_tagEmEElEESD_NS0_27random_access_traversal_tagESD_lSE_SD_SF_SD_lEENS0_6detail23enable_if_interoperableIT_T4_bE4typeERKNS0_15iterator_facadeISI_T0_T1_T2_T3_EERKNSM_ISJ_T5_T6_T7_T8_EE, symObjAddr: 0x23348, symBinAddr: 0x100026668, symSize: 0x30 }
  - { offset: 0x23C25, size: 0x8, addend: 0x0, symName: __ZN5boost12range_detail11range_beginINS0_16integer_iteratorImEEEET_RKNSt3__14pairIS4_S4_EE, symObjAddr: 0x22340, symBinAddr: 0x100025660, symSize: 0x20 }
  - { offset: 0x23C5A, size: 0x8, addend: 0x0, symName: __ZN5boost12range_detail9range_endINS0_16integer_iteratorImEEEET_RKNSt3__14pairIS4_S4_EE, symObjAddr: 0x2238C, symBinAddr: 0x1000256AC, symSize: 0x20 }
  - { offset: 0x23C8F, size: 0x8, addend: 0x0, symName: __ZN5boost12range_detail11range_beginINS_6detail22adj_list_edge_iteratorINS0_16integer_iteratorImEENS2_13out_edge_iterINSt3__111__wrap_iterIPNS2_20stored_edge_propertyImNS_11no_propertyEEEEEmNS2_14edge_desc_implINS_12directed_tagEmEElEENS_14adjacency_listINS_4vecSESJ_NS_9directedSESA_SA_SA_NS_5listSEEEEEEET_RKNS7_4pairISO_SO_EE, symObjAddr: 0x2307C, symBinAddr: 0x10002639C, symSize: 0x38 }
  - { offset: 0x23CC4, size: 0x8, addend: 0x0, symName: __ZN5boost12range_detail9range_endINS_6detail22adj_list_edge_iteratorINS0_16integer_iteratorImEENS2_13out_edge_iterINSt3__111__wrap_iterIPNS2_20stored_edge_propertyImNS_11no_propertyEEEEEmNS2_14edge_desc_implINS_12directed_tagEmEElEENS_14adjacency_listINS_4vecSESJ_NS_9directedSESA_SA_SA_NS_5listSEEEEEEET_RKNS7_4pairISO_SO_EE, symObjAddr: 0x230E0, symBinAddr: 0x100026400, symSize: 0x3C }
  - { offset: 0x25310, size: 0x8, addend: 0x0, symName: __ZN5boost9typeindexeqINS0_14stl_type_indexESt9type_infoEEbRKT0_RKNS0_17type_index_facadeIT_S4_EE, symObjAddr: 0x60E8, symBinAddr: 0x100009408, symSize: 0x40 }
  - { offset: 0x2535C, size: 0x8, addend: 0x0, symName: __ZN5boost9typeindex7type_idIKmEENS0_14stl_type_indexEv, symObjAddr: 0x619C, symBinAddr: 0x1000094BC, symSize: 0x24 }
  - { offset: 0x25383, size: 0x8, addend: 0x0, symName: __ZN5boost9typeindexeqINS0_14stl_type_indexESt9type_infoEEbRKNS0_17type_index_facadeIT_T0_EES9_, symObjAddr: 0x61DC, symBinAddr: 0x1000094FC, symSize: 0x30 }
  - { offset: 0x253CF, size: 0x8, addend: 0x0, symName: __ZN5boost9typeindex7type_idIvEENS0_14stl_type_indexEv, symObjAddr: 0x633C, symBinAddr: 0x10000965C, symSize: 0x24 }
  - { offset: 0x253F2, size: 0x8, addend: 0x0, symName: __ZN5boost9typeindex7type_idImEENS0_14stl_type_indexEv, symObjAddr: 0x71F0, symBinAddr: 0x10000A510, symSize: 0x24 }
  - { offset: 0x25419, size: 0x8, addend: 0x0, symName: __ZN5boost9typeindex7type_idIKNSt3__112basic_stringIcNS2_11char_traitsIcEENS2_9allocatorIcEEEEEENS0_14stl_type_indexEv, symObjAddr: 0xD558, symBinAddr: 0x100010878, symSize: 0x24 }
  - { offset: 0x25440, size: 0x8, addend: 0x0, symName: __ZN5boost9typeindex7type_idINSt3__112basic_stringIcNS2_11char_traitsIcEENS2_9allocatorIcEEEEEENS0_14stl_type_indexEv, symObjAddr: 0xD814, symBinAddr: 0x100010B34, symSize: 0x24 }
  - { offset: 0x25467, size: 0x8, addend: 0x0, symName: __ZN5boost9typeindex7type_idINS_6detail14edge_desc_implINS_12directed_tagEmEEEENS0_14stl_type_indexEv, symObjAddr: 0x13100, symBinAddr: 0x100016420, symSize: 0x24 }
  - { offset: 0x2548E, size: 0x8, addend: 0x0, symName: __ZN5boost9typeindex7type_idIPNS_14adjacency_listINS_4vecSES3_NS_9directedSENS_11no_propertyES5_S5_NS_5listSEEEEENS0_14stl_type_indexEv, symObjAddr: 0x14490, symBinAddr: 0x1000177B0, symSize: 0x24 }
  - { offset: 0x254B5, size: 0x8, addend: 0x0, symName: __ZN5boost9typeindex7type_idIbEENS0_14stl_type_indexEv, symObjAddr: 0x146F4, symBinAddr: 0x100017A14, symSize: 0x24 }
  - { offset: 0x254DC, size: 0x8, addend: 0x0, symName: __ZN5boost9typeindex7type_idIiEENS0_14stl_type_indexEv, symObjAddr: 0x170A0, symBinAddr: 0x10001A3C0, symSize: 0x24 }
  - { offset: 0x25503, size: 0x8, addend: 0x0, symName: __ZN5boost9typeindex7type_idIlEENS0_14stl_type_indexEv, symObjAddr: 0x18454, symBinAddr: 0x10001B774, symSize: 0x24 }
  - { offset: 0x2552A, size: 0x8, addend: 0x0, symName: __ZN5boost9typeindex7type_idIfEENS0_14stl_type_indexEv, symObjAddr: 0x19724, symBinAddr: 0x10001CA44, symSize: 0x24 }
  - { offset: 0x25551, size: 0x8, addend: 0x0, symName: __ZN5boost9typeindex7type_idIdEENS0_14stl_type_indexEv, symObjAddr: 0x1B298, symBinAddr: 0x10001E5B8, symSize: 0x24 }
  - { offset: 0x260F3, size: 0x8, addend: 0x0, symName: __ZN5boost4core7launderINSt3__14pairINS_6detail13out_edge_iterINS2_11__wrap_iterIPNS4_20stored_edge_propertyImNS_11no_propertyEEEEEmNS4_14edge_desc_implINS_12directed_tagEmEElEESF_EEEEPT_SI_, symObjAddr: 0x2934, symBinAddr: 0x100005C54, symSize: 0x14 }
  - { offset: 0x26128, size: 0x8, addend: 0x0, symName: __ZN5boost4core8copysignIfEET_S2_S2_, symObjAddr: 0x1A070, symBinAddr: 0x10001D390, symSize: 0x2C }
  - { offset: 0x26173, size: 0x8, addend: 0x0, symName: __ZN5boost4core6detail13copysign_implEff, symObjAddr: 0x1A0BC, symBinAddr: 0x10001D3DC, symSize: 0x4C }
  - { offset: 0x261B0, size: 0x8, addend: 0x0, symName: __ZN5boost4core6detail13copysign_implEdd, symObjAddr: 0x1BB5C, symBinAddr: 0x10001EE7C, symSize: 0x44 }
  - { offset: 0x261EE, size: 0x8, addend: 0x0, symName: __ZN5boost4core8copysignIdEET_S2_S2_, symObjAddr: 0x1BB10, symBinAddr: 0x10001EE30, symSize: 0x2C }
  - { offset: 0x26234, size: 0x8, addend: 0x0, symName: __ZN5boost4core7launderIKNSt3__14pairINS_6detail13out_edge_iterINS2_11__wrap_iterIPNS4_20stored_edge_propertyImNS_11no_propertyEEEEEmNS4_14edge_desc_implINS_12directed_tagEmEElEESF_EEEEPT_SJ_, symObjAddr: 0x22810, symBinAddr: 0x100025B30, symSize: 0x14 }
  - { offset: 0x26376, size: 0x8, addend: 0x0, symName: __ZN5boost19static_pointer_castINS_20dynamic_property_mapENS_6detail28dynamic_property_map_adaptorINS_26vec_adj_list_vertex_id_mapINS_11no_propertyEmEEEEEENS_10shared_ptrIT_EEONS8_IT0_EE, symObjAddr: 0x5044, symBinAddr: 0x100008364, symSize: 0x44 }
  - { offset: 0x26764, size: 0x8, addend: 0x0, symName: __ZN5boost16exception_detail20copy_boost_exceptionEPNS_9exceptionEPKS1_, symObjAddr: 0x6A50, symBinAddr: 0x100009D70, symSize: 0x124 }
  - { offset: 0x267C1, size: 0x8, addend: 0x0, symName: __ZN5boost16exception_detail8set_infoINS_10wrapexceptINS_23dynamic_const_put_errorEEEEERKT_S7_RKNS_10error_infoINS_11throw_file_EPKcEE, symObjAddr: 0x7AE8, symBinAddr: 0x10000AE08, symSize: 0x28 }
  - { offset: 0x26807, size: 0x8, addend: 0x0, symName: __ZN5boost16exception_detail8set_infoINS_10wrapexceptINS_23dynamic_const_put_errorEEEEERKT_S7_RKNS_10error_infoINS_11throw_line_EiEE, symObjAddr: 0x7B5C, symBinAddr: 0x10000AE7C, symSize: 0x28 }
  - { offset: 0x2684D, size: 0x8, addend: 0x0, symName: __ZN5boost16exception_detail8set_infoINS_10wrapexceptINS_23dynamic_const_put_errorEEEEERKT_S7_RKNS_10error_infoINS_15throw_function_EPKcEE, symObjAddr: 0x7BD0, symBinAddr: 0x10000AEF0, symSize: 0x28 }
  - { offset: 0x26893, size: 0x8, addend: 0x0, symName: __ZN5boost16exception_detail8set_infoINS_10wrapexceptINS_23dynamic_const_put_errorEEEEERKT_S7_RKNS_10error_infoINS_13throw_column_EiEE, symObjAddr: 0x7C44, symBinAddr: 0x10000AF64, symSize: 0x28 }
  - { offset: 0x268D9, size: 0x8, addend: 0x0, symName: __ZN5boost16exception_detail8set_infoINS_10wrapexceptINS_18property_not_foundEEEEERKT_S7_RKNS_10error_infoINS_11throw_file_EPKcEE, symObjAddr: 0x14C00, symBinAddr: 0x100017F20, symSize: 0x28 }
  - { offset: 0x2691F, size: 0x8, addend: 0x0, symName: __ZN5boost16exception_detail8set_infoINS_10wrapexceptINS_18property_not_foundEEEEERKT_S7_RKNS_10error_infoINS_11throw_line_EiEE, symObjAddr: 0x14C28, symBinAddr: 0x100017F48, symSize: 0x28 }
  - { offset: 0x26965, size: 0x8, addend: 0x0, symName: __ZN5boost16exception_detail8set_infoINS_10wrapexceptINS_18property_not_foundEEEEERKT_S7_RKNS_10error_infoINS_15throw_function_EPKcEE, symObjAddr: 0x14C50, symBinAddr: 0x100017F70, symSize: 0x28 }
  - { offset: 0x269AB, size: 0x8, addend: 0x0, symName: __ZN5boost16exception_detail8set_infoINS_10wrapexceptINS_18property_not_foundEEEEERKT_S7_RKNS_10error_infoINS_13throw_column_EiEE, symObjAddr: 0x14C78, symBinAddr: 0x100017F98, symSize: 0x28 }
  - { offset: 0x269F1, size: 0x8, addend: 0x0, symName: __ZN5boost16exception_detail8set_infoINS_10wrapexceptINS_11parse_errorEEEEERKT_S7_RKNS_10error_infoINS_11throw_file_EPKcEE, symObjAddr: 0x1CC80, symBinAddr: 0x10001FFA0, symSize: 0x28 }
  - { offset: 0x26A37, size: 0x8, addend: 0x0, symName: __ZN5boost16exception_detail8set_infoINS_10wrapexceptINS_11parse_errorEEEEERKT_S7_RKNS_10error_infoINS_11throw_line_EiEE, symObjAddr: 0x1CCA8, symBinAddr: 0x10001FFC8, symSize: 0x28 }
  - { offset: 0x26A7D, size: 0x8, addend: 0x0, symName: __ZN5boost16exception_detail8set_infoINS_10wrapexceptINS_11parse_errorEEEEERKT_S7_RKNS_10error_infoINS_15throw_function_EPKcEE, symObjAddr: 0x1CCD0, symBinAddr: 0x10001FFF0, symSize: 0x28 }
  - { offset: 0x26AC3, size: 0x8, addend: 0x0, symName: __ZN5boost16exception_detail8set_infoINS_10wrapexceptINS_11parse_errorEEEEERKT_S7_RKNS_10error_infoINS_13throw_column_EiEE, symObjAddr: 0x1CCF8, symBinAddr: 0x100020018, symSize: 0x28 }
  - { offset: 0x26E8B, size: 0x8, addend: 0x0, symName: __ZN5boost19static_pointer_castINS_20dynamic_property_mapENS_6detail28dynamic_property_map_adaptorINS_24associative_property_mapINSt3__13mapINS5_12basic_stringIcNS5_11char_traitsIcEENS5_9allocatorIcEEEESC_NS5_4lessISC_EENSA_INS5_4pairIKSC_SC_EEEEEEEEEEEENS_10shared_ptrIT_EEONSM_IT0_EE, symObjAddr: 0xB88C, symBinAddr: 0x10000EBAC, symSize: 0x44 }
  - { offset: 0x27C16, size: 0x8, addend: 0x0, symName: __ZN5boost15optional_detail7forwardINSt3__14pairINS_6detail13out_edge_iterINS2_11__wrap_iterIPNS4_20stored_edge_propertyImNS_11no_propertyEEEEEmNS4_14edge_desc_implINS_12directed_tagEmEElEESF_EEEEOT_RNS_16remove_referenceISH_E4typeE, symObjAddr: 0x22D44, symBinAddr: 0x100026064, symSize: 0x14 }
  - { offset: 0x27C4B, size: 0x8, addend: 0x0, symName: __ZN5boost15optional_detail4moveIRNSt3__14pairINS_6detail13out_edge_iterINS2_11__wrap_iterIPNS4_20stored_edge_propertyImNS_11no_propertyEEEEEmNS4_14edge_desc_implINS_12directed_tagEmEElEESF_EEEEONS_16remove_referenceIT_E4typeEOSJ_, symObjAddr: 0x22D90, symBinAddr: 0x1000260B0, symSize: 0x14 }
  - { offset: 0x27CD6, size: 0x8, addend: 0x0, symName: __ZN5boost3getINS_6detail12adj_list_genINS_14adjacency_listINS_4vecSES4_NS_9directedSENS_11no_propertyES6_S6_NS_5listSEEES4_S4_S5_S6_S6_S6_S7_E6configENS_21directed_graph_helperISA_EENS_14vertex_index_tEEENS_12property_mapINT_10graph_typeET1_vE4typeESH_RNS_15adj_list_helperISF_T0_EE, symObjAddr: 0xEC8, symBinAddr: 0x1000041E8, symSize: 0x2C }
  - { offset: 0x27D2E, size: 0x8, addend: 0x0, symName: __ZN5boost23make_assoc_property_mapINSt3__13mapINS1_12basic_stringIcNS1_11char_traitsIcEENS1_9allocatorIcEEEES8_NS1_4lessIS8_EENS6_INS1_4pairIKS8_S8_EEEEEEEENS_24associative_property_mapIT_EERSH_, symObjAddr: 0x1218, symBinAddr: 0x100004538, symSize: 0x2C }
  - { offset: 0x27D65, size: 0x8, addend: 0x0, symName: __ZN5boost12read_graphmlINS_14adjacency_listINS_4vecSES2_NS_9directedSENS_11no_propertyES4_S4_NS_5listSEEEEEvRNSt3__113basic_istreamIcNS7_11char_traitsIcEEEERT_RNS_18dynamic_propertiesEm, symObjAddr: 0x1244, symBinAddr: 0x100004564, symSize: 0x78 }
  - { offset: 0x27DCE, size: 0x8, addend: 0x0, symName: __ZN5boost12num_verticesINS_6detail12adj_list_genINS_14adjacency_listINS_4vecSES4_NS_9directedSENS_11no_propertyES6_S6_NS_5listSEEES4_S4_S5_S6_S6_S6_S7_E6configENS_21directed_graph_helperISA_EEEENT_18vertices_size_typeERKNS_15adj_list_helperISD_T0_EE, symObjAddr: 0x12CC, symBinAddr: 0x1000045EC, symSize: 0x40 }
  - { offset: 0x27E29, size: 0x8, addend: 0x0, symName: __ZN5boost9num_edgesINS_6detail12adj_list_genINS_14adjacency_listINS_4vecSES4_NS_9directedSENS_11no_propertyES6_S6_NS_5listSEEES4_S4_S5_S6_S6_S6_S7_E6configEEENT_15edges_size_typeERKNS_21directed_graph_helperISB_EE, symObjAddr: 0x130C, symBinAddr: 0x10000462C, symSize: 0xC8 }
  - { offset: 0x27EA8, size: 0x8, addend: 0x0, symName: __ZN5boost19make_iterator_rangeINSt3__14pairINS_12range_detail16integer_iteratorImEES5_EEEENS_14iterator_rangeINS_14range_iteratorIKT_vE4typeEEERSA_, symObjAddr: 0x13D4, symBinAddr: 0x1000046F4, symSize: 0x30 }
  - { offset: 0x27EDF, size: 0x8, addend: 0x0, symName: __ZN5boost8verticesINS_6detail12adj_list_genINS_14adjacency_listINS_4vecSES4_NS_9directedSENS_11no_propertyES6_S6_NS_5listSEEES4_S4_S5_S6_S6_S6_S7_E6configENS_21directed_graph_helperISA_EEEENSt3__14pairINT_15vertex_iteratorESG_EERKNS_15adj_list_helperISF_T0_EE, symObjAddr: 0x1404, symBinAddr: 0x100004724, symSize: 0x94 }
  - { offset: 0x27F49, size: 0x8, addend: 0x0, symName: __ZN5boost19make_iterator_rangeINSt3__14pairINS_6detail22adj_list_edge_iteratorINS_12range_detail16integer_iteratorImEENS3_13out_edge_iterINS1_11__wrap_iterIPNS3_20stored_edge_propertyImNS_11no_propertyEEEEEmNS3_14edge_desc_implINS_12directed_tagEmEElEENS_14adjacency_listINS_4vecSESK_NS_9directedSESB_SB_SB_NS_5listSEEEEESO_EEEENS_14iterator_rangeINS_14range_iteratorIKT_vE4typeEEERST_, symObjAddr: 0x1568, symBinAddr: 0x100004888, symSize: 0x38 }
  - { offset: 0x27F80, size: 0x8, addend: 0x0, symName: __ZN5boost5edgesINS_6detail12adj_list_genINS_14adjacency_listINS_4vecSES4_NS_9directedSENS_11no_propertyES6_S6_NS_5listSEEES4_S4_S5_S6_S6_S6_S7_E6configEEENSt3__14pairINT_13edge_iteratorESE_EERKNS_21directed_edges_helperISD_EE, symObjAddr: 0x15A0, symBinAddr: 0x1000048C0, symSize: 0x23C }
  - { offset: 0x27FE4, size: 0x8, addend: 0x0, symName: __ZN5boost6sourceINS_12directed_tagEmNS_4vecSES2_NS_9directedSENS_11no_propertyES4_S4_NS_5listSEEET0_RKNS_6detail9edge_baseIT_S6_EERKNS_14adjacency_listIT1_T2_T3_T4_T5_T6_T7_EE, symObjAddr: 0x1960, symBinAddr: 0x100004C80, symSize: 0x1C }
  - { offset: 0x2806F, size: 0x8, addend: 0x0, symName: __ZN5boost6targetINS_12directed_tagEmNS_4vecSES2_NS_9directedSENS_11no_propertyES4_S4_NS_5listSEEET0_RKNS_6detail9edge_baseIT_S6_EERKNS_14adjacency_listIT1_T2_T3_T4_T5_T6_T7_EE, symObjAddr: 0x197C, symBinAddr: 0x100004C9C, symSize: 0x1C }
  - { offset: 0x2818A, size: 0x8, addend: 0x0, symName: __ZN5boost14checked_deleteINS_11no_propertyEEEvPT_, symObjAddr: 0x2C54, symBinAddr: 0x100005F74, symSize: 0x40 }
  - { offset: 0x281BB, size: 0x8, addend: 0x0, symName: __ZN5boost11make_sharedINS_6detail28dynamic_property_map_adaptorINS_26vec_adj_list_vertex_id_mapINS_11no_propertyEmEEEEJRS5_EEENS1_15sp_if_not_arrayIT_E4typeEDpOT0_, symObjAddr: 0x5088, symBinAddr: 0x1000083A8, symSize: 0xCC }
  - { offset: 0x2850B, size: 0x8, addend: 0x0, symName: __ZN5boost9addressofINS_6detail13sp_ms_deleterINS1_28dynamic_property_map_adaptorINS_26vec_adj_list_vertex_id_mapINS_11no_propertyEmEEEEEEEEPT_RS9_, symObjAddr: 0x5B00, symBinAddr: 0x100008E20, symSize: 0x14 }
  - { offset: 0x28540, size: 0x8, addend: 0x0, symName: __ZN5boost8any_castImEET_RKNS_3anyE, symObjAddr: 0x5E6C, symBinAddr: 0x10000918C, symSize: 0x28 }
  - { offset: 0x28577, size: 0x8, addend: 0x0, symName: __ZN5boost3getINS_26vec_adj_list_vertex_id_mapINS_11no_propertyEmEEmmEET0_RKNS_14put_get_helperIS4_T_EERKT1_, symObjAddr: 0x5ED8, symBinAddr: 0x1000091F8, symSize: 0x38 }
  - { offset: 0x285DE, size: 0x8, addend: 0x0, symName: __ZN5boost8any_castIRKmEET_RNS_3anyE, symObjAddr: 0x5F28, symBinAddr: 0x100009248, symSize: 0x80 }
  - { offset: 0x28630, size: 0x8, addend: 0x0, symName: __ZN5boost8any_castIKmEEPT_PNS_3anyE, symObjAddr: 0x5FA8, symBinAddr: 0x1000092C8, symSize: 0x7C }
  - { offset: 0x28667, size: 0x8, addend: 0x0, symName: __ZN5boost15throw_exceptionINS_12bad_any_castEEEvRKT_, symObjAddr: 0x6024, symBinAddr: 0x100009344, symSize: 0x6C }
  - { offset: 0x28698, size: 0x8, addend: 0x0, symName: __ZN5boost15unsafe_any_castImEEPT_PNS_3anyE, symObjAddr: 0x61C0, symBinAddr: 0x1000094E0, symSize: 0x1C }
  - { offset: 0x286CF, size: 0x8, addend: 0x0, symName: __ZN5boost36throw_exception_assert_compatibilityERKSt9exception, symObjAddr: 0x63D0, symBinAddr: 0x1000096F0, symSize: 0x10 }
  - { offset: 0x286F3, size: 0x8, addend: 0x0, symName: __ZN5boost15throw_exceptionINS_23dynamic_const_put_errorEEEvRKT_RKNS_15source_locationE, symObjAddr: 0x77A0, symBinAddr: 0x10000AAC0, symSize: 0x74 }
  - { offset: 0x28896, size: 0x8, addend: 0x0, symName: __ZN5boost11make_sharedINS_6detail28dynamic_property_map_adaptorINS_24associative_property_mapINSt3__13mapINS4_12basic_stringIcNS4_11char_traitsIcEENS4_9allocatorIcEEEESB_NS4_4lessISB_EENS9_INS4_4pairIKSB_SB_EEEEEEEEEEJRSJ_EEENS1_15sp_if_not_arrayIT_E4typeEDpOT0_, symObjAddr: 0xB8D0, symBinAddr: 0x10000EBF0, symSize: 0xC8 }
  - { offset: 0x28BE6, size: 0x8, addend: 0x0, symName: __ZN5boost9addressofINS_6detail13sp_ms_deleterINS1_28dynamic_property_map_adaptorINS_24associative_property_mapINSt3__13mapINS5_12basic_stringIcNS5_11char_traitsIcEENS5_9allocatorIcEEEESC_NS5_4lessISC_EENSA_INS5_4pairIKSC_SC_EEEEEEEEEEEEEEPT_RSN_, symObjAddr: 0xC0A0, symBinAddr: 0x10000F3C0, symSize: 0x14 }
  - { offset: 0x28C1B, size: 0x8, addend: 0x0, symName: __ZN5boost8any_castINSt3__112basic_stringIcNS1_11char_traitsIcEENS1_9allocatorIcEEEEEET_RKNS_3anyE, symObjAddr: 0xC398, symBinAddr: 0x10000F6B8, symSize: 0x38 }
  - { offset: 0x28C52, size: 0x8, addend: 0x0, symName: __ZN5boost3getINS_24associative_property_mapINSt3__13mapINS2_12basic_stringIcNS2_11char_traitsIcEENS2_9allocatorIcEEEES9_NS2_4lessIS9_EENS7_INS2_4pairIKS9_S9_EEEEEEEERS9_S9_EET0_RKNS_14put_get_helperISJ_T_EERKT1_, symObjAddr: 0xC414, symBinAddr: 0x10000F734, symSize: 0x34 }
  - { offset: 0x28CB9, size: 0x8, addend: 0x0, symName: __ZN5boost8any_castIRKNSt3__112basic_stringIcNS1_11char_traitsIcEENS1_9allocatorIcEEEEEET_RNS_3anyE, symObjAddr: 0xD45C, symBinAddr: 0x10001077C, symSize: 0x80 }
  - { offset: 0x28D0B, size: 0x8, addend: 0x0, symName: __ZN5boost8any_castIKNSt3__112basic_stringIcNS1_11char_traitsIcEENS1_9allocatorIcEEEEEEPT_PNS_3anyE, symObjAddr: 0xD4DC, symBinAddr: 0x1000107FC, symSize: 0x7C }
  - { offset: 0x28D42, size: 0x8, addend: 0x0, symName: __ZN5boost15unsafe_any_castINSt3__112basic_stringIcNS1_11char_traitsIcEENS1_9allocatorIcEEEEEEPT_PNS_3anyE, symObjAddr: 0xD57C, symBinAddr: 0x10001089C, symSize: 0x1C }
  - { offset: 0x28D79, size: 0x8, addend: 0x0, symName: __ZN5boost3putINS_24associative_property_mapINSt3__13mapINS2_12basic_stringIcNS2_11char_traitsIcEENS2_9allocatorIcEEEES9_NS2_4lessIS9_EENS7_INS2_4pairIKS9_S9_EEEEEEEERS9_S9_S9_EEvRKNS_14put_get_helperIT0_T_EET1_RKT2_, symObjAddr: 0xDAC4, symBinAddr: 0x100010DE4, symSize: 0x40 }
  - { offset: 0x28DE6, size: 0x8, addend: 0x0, symName: __ZN5boost10add_vertexINS_14adjacency_listINS_4vecSES2_NS_9directedSENS_11no_propertyES4_S4_NS_5listSEEENS_6detail12adj_list_genIS6_S2_S2_S3_S4_S4_S4_S5_E6configENS_21directed_graph_helperISA_EEEENT0_17vertex_descriptorERNS_17vec_adj_list_implIT_SD_T1_EE, symObjAddr: 0xE840, symBinAddr: 0x100011B60, symSize: 0x50 }
  - { offset: 0x28E4D, size: 0x8, addend: 0x0, symName: __ZN5boost8add_edgeINS_14adjacency_listINS_4vecSES2_NS_9directedSENS_11no_propertyES4_S4_NS_5listSEEENS_6detail12adj_list_genIS6_S2_S2_S3_S4_S4_S4_S5_E6configENS_21directed_graph_helperISA_EEEENSt3__14pairINT0_15edge_descriptorEbEENSF_17vertex_descriptorESI_RNS_17vec_adj_list_implIT_SF_T1_EE, symObjAddr: 0x10278, symBinAddr: 0x100013598, symSize: 0x38 }
  - { offset: 0x28EC3, size: 0x8, addend: 0x0, symName: __ZN5boost8any_castImEET_RNS_3anyE, symObjAddr: 0x102B0, symBinAddr: 0x1000135D0, symSize: 0x84 }
  - { offset: 0x28F15, size: 0x8, addend: 0x0, symName: __ZN5boost8add_edgeINS_14adjacency_listINS_4vecSES2_NS_9directedSENS_11no_propertyES4_S4_NS_5listSEEENS_6detail12adj_list_genIS6_S2_S2_S3_S4_S4_S4_S5_E6configENS_21directed_graph_helperISA_EEEENSt3__14pairINT0_15edge_descriptorEbEENSF_17vertex_descriptorESI_RKNSF_18edge_property_typeERNS_17vec_adj_list_implIT_SF_T1_EE, symObjAddr: 0x103E4, symBinAddr: 0x100013704, symSize: 0xA4 }
  - { offset: 0x28FA9, size: 0x8, addend: 0x0, symName: __ZN5boost8add_edgeINS_6detail12adj_list_genINS_14adjacency_listINS_4vecSES4_NS_9directedSENS_11no_propertyES6_S6_NS_5listSEEES4_S4_S5_S6_S6_S6_S7_E6configEEENSt3__14pairINS_21directed_graph_helperIT_E15edge_descriptorEbEENSE_17vertex_descriptorESI_RKNSE_18edge_property_typeERSF_, symObjAddr: 0x1051C, symBinAddr: 0x10001383C, symSize: 0x118 }
  - { offset: 0x2904B, size: 0x8, addend: 0x0, symName: __ZN5boost12graph_detail4pushINSt3__16vectorINS_6detail20stored_edge_propertyImNS_11no_propertyEEENS2_9allocatorIS7_EEEES7_EENS2_4pairINT_8iteratorEbEERSC_OT0_, symObjAddr: 0x10A10, symBinAddr: 0x100013D30, symSize: 0x7C }
  - { offset: 0x2909A, size: 0x8, addend: 0x0, symName: __ZN5boost12graph_detail13push_dispatchINSt3__16vectorINS_6detail20stored_edge_propertyImNS_11no_propertyEEENS2_9allocatorIS7_EEEES7_EENS2_4pairINT_8iteratorEbEERSC_OT0_NS0_27back_insertion_sequence_tagE, symObjAddr: 0x10C48, symBinAddr: 0x100013F68, symSize: 0x70 }
  - { offset: 0x290F6, size: 0x8, addend: 0x0, symName: __ZN5boost12graph_detail18container_categoryINS_6detail20stored_edge_propertyImNS_11no_propertyEEENSt3__19allocatorIS5_EEEENS0_10vector_tagERKNS6_6vectorIT_T0_EE, symObjAddr: 0x10CB8, symBinAddr: 0x100013FD8, symSize: 0x3C }
  - { offset: 0x2927E, size: 0x8, addend: 0x0, symName: __ZN5boost6tuples3tieINSt3__111__wrap_iterIPNS_6detail20stored_edge_propertyImNS_11no_propertyEEEEEbEENS0_6detail10tie_mapperIT_T0_vvvvvvvvE4typeERSC_RSD_, symObjAddr: 0x10AF8, symBinAddr: 0x100013E18, symSize: 0x40 }
  - { offset: 0x29647, size: 0x8, addend: 0x0, symName: __ZN5boost6tuples6detail5cnullEv, symObjAddr: 0x12A50, symBinAddr: 0x100015D70, symSize: 0x4 }
  - { offset: 0x29B7B, size: 0x8, addend: 0x0, symName: __ZN5boost6tuples3tieINS_12range_detail16integer_iteratorImEES4_EENS0_6detail10tie_mapperIT_T0_vvvvvvvvE4typeERS7_RS8_, symObjAddr: 0x21DB4, symBinAddr: 0x1000250D4, symSize: 0x40 }
  - { offset: 0x2A198, size: 0x8, addend: 0x0, symName: __ZN5boost5priorINSt3__111__wrap_iterIPNS_6detail20stored_edge_propertyImNS_11no_propertyEEEEEEET_S9_, symObjAddr: 0x10E4C, symBinAddr: 0x10001416C, symSize: 0x34 }
  - { offset: 0x2A1CD, size: 0x8, addend: 0x0, symName: __ZN5boost8any_castImEEPT_PNS_3anyE, symObjAddr: 0x12D80, symBinAddr: 0x1000160A0, symSize: 0x7C }
  - { offset: 0x2A204, size: 0x8, addend: 0x0, symName: __ZN5boost15throw_exceptionINS_11parse_errorEEEvRKT_RKNS_15source_locationE, symObjAddr: 0x1325C, symBinAddr: 0x10001657C, symSize: 0x74 }
  - { offset: 0x2A38E, size: 0x8, addend: 0x0, symName: __ZN5boost3getIbEERT_RNS_17value_initializedIS1_EE, symObjAddr: 0x13584, symBinAddr: 0x1000168A4, symSize: 0x24 }
  - { offset: 0x2A3C3, size: 0x8, addend: 0x0, symName: __ZN5boost3putIPNS_14adjacency_listINS_4vecSES2_NS_9directedSENS_11no_propertyES4_S4_NS_5listSEEEbEEbRKNSt3__112basic_stringIcNS8_11char_traitsIcEENS8_9allocatorIcEEEERNS_18dynamic_propertiesERKT_RKT0_, symObjAddr: 0x13750, symBinAddr: 0x100016A70, symSize: 0x2EC }
  - { offset: 0x2A455, size: 0x8, addend: 0x0, symName: __ZN5boost12lexical_castIbNSt3__112basic_stringIcNS1_11char_traitsIcEENS1_9allocatorIcEEEEEET_RKT0_, symObjAddr: 0x13A3C, symBinAddr: 0x100016D5C, symSize: 0x44 }
  - { offset: 0x2A4A1, size: 0x8, addend: 0x0, symName: __ZN5boost15throw_exceptionINS_18property_not_foundEEEvRKT_RKNS_15source_locationE, symObjAddr: 0x147A8, symBinAddr: 0x100017AC8, symSize: 0x74 }
  - { offset: 0x2A5E0, size: 0x8, addend: 0x0, symName: __ZN5boost15throw_exceptionINS_17bad_function_callEEEvRKT_, symObjAddr: 0x155CC, symBinAddr: 0x1000188EC, symSize: 0x6C }
  - { offset: 0x2A61B, size: 0x8, addend: 0x0, symName: __ZN5boost10conversion6detail19try_lexical_convertIbNSt3__112basic_stringIcNS3_11char_traitsIcEENS3_9allocatorIcEEEEEEbRKT0_RT_, symObjAddr: 0x15C44, symBinAddr: 0x100018F64, symSize: 0x30 }
  - { offset: 0x2A667, size: 0x8, addend: 0x0, symName: __ZN5boost10conversion6detail14throw_bad_castINSt3__112basic_stringIcNS3_11char_traitsIcEENS3_9allocatorIcEEEEbEEvv, symObjAddr: 0x15C74, symBinAddr: 0x100018F94, symSize: 0x58 }
  - { offset: 0x2A6BE, size: 0x8, addend: 0x0, symName: __ZN5boost10conversion6detail19try_lexical_convertIiNSt3__112basic_stringIcNS3_11char_traitsIcEENS3_9allocatorIcEEEEEEbRKT0_RT_, symObjAddr: 0x170F0, symBinAddr: 0x10001A410, symSize: 0x30 }
  - { offset: 0x2A70A, size: 0x8, addend: 0x0, symName: __ZN5boost10conversion6detail14throw_bad_castINSt3__112basic_stringIcNS3_11char_traitsIcEENS3_9allocatorIcEEEEiEEvv, symObjAddr: 0x17120, symBinAddr: 0x10001A440, symSize: 0x58 }
  - { offset: 0x2A736, size: 0x8, addend: 0x0, symName: __ZN5boost10conversion6detail19try_lexical_convertIlNSt3__112basic_stringIcNS3_11char_traitsIcEENS3_9allocatorIcEEEEEEbRKT0_RT_, symObjAddr: 0x184A4, symBinAddr: 0x10001B7C4, symSize: 0x30 }
  - { offset: 0x2A782, size: 0x8, addend: 0x0, symName: __ZN5boost10conversion6detail14throw_bad_castINSt3__112basic_stringIcNS3_11char_traitsIcEENS3_9allocatorIcEEEElEEvv, symObjAddr: 0x184D4, symBinAddr: 0x10001B7F4, symSize: 0x58 }
  - { offset: 0x2A7AE, size: 0x8, addend: 0x0, symName: __ZN5boost10conversion6detail19try_lexical_convertIfNSt3__112basic_stringIcNS3_11char_traitsIcEENS3_9allocatorIcEEEEEEbRKT0_RT_, symObjAddr: 0x19774, symBinAddr: 0x10001CA94, symSize: 0x30 }
  - { offset: 0x2A7FA, size: 0x8, addend: 0x0, symName: __ZN5boost10conversion6detail14throw_bad_castINSt3__112basic_stringIcNS3_11char_traitsIcEENS3_9allocatorIcEEEEfEEvv, symObjAddr: 0x197A4, symBinAddr: 0x10001CAC4, symSize: 0x58 }
  - { offset: 0x2A826, size: 0x8, addend: 0x0, symName: __ZN5boost10conversion6detail19try_lexical_convertIdNSt3__112basic_stringIcNS3_11char_traitsIcEENS3_9allocatorIcEEEEEEbRKT0_RT_, symObjAddr: 0x1B2E8, symBinAddr: 0x10001E608, symSize: 0x30 }
  - { offset: 0x2A872, size: 0x8, addend: 0x0, symName: __ZN5boost10conversion6detail14throw_bad_castINSt3__112basic_stringIcNS3_11char_traitsIcEENS3_9allocatorIcEEEEdEEvv, symObjAddr: 0x1B318, symBinAddr: 0x10001E638, symSize: 0x58 }
  - { offset: 0x2A89E, size: 0x8, addend: 0x0, symName: __ZN5boost10conversion6detail19try_lexical_convertINSt3__112basic_stringIcNS3_11char_traitsIcEENS3_9allocatorIcEEEES9_EEbRKT0_RT_, symObjAddr: 0x1C378, symBinAddr: 0x10001F698, symSize: 0x30 }
  - { offset: 0x2A8EA, size: 0x8, addend: 0x0, symName: __ZN5boost10conversion6detail14throw_bad_castINSt3__112basic_stringIcNS3_11char_traitsIcEENS3_9allocatorIcEEEES9_EEvv, symObjAddr: 0x1C3A8, symBinAddr: 0x10001F6C8, symSize: 0x54 }
  - { offset: 0x2A918, size: 0x8, addend: 0x0, symName: __ZN5boost15throw_exceptionINS_16bad_lexical_castEEEvRKT_, symObjAddr: 0x1611C, symBinAddr: 0x10001943C, symSize: 0x6C }
  - { offset: 0x2AA94, size: 0x8, addend: 0x0, symName: __ZN5boost3getIiEERT_RNS_17value_initializedIS1_EE, symObjAddr: 0x168D0, symBinAddr: 0x100019BF0, symSize: 0x24 }
  - { offset: 0x2AAC9, size: 0x8, addend: 0x0, symName: __ZN5boost3putIPNS_14adjacency_listINS_4vecSES2_NS_9directedSENS_11no_propertyES4_S4_NS_5listSEEEiEEbRKNSt3__112basic_stringIcNS8_11char_traitsIcEENS8_9allocatorIcEEEERNS_18dynamic_propertiesERKT_RKT0_, symObjAddr: 0x169F0, symBinAddr: 0x100019D10, symSize: 0x2EC }
  - { offset: 0x2AB5B, size: 0x8, addend: 0x0, symName: __ZN5boost12lexical_castIiNSt3__112basic_stringIcNS1_11char_traitsIcEENS1_9allocatorIcEEEEEET_RKT0_, symObjAddr: 0x16CDC, symBinAddr: 0x100019FFC, symSize: 0x40 }
  - { offset: 0x2AD66, size: 0x8, addend: 0x0, symName: __ZN5boost3getIlEERT_RNS_17value_initializedIS1_EE, symObjAddr: 0x17C84, symBinAddr: 0x10001AFA4, symSize: 0x24 }
  - { offset: 0x2AD9B, size: 0x8, addend: 0x0, symName: __ZN5boost3putIPNS_14adjacency_listINS_4vecSES2_NS_9directedSENS_11no_propertyES4_S4_NS_5listSEEElEEbRKNSt3__112basic_stringIcNS8_11char_traitsIcEENS8_9allocatorIcEEEERNS_18dynamic_propertiesERKT_RKT0_, symObjAddr: 0x17DA4, symBinAddr: 0x10001B0C4, symSize: 0x2EC }
  - { offset: 0x2AE2D, size: 0x8, addend: 0x0, symName: __ZN5boost12lexical_castIlNSt3__112basic_stringIcNS1_11char_traitsIcEENS1_9allocatorIcEEEEEET_RKT0_, symObjAddr: 0x18090, symBinAddr: 0x10001B3B0, symSize: 0x40 }
  - { offset: 0x2AFC4, size: 0x8, addend: 0x0, symName: __ZN5boost3getIfEERT_RNS_17value_initializedIS1_EE, symObjAddr: 0x18F4C, symBinAddr: 0x10001C26C, symSize: 0x24 }
  - { offset: 0x2AFF9, size: 0x8, addend: 0x0, symName: __ZN5boost3putIPNS_14adjacency_listINS_4vecSES2_NS_9directedSENS_11no_propertyES4_S4_NS_5listSEEEfEEbRKNSt3__112basic_stringIcNS8_11char_traitsIcEENS8_9allocatorIcEEEERNS_18dynamic_propertiesERKT_RKT0_, symObjAddr: 0x19070, symBinAddr: 0x10001C390, symSize: 0x2EC }
  - { offset: 0x2B08B, size: 0x8, addend: 0x0, symName: __ZN5boost12lexical_castIfNSt3__112basic_stringIcNS1_11char_traitsIcEENS1_9allocatorIcEEEEEET_RKT0_, symObjAddr: 0x1935C, symBinAddr: 0x10001C67C, symSize: 0x44 }
  - { offset: 0x2B222, size: 0x8, addend: 0x0, symName: __ZN5boost3getIdEERT_RNS_17value_initializedIS1_EE, symObjAddr: 0x1AA58, symBinAddr: 0x10001DD78, symSize: 0x24 }
  - { offset: 0x2B257, size: 0x8, addend: 0x0, symName: __ZN5boost3putIPNS_14adjacency_listINS_4vecSES2_NS_9directedSENS_11no_propertyES4_S4_NS_5listSEEEdEEbRKNSt3__112basic_stringIcNS8_11char_traitsIcEENS8_9allocatorIcEEEERNS_18dynamic_propertiesERKT_RKT0_, symObjAddr: 0x1ABE4, symBinAddr: 0x10001DF04, symSize: 0x2EC }
  - { offset: 0x2B2E9, size: 0x8, addend: 0x0, symName: __ZN5boost12lexical_castIdNSt3__112basic_stringIcNS1_11char_traitsIcEENS1_9allocatorIcEEEEEET_RKT0_, symObjAddr: 0x1AED0, symBinAddr: 0x10001E1F0, symSize: 0x44 }
  - { offset: 0x2B498, size: 0x8, addend: 0x0, symName: __ZN5boost3getINSt3__112basic_stringIcNS1_11char_traitsIcEENS1_9allocatorIcEEEEEERT_RNS_17value_initializedIS8_EE, symObjAddr: 0x1BCFC, symBinAddr: 0x10001F01C, symSize: 0x24 }
  - { offset: 0x2B4CD, size: 0x8, addend: 0x0, symName: __ZN5boost3putIPNS_14adjacency_listINS_4vecSES2_NS_9directedSENS_11no_propertyES4_S4_NS_5listSEEENSt3__112basic_stringIcNS8_11char_traitsIcEENS8_9allocatorIcEEEEEEbRKSE_RNS_18dynamic_propertiesERKT_RKT0_, symObjAddr: 0x1BDEC, symBinAddr: 0x10001F10C, symSize: 0x2EC }
  - { offset: 0x2B55F, size: 0x8, addend: 0x0, symName: __ZN5boost12lexical_castINSt3__112basic_stringIcNS1_11char_traitsIcEENS1_9allocatorIcEEEES7_EET_RKT0_, symObjAddr: 0x1C0D8, symBinAddr: 0x10001F3F8, symSize: 0xBC }
  - { offset: 0x2B6AC, size: 0x8, addend: 0x0, symName: __ZN5boost3putImbEEbRKNSt3__112basic_stringIcNS1_11char_traitsIcEENS1_9allocatorIcEEEERNS_18dynamic_propertiesERKT_RKT0_, symObjAddr: 0x1D650, symBinAddr: 0x100020970, symSize: 0x2EC }
  - { offset: 0x2B73E, size: 0x8, addend: 0x0, symName: __ZN5boost3putImiEEbRKNSt3__112basic_stringIcNS1_11char_traitsIcEENS1_9allocatorIcEEEERNS_18dynamic_propertiesERKT_RKT0_, symObjAddr: 0x1DC40, symBinAddr: 0x100020F60, symSize: 0x2EC }
  - { offset: 0x2B7D0, size: 0x8, addend: 0x0, symName: __ZN5boost3putImlEEbRKNSt3__112basic_stringIcNS1_11char_traitsIcEENS1_9allocatorIcEEEERNS_18dynamic_propertiesERKT_RKT0_, symObjAddr: 0x1E18C, symBinAddr: 0x1000214AC, symSize: 0x2EC }
  - { offset: 0x2B862, size: 0x8, addend: 0x0, symName: __ZN5boost3putImfEEbRKNSt3__112basic_stringIcNS1_11char_traitsIcEENS1_9allocatorIcEEEERNS_18dynamic_propertiesERKT_RKT0_, symObjAddr: 0x1E6D4, symBinAddr: 0x1000219F4, symSize: 0x2EC }
  - { offset: 0x2B8F4, size: 0x8, addend: 0x0, symName: __ZN5boost3putImdEEbRKNSt3__112basic_stringIcNS1_11char_traitsIcEENS1_9allocatorIcEEEERNS_18dynamic_propertiesERKT_RKT0_, symObjAddr: 0x1EC84, symBinAddr: 0x100021FA4, symSize: 0x2EC }
  - { offset: 0x2B986, size: 0x8, addend: 0x0, symName: __ZN5boost3putImNSt3__112basic_stringIcNS1_11char_traitsIcEENS1_9allocatorIcEEEEEEbRKS7_RNS_18dynamic_propertiesERKT_RKT0_, symObjAddr: 0x1F18C, symBinAddr: 0x1000224AC, symSize: 0x2EC }
  - { offset: 0x2BA18, size: 0x8, addend: 0x0, symName: __ZN5boost8any_castINS_6detail14edge_desc_implINS_12directed_tagEmEEEET_RNS_3anyE, symObjAddr: 0x1F670, symBinAddr: 0x100022990, symSize: 0x98 }
  - { offset: 0x2BA6A, size: 0x8, addend: 0x0, symName: __ZN5boost3putINS_6detail14edge_desc_implINS_12directed_tagEmEEbEEbRKNSt3__112basic_stringIcNS5_11char_traitsIcEENS5_9allocatorIcEEEERNS_18dynamic_propertiesERKT_RKT0_, symObjAddr: 0x1F9A0, symBinAddr: 0x100022CC0, symSize: 0x2EC }
  - { offset: 0x2BAFC, size: 0x8, addend: 0x0, symName: __ZN5boost3putINS_6detail14edge_desc_implINS_12directed_tagEmEEiEEbRKNSt3__112basic_stringIcNS5_11char_traitsIcEENS5_9allocatorIcEEEERNS_18dynamic_propertiesERKT_RKT0_, symObjAddr: 0x1FF90, symBinAddr: 0x1000232B0, symSize: 0x2EC }
  - { offset: 0x2BB8E, size: 0x8, addend: 0x0, symName: __ZN5boost3putINS_6detail14edge_desc_implINS_12directed_tagEmEElEEbRKNSt3__112basic_stringIcNS5_11char_traitsIcEENS5_9allocatorIcEEEERNS_18dynamic_propertiesERKT_RKT0_, symObjAddr: 0x204DC, symBinAddr: 0x1000237FC, symSize: 0x2EC }
  - { offset: 0x2BC20, size: 0x8, addend: 0x0, symName: __ZN5boost3putINS_6detail14edge_desc_implINS_12directed_tagEmEEfEEbRKNSt3__112basic_stringIcNS5_11char_traitsIcEENS5_9allocatorIcEEEERNS_18dynamic_propertiesERKT_RKT0_, symObjAddr: 0x20A24, symBinAddr: 0x100023D44, symSize: 0x2EC }
  - { offset: 0x2BCB2, size: 0x8, addend: 0x0, symName: __ZN5boost3putINS_6detail14edge_desc_implINS_12directed_tagEmEEdEEbRKNSt3__112basic_stringIcNS5_11char_traitsIcEENS5_9allocatorIcEEEERNS_18dynamic_propertiesERKT_RKT0_, symObjAddr: 0x20FD4, symBinAddr: 0x1000242F4, symSize: 0x2EC }
  - { offset: 0x2BD44, size: 0x8, addend: 0x0, symName: __ZN5boost3putINS_6detail14edge_desc_implINS_12directed_tagEmEENSt3__112basic_stringIcNS5_11char_traitsIcEENS5_9allocatorIcEEEEEEbRKSB_RNS_18dynamic_propertiesERKT_RKT0_, symObjAddr: 0x214DC, symBinAddr: 0x1000247FC, symSize: 0x2EC }
  - { offset: 0x2BDD6, size: 0x8, addend: 0x0, symName: __ZN5boost8any_castINS_6detail14edge_desc_implINS_12directed_tagEmEEEEPT_PNS_3anyE, symObjAddr: 0x21908, symBinAddr: 0x100024C28, symSize: 0x7C }
  - { offset: 0x2BE0D, size: 0x8, addend: 0x0, symName: __ZN5boost15unsafe_any_castINS_6detail14edge_desc_implINS_12directed_tagEmEEEEPT_PNS_3anyE, symObjAddr: 0x21984, symBinAddr: 0x100024CA4, symSize: 0x1C }
  - { offset: 0x2BE44, size: 0x8, addend: 0x0, symName: __ZN5boost10out_degreeINS_6detail12adj_list_genINS_14adjacency_listINS_4vecSES4_NS_9directedSENS_11no_propertyES6_S6_NS_5listSEEES4_S4_S5_S6_S6_S6_S7_E6configENS_21directed_graph_helperISA_EEEENT_16degree_size_typeENSD_17vertex_descriptorERKNS_15adj_list_helperISD_T0_EE, symObjAddr: 0x21E2C, symBinAddr: 0x10002514C, symSize: 0x38 }
  - { offset: 0x2BEB3, size: 0x8, addend: 0x0, symName: __ZN5boost17range_adl_barrier5beginINSt3__14pairINS_12range_detail16integer_iteratorImEES6_EEEENS_14range_iteratorIKT_vE4typeERSA_, symObjAddr: 0x22314, symBinAddr: 0x100025634, symSize: 0x2C }
  - { offset: 0x2BEF0, size: 0x8, addend: 0x0, symName: __ZN5boost17range_adl_barrier3endINSt3__14pairINS_12range_detail16integer_iteratorImEES6_EEEENS_14range_iteratorIKT_vE4typeERSA_, symObjAddr: 0x22360, symBinAddr: 0x100025680, symSize: 0x2C }
  - { offset: 0x2BF2D, size: 0x8, addend: 0x0, symName: __ZN5boost17range_adl_barrier5beginINSt3__14pairINS_6detail22adj_list_edge_iteratorINS_12range_detail16integer_iteratorImEENS4_13out_edge_iterINS2_11__wrap_iterIPNS4_20stored_edge_propertyImNS_11no_propertyEEEEEmNS4_14edge_desc_implINS_12directed_tagEmEElEENS_14adjacency_listINS_4vecSESL_NS_9directedSESC_SC_SC_NS_5listSEEEEESP_EEEENS_14range_iteratorIKT_vE4typeERST_, symObjAddr: 0x23050, symBinAddr: 0x100026370, symSize: 0x2C }
  - { offset: 0x2BF6A, size: 0x8, addend: 0x0, symName: __ZN5boost17range_adl_barrier3endINSt3__14pairINS_6detail22adj_list_edge_iteratorINS_12range_detail16integer_iteratorImEENS4_13out_edge_iterINS2_11__wrap_iterIPNS4_20stored_edge_propertyImNS_11no_propertyEEEEEmNS4_14edge_desc_implINS_12directed_tagEmEElEENS_14adjacency_listINS_4vecSESL_NS_9directedSESC_SC_SC_NS_5listSEEEEESP_EEEENS_14range_iteratorIKT_vE4typeERST_, symObjAddr: 0x230B4, symBinAddr: 0x1000263D4, symSize: 0x2C }
  - { offset: 0x2BFA8, size: 0x8, addend: 0x0, symName: __ZN5boost9out_edgesINS_6detail12adj_list_genINS_14adjacency_listINS_4vecSES4_NS_9directedSENS_11no_propertyES6_S6_NS_5listSEEES4_S4_S5_S6_S6_S6_S7_E6configENS_21directed_graph_helperISA_EEEENSt3__14pairINT_17out_edge_iteratorESG_EENSF_17vertex_descriptorERKNS_15adj_list_helperISF_T0_EE, symObjAddr: 0x22A3C, symBinAddr: 0x100025D5C, symSize: 0x9C }
  - { offset: 0x32D0D, size: 0x8, addend: 0x0, symName: __ZNSt3__16vectorIN5boost6detail12adj_list_genINS1_14adjacency_listINS1_4vecSES5_NS1_9directedSENS1_11no_propertyES7_S7_NS1_5listSEEES5_S5_S6_S7_S7_S7_S8_E6config13stored_vertexENS_9allocatorISC_EEE26__swap_out_circular_bufferERNS_14__split_bufferISC_RSE_EE, symObjAddr: 0xEF38, symBinAddr: 0x100012258, symSize: 0x110 }
  - { offset: 0x32DAC, size: 0x8, addend: 0x0, symName: __ZNSt3__16vectorIN5boost6detail20stored_edge_propertyImNS1_11no_propertyEEENS_9allocatorIS5_EEE26__swap_out_circular_bufferERNS_14__split_bufferIS5_RS7_EE, symObjAddr: 0x114AC, symBinAddr: 0x1000147CC, symSize: 0x110 }
  - { offset: 0x32EE3, size: 0x8, addend: 0x0, symName: __ZN5boost3mpl3aux13for_each_implILb0EE7executeINS0_6v_iterINS0_6vectorIbilfdNSt3__112basic_stringIcNS7_11char_traitsIcEENS7_9allocatorIcEEEEN4mpl_2naESF_SF_SF_SF_SF_SF_SF_SF_SF_SF_SF_SF_SF_EELl0EEENS5_ISG_Ll6EEENS0_8identityISF_EENS_17mutate_graph_implINS_14adjacency_listINS_4vecSESN_NS_9directedSENS_11no_propertyESP_SP_NS_5listSEEEE12put_propertyIPSR_SG_EEEEvPT_PT0_PT1_T2_, symObjAddr: 0x13408, symBinAddr: 0x100016728, symSize: 0x90 }
  - { offset: 0x33008, size: 0x8, addend: 0x0, symName: __ZN5boost3mpl3aux13for_each_implILb0EE7executeINS0_6v_iterINS0_6vectorIbilfdNSt3__112basic_stringIcNS7_11char_traitsIcEENS7_9allocatorIcEEEEN4mpl_2naESF_SF_SF_SF_SF_SF_SF_SF_SF_SF_SF_SF_SF_EELl1EEENS5_ISG_Ll6EEENS0_8identityISF_EENS_17mutate_graph_implINS_14adjacency_listINS_4vecSESN_NS_9directedSENS_11no_propertyESP_SP_NS_5listSEEEE12put_propertyIPSR_SG_EEEEvPT_PT0_PT1_T2_, symObjAddr: 0x135A8, symBinAddr: 0x1000168C8, symSize: 0x8C }
  - { offset: 0x33107, size: 0x8, addend: 0x0, symName: __ZN5boost6detail5lcast16to_target_streamIcNSt3__111char_traitsIcEEE10shr_signedIiEEbRT_, symObjAddr: 0x17278, symBinAddr: 0x10001A598, symSize: 0x1C4 }
  - { offset: 0x331E2, size: 0x8, addend: 0x0, symName: __ZN5boost3mpl3aux13for_each_implILb0EE7executeINS0_6v_iterINS0_6vectorIbilfdNSt3__112basic_stringIcNS7_11char_traitsIcEENS7_9allocatorIcEEEEN4mpl_2naESF_SF_SF_SF_SF_SF_SF_SF_SF_SF_SF_SF_SF_EELl2EEENS5_ISG_Ll6EEENS0_8identityISF_EENS_17mutate_graph_implINS_14adjacency_listINS_4vecSESN_NS_9directedSENS_11no_propertyESP_SP_NS_5listSEEEE12put_propertyIPSR_SG_EEEEvPT_PT0_PT1_T2_, symObjAddr: 0x168F4, symBinAddr: 0x100019C14, symSize: 0x8C }
  - { offset: 0x33261, size: 0x8, addend: 0x0, symName: __ZN5boost6detail5lcast16to_target_streamIcNSt3__111char_traitsIcEEE10shr_signedIlEEbRT_, symObjAddr: 0x1862C, symBinAddr: 0x10001B94C, symSize: 0x1C4 }
  - { offset: 0x3333C, size: 0x8, addend: 0x0, symName: __ZN5boost3mpl3aux13for_each_implILb0EE7executeINS0_6v_iterINS0_6vectorIbilfdNSt3__112basic_stringIcNS7_11char_traitsIcEENS7_9allocatorIcEEEEN4mpl_2naESF_SF_SF_SF_SF_SF_SF_SF_SF_SF_SF_SF_SF_EELl3EEENS5_ISG_Ll6EEENS0_8identityISF_EENS_17mutate_graph_implINS_14adjacency_listINS_4vecSESN_NS_9directedSENS_11no_propertyESP_SP_NS_5listSEEEE12put_propertyIPSR_SG_EEEEvPT_PT0_PT1_T2_, symObjAddr: 0x17CA8, symBinAddr: 0x10001AFC8, symSize: 0x8C }
  - { offset: 0x333F0, size: 0x8, addend: 0x0, symName: __ZN5boost3mpl3aux13for_each_implILb0EE7executeINS0_6v_iterINS0_6vectorIbilfdNSt3__112basic_stringIcNS7_11char_traitsIcEENS7_9allocatorIcEEEEN4mpl_2naESF_SF_SF_SF_SF_SF_SF_SF_SF_SF_SF_SF_SF_EELl4EEENS5_ISG_Ll6EEENS0_8identityISF_EENS_17mutate_graph_implINS_14adjacency_listINS_4vecSESN_NS_9directedSENS_11no_propertyESP_SP_NS_5listSEEEE12put_propertyIPSR_SG_EEEEvPT_PT0_PT1_T2_, symObjAddr: 0x18F70, symBinAddr: 0x10001C290, symSize: 0x8C }
  - { offset: 0x33475, size: 0x8, addend: 0x0, symName: __ZN5boost3mpl3aux13for_each_implILb0EE7executeINS0_6v_iterINS0_6vectorIbilfdNSt3__112basic_stringIcNS7_11char_traitsIcEENS7_9allocatorIcEEEEN4mpl_2naESF_SF_SF_SF_SF_SF_SF_SF_SF_SF_SF_SF_SF_EELl5EEENS5_ISG_Ll6EEENS0_8identityISF_EENS_17mutate_graph_implINS_14adjacency_listINS_4vecSESN_NS_9directedSENS_11no_propertyESP_SP_NS_5listSEEEE12put_propertyIPSR_SG_EEEEvPT_PT0_PT1_T2_, symObjAddr: 0x1AA7C, symBinAddr: 0x10001DD9C, symSize: 0xF4 }
  - { offset: 0x334FA, size: 0x8, addend: 0x0, symName: __ZN5boost3mpl3aux13for_each_implILb0EE7executeINS0_6v_iterINS0_6vectorIbilfdNSt3__112basic_stringIcNS7_11char_traitsIcEENS7_9allocatorIcEEEEN4mpl_2naESF_SF_SF_SF_SF_SF_SF_SF_SF_SF_SF_SF_SF_EELl0EEENS5_ISG_Ll6EEENS0_8identityISF_EENS_17mutate_graph_implINS_14adjacency_listINS_4vecSESN_NS_9directedSENS_11no_propertyESP_SP_NS_5listSEEEE12put_propertyImSG_EEEEvPT_PT0_PT1_T2_, symObjAddr: 0x1D474, symBinAddr: 0x100020794, symSize: 0x90 }
  - { offset: 0x33579, size: 0x8, addend: 0x0, symName: __ZN5boost3mpl3aux13for_each_implILb0EE7executeINS0_6v_iterINS0_6vectorIbilfdNSt3__112basic_stringIcNS7_11char_traitsIcEENS7_9allocatorIcEEEEN4mpl_2naESF_SF_SF_SF_SF_SF_SF_SF_SF_SF_SF_SF_SF_EELl1EEENS5_ISG_Ll6EEENS0_8identityISF_EENS_17mutate_graph_implINS_14adjacency_listINS_4vecSESN_NS_9directedSENS_11no_propertyESP_SP_NS_5listSEEEE12put_propertyImSG_EEEEvPT_PT0_PT1_T2_, symObjAddr: 0x1D5C4, symBinAddr: 0x1000208E4, symSize: 0x8C }
  - { offset: 0x335F8, size: 0x8, addend: 0x0, symName: __ZN5boost3mpl3aux13for_each_implILb0EE7executeINS0_6v_iterINS0_6vectorIbilfdNSt3__112basic_stringIcNS7_11char_traitsIcEENS7_9allocatorIcEEEEN4mpl_2naESF_SF_SF_SF_SF_SF_SF_SF_SF_SF_SF_SF_SF_EELl2EEENS5_ISG_Ll6EEENS0_8identityISF_EENS_17mutate_graph_implINS_14adjacency_listINS_4vecSESN_NS_9directedSENS_11no_propertyESP_SP_NS_5listSEEEE12put_propertyImSG_EEEEvPT_PT0_PT1_T2_, symObjAddr: 0x1DBB4, symBinAddr: 0x100020ED4, symSize: 0x8C }
  - { offset: 0x33677, size: 0x8, addend: 0x0, symName: __ZN5boost3mpl3aux13for_each_implILb0EE7executeINS0_6v_iterINS0_6vectorIbilfdNSt3__112basic_stringIcNS7_11char_traitsIcEENS7_9allocatorIcEEEEN4mpl_2naESF_SF_SF_SF_SF_SF_SF_SF_SF_SF_SF_SF_SF_EELl3EEENS5_ISG_Ll6EEENS0_8identityISF_EENS_17mutate_graph_implINS_14adjacency_listINS_4vecSESN_NS_9directedSENS_11no_propertyESP_SP_NS_5listSEEEE12put_propertyImSG_EEEEvPT_PT0_PT1_T2_, symObjAddr: 0x1E100, symBinAddr: 0x100021420, symSize: 0x8C }
  - { offset: 0x336F6, size: 0x8, addend: 0x0, symName: __ZN5boost3mpl3aux13for_each_implILb0EE7executeINS0_6v_iterINS0_6vectorIbilfdNSt3__112basic_stringIcNS7_11char_traitsIcEENS7_9allocatorIcEEEEN4mpl_2naESF_SF_SF_SF_SF_SF_SF_SF_SF_SF_SF_SF_SF_EELl4EEENS5_ISG_Ll6EEENS0_8identityISF_EENS_17mutate_graph_implINS_14adjacency_listINS_4vecSESN_NS_9directedSENS_11no_propertyESP_SP_NS_5listSEEEE12put_propertyImSG_EEEEvPT_PT0_PT1_T2_, symObjAddr: 0x1E648, symBinAddr: 0x100021968, symSize: 0x8C }
  - { offset: 0x33775, size: 0x8, addend: 0x0, symName: __ZN5boost3mpl3aux13for_each_implILb0EE7executeINS0_6v_iterINS0_6vectorIbilfdNSt3__112basic_stringIcNS7_11char_traitsIcEENS7_9allocatorIcEEEEN4mpl_2naESF_SF_SF_SF_SF_SF_SF_SF_SF_SF_SF_SF_SF_EELl5EEENS5_ISG_Ll6EEENS0_8identityISF_EENS_17mutate_graph_implINS_14adjacency_listINS_4vecSESN_NS_9directedSENS_11no_propertyESP_SP_NS_5listSEEEE12put_propertyImSG_EEEEvPT_PT0_PT1_T2_, symObjAddr: 0x1EB90, symBinAddr: 0x100021EB0, symSize: 0xF4 }
  - { offset: 0x337FA, size: 0x8, addend: 0x0, symName: __ZN5boost3mpl3aux13for_each_implILb0EE7executeINS0_6v_iterINS0_6vectorIbilfdNSt3__112basic_stringIcNS7_11char_traitsIcEENS7_9allocatorIcEEEEN4mpl_2naESF_SF_SF_SF_SF_SF_SF_SF_SF_SF_SF_SF_SF_EELl0EEENS5_ISG_Ll6EEENS0_8identityISF_EENS_17mutate_graph_implINS_14adjacency_listINS_4vecSESN_NS_9directedSENS_11no_propertyESP_SP_NS_5listSEEEE12put_propertyINS_6detail14edge_desc_implINS_12directed_tagEmEESG_EEEEvPT_PT0_PT1_T2_, symObjAddr: 0x1F7C4, symBinAddr: 0x100022AE4, symSize: 0x90 }
  - { offset: 0x33879, size: 0x8, addend: 0x0, symName: __ZN5boost3mpl3aux13for_each_implILb0EE7executeINS0_6v_iterINS0_6vectorIbilfdNSt3__112basic_stringIcNS7_11char_traitsIcEENS7_9allocatorIcEEEEN4mpl_2naESF_SF_SF_SF_SF_SF_SF_SF_SF_SF_SF_SF_SF_EELl1EEENS5_ISG_Ll6EEENS0_8identityISF_EENS_17mutate_graph_implINS_14adjacency_listINS_4vecSESN_NS_9directedSENS_11no_propertyESP_SP_NS_5listSEEEE12put_propertyINS_6detail14edge_desc_implINS_12directed_tagEmEESG_EEEEvPT_PT0_PT1_T2_, symObjAddr: 0x1F914, symBinAddr: 0x100022C34, symSize: 0x8C }
  - { offset: 0x338F8, size: 0x8, addend: 0x0, symName: __ZN5boost3mpl3aux13for_each_implILb0EE7executeINS0_6v_iterINS0_6vectorIbilfdNSt3__112basic_stringIcNS7_11char_traitsIcEENS7_9allocatorIcEEEEN4mpl_2naESF_SF_SF_SF_SF_SF_SF_SF_SF_SF_SF_SF_SF_EELl2EEENS5_ISG_Ll6EEENS0_8identityISF_EENS_17mutate_graph_implINS_14adjacency_listINS_4vecSESN_NS_9directedSENS_11no_propertyESP_SP_NS_5listSEEEE12put_propertyINS_6detail14edge_desc_implINS_12directed_tagEmEESG_EEEEvPT_PT0_PT1_T2_, symObjAddr: 0x1FF04, symBinAddr: 0x100023224, symSize: 0x8C }
  - { offset: 0x33977, size: 0x8, addend: 0x0, symName: __ZN5boost3mpl3aux13for_each_implILb0EE7executeINS0_6v_iterINS0_6vectorIbilfdNSt3__112basic_stringIcNS7_11char_traitsIcEENS7_9allocatorIcEEEEN4mpl_2naESF_SF_SF_SF_SF_SF_SF_SF_SF_SF_SF_SF_SF_EELl3EEENS5_ISG_Ll6EEENS0_8identityISF_EENS_17mutate_graph_implINS_14adjacency_listINS_4vecSESN_NS_9directedSENS_11no_propertyESP_SP_NS_5listSEEEE12put_propertyINS_6detail14edge_desc_implINS_12directed_tagEmEESG_EEEEvPT_PT0_PT1_T2_, symObjAddr: 0x20450, symBinAddr: 0x100023770, symSize: 0x8C }
  - { offset: 0x339F6, size: 0x8, addend: 0x0, symName: __ZN5boost3mpl3aux13for_each_implILb0EE7executeINS0_6v_iterINS0_6vectorIbilfdNSt3__112basic_stringIcNS7_11char_traitsIcEENS7_9allocatorIcEEEEN4mpl_2naESF_SF_SF_SF_SF_SF_SF_SF_SF_SF_SF_SF_SF_EELl4EEENS5_ISG_Ll6EEENS0_8identityISF_EENS_17mutate_graph_implINS_14adjacency_listINS_4vecSESN_NS_9directedSENS_11no_propertyESP_SP_NS_5listSEEEE12put_propertyINS_6detail14edge_desc_implINS_12directed_tagEmEESG_EEEEvPT_PT0_PT1_T2_, symObjAddr: 0x20998, symBinAddr: 0x100023CB8, symSize: 0x8C }
  - { offset: 0x33A75, size: 0x8, addend: 0x0, symName: __ZN5boost3mpl3aux13for_each_implILb0EE7executeINS0_6v_iterINS0_6vectorIbilfdNSt3__112basic_stringIcNS7_11char_traitsIcEENS7_9allocatorIcEEEEN4mpl_2naESF_SF_SF_SF_SF_SF_SF_SF_SF_SF_SF_SF_SF_EELl5EEENS5_ISG_Ll6EEENS0_8identityISF_EENS_17mutate_graph_implINS_14adjacency_listINS_4vecSESN_NS_9directedSENS_11no_propertyESP_SP_NS_5listSEEEE12put_propertyINS_6detail14edge_desc_implINS_12directed_tagEmEESG_EEEEvPT_PT0_PT1_T2_, symObjAddr: 0x20EE0, symBinAddr: 0x100024200, symSize: 0xF4 }
  - { offset: 0x33C05, size: 0x8, addend: 0x0, symName: _main, symObjAddr: 0x0, symBinAddr: 0x100003320, symSize: 0xB44 }
  - { offset: 0x33E6B, size: 0x8, addend: 0x0, symName: __ZNSt3__112basic_stringIcNS_11char_traitsIcEENS_9allocatorIcEEEC1B8ne180100ILi0EEEPKc, symObjAddr: 0xB8C, symBinAddr: 0x100003EAC, symSize: 0x34 }
  - { offset: 0x33FE7, size: 0x8, addend: 0x0, symName: __ZNSt3__114basic_ifstreamIcNS_11char_traitsIcEEEC1ERKNS_12basic_stringIcS2_NS_9allocatorIcEEEEj, symObjAddr: 0xBC0, symBinAddr: 0x100003EE0, symSize: 0x164 }
  - { offset: 0x34031, size: 0x8, addend: 0x0, symName: __ZNKSt3__19basic_iosIcNS_11char_traitsIcEEEntB8ne180100Ev, symObjAddr: 0xD24, symBinAddr: 0x100004044, symSize: 0x28 }
  - { offset: 0x34057, size: 0x8, addend: 0x0, symName: __ZN5boost14adjacency_listINS_4vecSES1_NS_9directedSENS_11no_propertyES3_S3_NS_5listSEEC1ERKS3_, symObjAddr: 0xD98, symBinAddr: 0x1000040B8, symSize: 0x34 }
  - { offset: 0x34090, size: 0x8, addend: 0x0, symName: __ZN5boost18dynamic_propertiesC1Ev, symObjAddr: 0xDCC, symBinAddr: 0x1000040EC, symSize: 0x2C }
  - { offset: 0x340BA, size: 0x8, addend: 0x0, symName: __ZN5boost18dynamic_properties8propertyINS_26vec_adj_list_vertex_id_mapINS_11no_propertyEmEEEERS0_RKNSt3__112basic_stringIcNS6_11char_traitsIcEENS6_9allocatorIcEEEET_, symObjAddr: 0xDF8, symBinAddr: 0x100004118, symSize: 0xD0 }
  - { offset: 0x34113, size: 0x8, addend: 0x0, symName: __ZNKSt3__112basic_stringIcNS_11char_traitsIcEENS_9allocatorIcEEE5c_strB8ne180100Ev, symObjAddr: 0xEF4, symBinAddr: 0x100004214, symSize: 0x24 }
  - { offset: 0x34139, size: 0x8, addend: 0x0, symName: __ZN8tinyxml211XMLDocument11RootElementEv, symObjAddr: 0xF18, symBinAddr: 0x100004238, symSize: 0x28 }
  - { offset: 0x3415F, size: 0x8, addend: 0x0, symName: __ZN8tinyxml27XMLNode17FirstChildElementEPKc, symObjAddr: 0xF40, symBinAddr: 0x100004260, symSize: 0x2C }
  - { offset: 0x342D6, size: 0x8, addend: 0x0, symName: __ZNSt3__13setINS_12basic_stringIcNS_11char_traitsIcEENS_9allocatorIcEEEENS_4lessIS6_EENS4_IS6_EEEC1B8ne180100Ev, symObjAddr: 0xF6C, symBinAddr: 0x10000428C, symSize: 0x2C }
  - { offset: 0x34300, size: 0x8, addend: 0x0, symName: __ZNSt3__13setINS_12basic_stringIcNS_11char_traitsIcEENS_9allocatorIcEEEENS_4lessIS6_EENS4_IS6_EEE6insertB8ne180100EOS6_, symObjAddr: 0xF98, symBinAddr: 0x1000042B8, symSize: 0x4C }
  - { offset: 0x34335, size: 0x8, addend: 0x0, symName: __ZN8tinyxml27XMLNode18NextSiblingElementEPKc, symObjAddr: 0xFE4, symBinAddr: 0x100004304, symSize: 0x2C }
  - { offset: 0x3436A, size: 0x8, addend: 0x0, symName: __ZNSt3__13setINS_12basic_stringIcNS_11char_traitsIcEENS_9allocatorIcEEEENS_4lessIS6_EENS4_IS6_EEE5beginB8ne180100Ev, symObjAddr: 0x1010, symBinAddr: 0x100004330, symSize: 0x38 }
  - { offset: 0x34390, size: 0x8, addend: 0x0, symName: __ZNSt3__13setINS_12basic_stringIcNS_11char_traitsIcEENS_9allocatorIcEEEENS_4lessIS6_EENS4_IS6_EEE3endB8ne180100Ev, symObjAddr: 0x1048, symBinAddr: 0x100004368, symSize: 0x38 }
  - { offset: 0x343B6, size: 0x8, addend: 0x0, symName: __ZNKSt3__121__tree_const_iteratorINS_12basic_stringIcNS_11char_traitsIcEENS_9allocatorIcEEEEPNS_11__tree_nodeIS6_PvEElEdeB8ne180100Ev, symObjAddr: 0x10B4, symBinAddr: 0x1000043D4, symSize: 0x28 }
  - { offset: 0x343DC, size: 0x8, addend: 0x0, symName: __ZNSt3__121__tree_const_iteratorINS_12basic_stringIcNS_11char_traitsIcEENS_9allocatorIcEEEEPNS_11__tree_nodeIS6_PvEElEppB8ne180100Ev, symObjAddr: 0x10DC, symBinAddr: 0x1000043FC, symSize: 0x38 }
  - { offset: 0x34402, size: 0x8, addend: 0x0, symName: __ZNSt3__13mapINS_12basic_stringIcNS_11char_traitsIcEENS_9allocatorIcEEEES6_NS_4lessIS6_EENS4_INS_4pairIKS6_S6_EEEEEC1B8ne180100Ev, symObjAddr: 0x1114, symBinAddr: 0x100004434, symSize: 0x2C }
  - { offset: 0x3442C, size: 0x8, addend: 0x0, symName: __ZN5boost18dynamic_properties8propertyINS_24associative_property_mapINSt3__13mapINS3_12basic_stringIcNS3_11char_traitsIcEENS3_9allocatorIcEEEESA_NS3_4lessISA_EENS8_INS3_4pairIKSA_SA_EEEEEEEEEERS0_RSE_T_, symObjAddr: 0x1140, symBinAddr: 0x100004460, symSize: 0xD8 }
  - { offset: 0x34485, size: 0x8, addend: 0x0, symName: __ZNK5boost21iterator_range_detail19iterator_range_baseINS_12range_detail16integer_iteratorImEENS_9iterators27incrementable_traversal_tagEE5beginEv, symObjAddr: 0x1498, symBinAddr: 0x1000047B8, symSize: 0x20 }
  - { offset: 0x344AB, size: 0x8, addend: 0x0, symName: __ZNK5boost21iterator_range_detail19iterator_range_baseINS_12range_detail16integer_iteratorImEENS_9iterators27incrementable_traversal_tagEE3endEv, symObjAddr: 0x14B8, symBinAddr: 0x1000047D8, symSize: 0x20 }
  - { offset: 0x344D1, size: 0x8, addend: 0x0, symName: __ZNK5boost9iterators6detail20iterator_facade_baseINS_12range_detail16integer_iteratorImEEmNS0_27random_access_traversal_tagEmlLb0ELb0EEdeEv, symObjAddr: 0x150C, symBinAddr: 0x10000482C, symSize: 0x28 }
  - { offset: 0x344F7, size: 0x8, addend: 0x0, symName: __ZN5boost9iterators6detail20iterator_facade_baseINS_12range_detail16integer_iteratorImEEmNS0_27random_access_traversal_tagEmlLb0ELb0EEppEv, symObjAddr: 0x1534, symBinAddr: 0x100004854, symSize: 0x34 }
  - { offset: 0x3453A, size: 0x8, addend: 0x0, symName: __ZNSt3__14pairIN5boost6detail22adj_list_edge_iteratorINS1_12range_detail16integer_iteratorImEENS2_13out_edge_iterINS_11__wrap_iterIPNS2_20stored_edge_propertyImNS1_11no_propertyEEEEEmNS2_14edge_desc_implINS1_12directed_tagEmEElEENS1_14adjacency_listINS1_4vecSESJ_NS1_9directedSESA_SA_SA_NS1_5listSEEEEESN_ED1Ev, symObjAddr: 0x17DC, symBinAddr: 0x100004AFC, symSize: 0x2C }
  - { offset: 0x34598, size: 0x8, addend: 0x0, symName: __ZNK5boost21iterator_range_detail19iterator_range_baseINS_6detail22adj_list_edge_iteratorINS_12range_detail16integer_iteratorImEENS2_13out_edge_iterINSt3__111__wrap_iterIPNS2_20stored_edge_propertyImNS_11no_propertyEEEEEmNS2_14edge_desc_implINS_12directed_tagEmEElEENS_14adjacency_listINS_4vecSESK_NS_9directedSESB_SB_SB_NS_5listSEEEEENS_9iterators27incrementable_traversal_tagEE5beginEv, symObjAddr: 0x1808, symBinAddr: 0x100004B28, symSize: 0x38 }
  - { offset: 0x345BE, size: 0x8, addend: 0x0, symName: __ZNK5boost21iterator_range_detail19iterator_range_baseINS_6detail22adj_list_edge_iteratorINS_12range_detail16integer_iteratorImEENS2_13out_edge_iterINSt3__111__wrap_iterIPNS2_20stored_edge_propertyImNS_11no_propertyEEEEEmNS2_14edge_desc_implINS_12directed_tagEmEElEENS_14adjacency_listINS_4vecSESK_NS_9directedSESB_SB_SB_NS_5listSEEEEENS_9iterators27incrementable_traversal_tagEE3endEv, symObjAddr: 0x1840, symBinAddr: 0x100004B60, symSize: 0x3C }
  - { offset: 0x345E4, size: 0x8, addend: 0x0, symName: __ZNK5boost6detail22adj_list_edge_iteratorINS_12range_detail16integer_iteratorImEENS0_13out_edge_iterINSt3__111__wrap_iterIPNS0_20stored_edge_propertyImNS_11no_propertyEEEEEmNS0_14edge_desc_implINS_12directed_tagEmEElEENS_14adjacency_listINS_4vecSESI_NS_9directedSES9_S9_S9_NS_5listSEEEEneERKSM_, symObjAddr: 0x187C, symBinAddr: 0x100004B9C, symSize: 0xB0 }
  - { offset: 0x34618, size: 0x8, addend: 0x0, symName: __ZNK5boost6detail22adj_list_edge_iteratorINS_12range_detail16integer_iteratorImEENS0_13out_edge_iterINSt3__111__wrap_iterIPNS0_20stored_edge_propertyImNS_11no_propertyEEEEEmNS0_14edge_desc_implINS_12directed_tagEmEElEENS_14adjacency_listINS_4vecSESI_NS_9directedSES9_S9_S9_NS_5listSEEEEdeEv, symObjAddr: 0x192C, symBinAddr: 0x100004C4C, symSize: 0x34 }
  - { offset: 0x3463E, size: 0x8, addend: 0x0, symName: __ZN5boost6detail22adj_list_edge_iteratorINS_12range_detail16integer_iteratorImEENS0_13out_edge_iterINSt3__111__wrap_iterIPNS0_20stored_edge_propertyImNS_11no_propertyEEEEEmNS0_14edge_desc_implINS_12directed_tagEmEElEENS_14adjacency_listINS_4vecSESI_NS_9directedSES9_S9_S9_NS_5listSEEEEppEv, symObjAddr: 0x1998, symBinAddr: 0x100004CB8, symSize: 0x12C }
  - { offset: 0x34664, size: 0x8, addend: 0x0, symName: __ZN5boost6detail22adj_list_edge_iteratorINS_12range_detail16integer_iteratorImEENS0_13out_edge_iterINSt3__111__wrap_iterIPNS0_20stored_edge_propertyImNS_11no_propertyEEEEEmNS0_14edge_desc_implINS_12directed_tagEmEElEENS_14adjacency_listINS_4vecSESI_NS_9directedSES9_S9_S9_NS_5listSEEEED1Ev, symObjAddr: 0x1AC4, symBinAddr: 0x100004DE4, symSize: 0x2C }
  - { offset: 0x3469C, size: 0x8, addend: 0x0, symName: __ZN5boost14iterator_rangeINS_6detail22adj_list_edge_iteratorINS_12range_detail16integer_iteratorImEENS1_13out_edge_iterINSt3__111__wrap_iterIPNS1_20stored_edge_propertyImNS_11no_propertyEEEEEmNS1_14edge_desc_implINS_12directed_tagEmEElEENS_14adjacency_listINS_4vecSESJ_NS_9directedSESA_SA_SA_NS_5listSEEEEEED1Ev, symObjAddr: 0x1AF0, symBinAddr: 0x100004E10, symSize: 0x2C }
  - { offset: 0x346C9, size: 0x8, addend: 0x0, symName: __ZNSt3__13mapINS_12basic_stringIcNS_11char_traitsIcEENS_9allocatorIcEEEES6_NS_4lessIS6_EENS4_INS_4pairIKS6_S6_EEEEED1B8ne180100Ev, symObjAddr: 0x1B1C, symBinAddr: 0x100004E3C, symSize: 0x2C }
  - { offset: 0x346F3, size: 0x8, addend: 0x0, symName: __ZNSt3__13setINS_12basic_stringIcNS_11char_traitsIcEENS_9allocatorIcEEEENS_4lessIS6_EENS4_IS6_EEED1B8ne180100Ev, symObjAddr: 0x1B48, symBinAddr: 0x100004E68, symSize: 0x2C }
  - { offset: 0x3471D, size: 0x8, addend: 0x0, symName: __ZN5boost18dynamic_propertiesD1Ev, symObjAddr: 0x1B74, symBinAddr: 0x100004E94, symSize: 0x2C }
  - { offset: 0x34747, size: 0x8, addend: 0x0, symName: __ZN5boost14adjacency_listINS_4vecSES1_NS_9directedSENS_11no_propertyES3_S3_NS_5listSEED1Ev, symObjAddr: 0x1BA0, symBinAddr: 0x100004EC0, symSize: 0x2C }
  - { offset: 0x3477A, size: 0x8, addend: 0x0, symName: __ZNSt3__114basic_ifstreamIcNS_11char_traitsIcEEED1Ev, symObjAddr: 0x1BCC, symBinAddr: 0x100004EEC, symSize: 0x40 }
  - { offset: 0x347A7, size: 0x8, addend: 0x0, symName: __ZN5boost18dynamic_propertiesC2Ev, symObjAddr: 0x1C0C, symBinAddr: 0x100004F2C, symSize: 0x6C }
  - { offset: 0x347D1, size: 0x8, addend: 0x0, symName: __ZNSt3__18multimapINS_12basic_stringIcNS_11char_traitsIcEENS_9allocatorIcEEEEN5boost10shared_ptrINS7_20dynamic_property_mapEEENS_4lessIS6_EENS4_INS_4pairIKS6_SA_EEEEEC1B8ne180100Ev, symObjAddr: 0x1C78, symBinAddr: 0x100004F98, symSize: 0x2C }
  - { offset: 0x347FB, size: 0x8, addend: 0x0, symName: __ZN5boost10function_nINS_10shared_ptrINS_20dynamic_property_mapEEEJRKNSt3__112basic_stringIcNS4_11char_traitsIcEENS4_9allocatorIcEEEERKNS_3anyESF_EEC1Ev, symObjAddr: 0x1CA4, symBinAddr: 0x100004FC4, symSize: 0x2C }
  - { offset: 0x34825, size: 0x8, addend: 0x0, symName: __ZNSt3__18multimapINS_12basic_stringIcNS_11char_traitsIcEENS_9allocatorIcEEEEN5boost10shared_ptrINS7_20dynamic_property_mapEEENS_4lessIS6_EENS4_INS_4pairIKS6_SA_EEEEED1B8ne180100Ev, symObjAddr: 0x1CD0, symBinAddr: 0x100004FF0, symSize: 0x2C }
  - { offset: 0x3484F, size: 0x8, addend: 0x0, symName: __ZNSt3__18multimapINS_12basic_stringIcNS_11char_traitsIcEENS_9allocatorIcEEEEN5boost10shared_ptrINS7_20dynamic_property_mapEEENS_4lessIS6_EENS4_INS_4pairIKS6_SA_EEEEEC2B8ne180100Ev, symObjAddr: 0x1CFC, symBinAddr: 0x10000501C, symSize: 0x40 }
  - { offset: 0x34879, size: 0x8, addend: 0x0, symName: __ZNSt3__119__map_value_compareINS_12basic_stringIcNS_11char_traitsIcEENS_9allocatorIcEEEENS_12__value_typeIS6_N5boost10shared_ptrINS8_20dynamic_property_mapEEEEENS_4lessIS6_EELb1EEC1B8ne180100ESE_, symObjAddr: 0x1D3C, symBinAddr: 0x10000505C, symSize: 0x2C }
  - { offset: 0x348B2, size: 0x8, addend: 0x0, symName: __ZNSt3__16__treeINS_12__value_typeINS_12basic_stringIcNS_11char_traitsIcEENS_9allocatorIcEEEEN5boost10shared_ptrINS8_20dynamic_property_mapEEEEENS_19__map_value_compareIS7_SC_NS_4lessIS7_EELb1EEENS5_ISC_EEEC1ERKSG_, symObjAddr: 0x1D68, symBinAddr: 0x100005088, symSize: 0x34 }
  - { offset: 0x348ED, size: 0x8, addend: 0x0, symName: __ZNSt3__119__map_value_compareINS_12basic_stringIcNS_11char_traitsIcEENS_9allocatorIcEEEENS_12__value_typeIS6_N5boost10shared_ptrINS8_20dynamic_property_mapEEEEENS_4lessIS6_EELb1EEC2B8ne180100ESE_, symObjAddr: 0x1D9C, symBinAddr: 0x1000050BC, symSize: 0x14 }
  - { offset: 0x34926, size: 0x8, addend: 0x0, symName: __ZNSt3__16__treeINS_12__value_typeINS_12basic_stringIcNS_11char_traitsIcEENS_9allocatorIcEEEEN5boost10shared_ptrINS8_20dynamic_property_mapEEEEENS_19__map_value_compareIS7_SC_NS_4lessIS7_EELb1EEENS5_ISC_EEEC2ERKSG_, symObjAddr: 0x1DB0, symBinAddr: 0x1000050D0, symSize: 0x7C }
  - { offset: 0x34961, size: 0x8, addend: 0x0, symName: __ZNSt3__117__compressed_pairINS_15__tree_end_nodeIPNS_16__tree_node_baseIPvEEEENS_9allocatorINS_11__tree_nodeINS_12__value_typeINS_12basic_stringIcNS_11char_traitsIcEENS7_IcEEEEN5boost10shared_ptrINSF_20dynamic_property_mapEEEEES3_EEEEEC1B8ne180100ILb1EvEEv, symObjAddr: 0x1E2C, symBinAddr: 0x10000514C, symSize: 0x2C }
  - { offset: 0x3499C, size: 0x8, addend: 0x0, symName: __ZNSt3__117__compressed_pairImNS_19__map_value_compareINS_12basic_stringIcNS_11char_traitsIcEENS_9allocatorIcEEEENS_12__value_typeIS7_N5boost10shared_ptrINS9_20dynamic_property_mapEEEEENS_4lessIS7_EELb1EEEEC1B8ne180100IiRKSG_EEOT_OT0_, symObjAddr: 0x1E58, symBinAddr: 0x100005178, symSize: 0x3C }
  - { offset: 0x349F4, size: 0x8, addend: 0x0, symName: __ZNSt3__16__treeINS_12__value_typeINS_12basic_stringIcNS_11char_traitsIcEENS_9allocatorIcEEEEN5boost10shared_ptrINS8_20dynamic_property_mapEEEEENS_19__map_value_compareIS7_SC_NS_4lessIS7_EELb1EEENS5_ISC_EEE10__end_nodeB8ne180100Ev, symObjAddr: 0x1E94, symBinAddr: 0x1000051B4, symSize: 0x2C }
  - { offset: 0x34A1A, size: 0x8, addend: 0x0, symName: __ZNSt3__16__treeINS_12__value_typeINS_12basic_stringIcNS_11char_traitsIcEENS_9allocatorIcEEEEN5boost10shared_ptrINS8_20dynamic_property_mapEEEEENS_19__map_value_compareIS7_SC_NS_4lessIS7_EELb1EEENS5_ISC_EEE12__begin_nodeB8ne180100Ev, symObjAddr: 0x1EC0, symBinAddr: 0x1000051E0, symSize: 0x14 }
  - { offset: 0x34A40, size: 0x8, addend: 0x0, symName: __ZNSt3__117__compressed_pairINS_15__tree_end_nodeIPNS_16__tree_node_baseIPvEEEENS_9allocatorINS_11__tree_nodeINS_12__value_typeINS_12basic_stringIcNS_11char_traitsIcEENS7_IcEEEEN5boost10shared_ptrINSF_20dynamic_property_mapEEEEES3_EEEEEC2B8ne180100ILb1EvEEv, symObjAddr: 0x1ED4, symBinAddr: 0x1000051F4, symSize: 0x34 }
  - { offset: 0x34A75, size: 0x8, addend: 0x0, symName: __ZNSt3__122__compressed_pair_elemINS_15__tree_end_nodeIPNS_16__tree_node_baseIPvEEEELi0ELb0EEC2B8ne180100ENS_16__value_init_tagE, symObjAddr: 0x1F08, symBinAddr: 0x100005228, symSize: 0x2C }
  - { offset: 0x34AA9, size: 0x8, addend: 0x0, symName: __ZNSt3__122__compressed_pair_elemINS_9allocatorINS_11__tree_nodeINS_12__value_typeINS_12basic_stringIcNS_11char_traitsIcEENS1_IcEEEEN5boost10shared_ptrINS9_20dynamic_property_mapEEEEEPvEEEELi1ELb1EEC2B8ne180100ENS_16__value_init_tagE, symObjAddr: 0x1F34, symBinAddr: 0x100005254, symSize: 0x2C }
  - { offset: 0x34ADD, size: 0x8, addend: 0x0, symName: __ZNSt3__115__tree_end_nodeIPNS_16__tree_node_baseIPvEEEC1B8ne180100Ev, symObjAddr: 0x1F60, symBinAddr: 0x100005280, symSize: 0x2C }
  - { offset: 0x34B07, size: 0x8, addend: 0x0, symName: __ZNSt3__115__tree_end_nodeIPNS_16__tree_node_baseIPvEEEC2B8ne180100Ev, symObjAddr: 0x1F8C, symBinAddr: 0x1000052AC, symSize: 0x18 }
  - { offset: 0x34B31, size: 0x8, addend: 0x0, symName: __ZNSt3__19allocatorINS_11__tree_nodeINS_12__value_typeINS_12basic_stringIcNS_11char_traitsIcEENS0_IcEEEEN5boost10shared_ptrINS8_20dynamic_property_mapEEEEEPvEEEC2B8ne180100Ev, symObjAddr: 0x1FA4, symBinAddr: 0x1000052C4, symSize: 0x2C }
  - { offset: 0x34B5B, size: 0x8, addend: 0x0, symName: __ZNSt3__116__non_trivial_ifILb1ENS_9allocatorINS_11__tree_nodeINS_12__value_typeINS_12basic_stringIcNS_11char_traitsIcEENS1_IcEEEEN5boost10shared_ptrINS9_20dynamic_property_mapEEEEEPvEEEEEC2B8ne180100Ev, symObjAddr: 0x1FD0, symBinAddr: 0x1000052F0, symSize: 0x14 }
  - { offset: 0x34B85, size: 0x8, addend: 0x0, symName: __ZNSt3__117__compressed_pairImNS_19__map_value_compareINS_12basic_stringIcNS_11char_traitsIcEENS_9allocatorIcEEEENS_12__value_typeIS7_N5boost10shared_ptrINS9_20dynamic_property_mapEEEEENS_4lessIS7_EELb1EEEEC2B8ne180100IiRKSG_EEOT_OT0_, symObjAddr: 0x1FE4, symBinAddr: 0x100005304, symSize: 0x44 }
  - { offset: 0x34BDD, size: 0x8, addend: 0x0, symName: __ZNSt3__122__compressed_pair_elemImLi0ELb0EEC2B8ne180100IivEEOT_, symObjAddr: 0x2028, symBinAddr: 0x100005348, symSize: 0x24 }
  - { offset: 0x34C1F, size: 0x8, addend: 0x0, symName: __ZNSt3__122__compressed_pair_elemINS_19__map_value_compareINS_12basic_stringIcNS_11char_traitsIcEENS_9allocatorIcEEEENS_12__value_typeIS7_N5boost10shared_ptrINS9_20dynamic_property_mapEEEEENS_4lessIS7_EELb1EEELi1ELb1EEC2B8ne180100IRKSG_vEEOT_, symObjAddr: 0x204C, symBinAddr: 0x10000536C, symSize: 0x18 }
  - { offset: 0x34C61, size: 0x8, addend: 0x0, symName: __ZNSt3__114pointer_traitsIPNS_15__tree_end_nodeIPNS_16__tree_node_baseIPvEEEEE10pointer_toB8ne180100ERS6_, symObjAddr: 0x2064, symBinAddr: 0x100005384, symSize: 0x14 }
  - { offset: 0x34C84, size: 0x8, addend: 0x0, symName: __ZNSt3__117__compressed_pairINS_15__tree_end_nodeIPNS_16__tree_node_baseIPvEEEENS_9allocatorINS_11__tree_nodeINS_12__value_typeINS_12basic_stringIcNS_11char_traitsIcEENS7_IcEEEEN5boost10shared_ptrINSF_20dynamic_property_mapEEEEES3_EEEEE5firstB8ne180100Ev, symObjAddr: 0x2078, symBinAddr: 0x100005398, symSize: 0x24 }
  - { offset: 0x34CAA, size: 0x8, addend: 0x0, symName: __ZNSt3__122__compressed_pair_elemINS_15__tree_end_nodeIPNS_16__tree_node_baseIPvEEEELi0ELb0EE5__getB8ne180100Ev, symObjAddr: 0x209C, symBinAddr: 0x1000053BC, symSize: 0x14 }
  - { offset: 0x34CD0, size: 0x8, addend: 0x0, symName: __ZN5boost10function_nINS_10shared_ptrINS_20dynamic_property_mapEEEJRKNSt3__112basic_stringIcNS4_11char_traitsIcEENS4_9allocatorIcEEEERKNS_3anyESF_EEC2Ev, symObjAddr: 0x20B0, symBinAddr: 0x1000053D0, symSize: 0x2C }
  - { offset: 0x34CFA, size: 0x8, addend: 0x0, symName: __ZN5boost13function_baseC2Ev, symObjAddr: 0x20DC, symBinAddr: 0x1000053FC, symSize: 0x18 }
  - { offset: 0x34D24, size: 0x8, addend: 0x0, symName: __ZNSt3__18multimapINS_12basic_stringIcNS_11char_traitsIcEENS_9allocatorIcEEEEN5boost10shared_ptrINS7_20dynamic_property_mapEEENS_4lessIS6_EENS4_INS_4pairIKS6_SA_EEEEED2B8ne180100Ev, symObjAddr: 0x20F4, symBinAddr: 0x100005414, symSize: 0x2C }
  - { offset: 0x34D4E, size: 0x8, addend: 0x0, symName: __ZNSt3__16__treeINS_12__value_typeINS_12basic_stringIcNS_11char_traitsIcEENS_9allocatorIcEEEEN5boost10shared_ptrINS8_20dynamic_property_mapEEEEENS_19__map_value_compareIS7_SC_NS_4lessIS7_EELb1EEENS5_ISC_EEED1Ev, symObjAddr: 0x2120, symBinAddr: 0x100005440, symSize: 0x2C }
  - { offset: 0x34D7A, size: 0x8, addend: 0x0, symName: __ZNSt3__16__treeINS_12__value_typeINS_12basic_stringIcNS_11char_traitsIcEENS_9allocatorIcEEEEN5boost10shared_ptrINS8_20dynamic_property_mapEEEEENS_19__map_value_compareIS7_SC_NS_4lessIS7_EELb1EEENS5_ISC_EEED2Ev, symObjAddr: 0x214C, symBinAddr: 0x10000546C, symSize: 0x38 }
  - { offset: 0x34DA6, size: 0x8, addend: 0x0, symName: __ZNSt3__16__treeINS_12__value_typeINS_12basic_stringIcNS_11char_traitsIcEENS_9allocatorIcEEEEN5boost10shared_ptrINS8_20dynamic_property_mapEEEEENS_19__map_value_compareIS7_SC_NS_4lessIS7_EELb1EEENS5_ISC_EEE7destroyEPNS_11__tree_nodeISC_PvEE, symObjAddr: 0x2184, symBinAddr: 0x1000054A4, symSize: 0xAC }
  - { offset: 0x34DF2, size: 0x8, addend: 0x0, symName: __ZNKSt3__16__treeINS_12__value_typeINS_12basic_stringIcNS_11char_traitsIcEENS_9allocatorIcEEEEN5boost10shared_ptrINS8_20dynamic_property_mapEEEEENS_19__map_value_compareIS7_SC_NS_4lessIS7_EELb1EEENS5_ISC_EEE6__rootB8ne180100Ev, symObjAddr: 0x2230, symBinAddr: 0x100005550, symSize: 0x28 }
  - { offset: 0x34E18, size: 0x8, addend: 0x0, symName: __ZNSt3__16__treeINS_12__value_typeINS_12basic_stringIcNS_11char_traitsIcEENS_9allocatorIcEEEEN5boost10shared_ptrINS8_20dynamic_property_mapEEEEENS_19__map_value_compareIS7_SC_NS_4lessIS7_EELb1EEENS5_ISC_EEE12__node_allocB8ne180100Ev, symObjAddr: 0x2258, symBinAddr: 0x100005578, symSize: 0x28 }
  - { offset: 0x34E3E, size: 0x8, addend: 0x0, symName: __ZNSt3__116allocator_traitsINS_9allocatorINS_11__tree_nodeINS_12__value_typeINS_12basic_stringIcNS_11char_traitsIcEENS1_IcEEEEN5boost10shared_ptrINS9_20dynamic_property_mapEEEEEPvEEEEE7destroyB8ne180100INS_4pairIKS8_SC_EEvvEEvRSG_PT_, symObjAddr: 0x2280, symBinAddr: 0x1000055A0, symSize: 0x28 }
  - { offset: 0x34E79, size: 0x8, addend: 0x0, symName: __ZNSt3__122__tree_key_value_typesINS_12__value_typeINS_12basic_stringIcNS_11char_traitsIcEENS_9allocatorIcEEEEN5boost10shared_ptrINS8_20dynamic_property_mapEEEEEE9__get_ptrB8ne180100ERSC_, symObjAddr: 0x22A8, symBinAddr: 0x1000055C8, symSize: 0x24 }
  - { offset: 0x34E9D, size: 0x8, addend: 0x0, symName: __ZNSt3__116allocator_traitsINS_9allocatorINS_11__tree_nodeINS_12__value_typeINS_12basic_stringIcNS_11char_traitsIcEENS1_IcEEEEN5boost10shared_ptrINS9_20dynamic_property_mapEEEEEPvEEEEE10deallocateB8ne180100ERSG_PSF_m, symObjAddr: 0x22CC, symBinAddr: 0x1000055EC, symSize: 0x34 }
  - { offset: 0x34EDF, size: 0x8, addend: 0x0, symName: __ZNSt3__117__compressed_pairINS_15__tree_end_nodeIPNS_16__tree_node_baseIPvEEEENS_9allocatorINS_11__tree_nodeINS_12__value_typeINS_12basic_stringIcNS_11char_traitsIcEENS7_IcEEEEN5boost10shared_ptrINSF_20dynamic_property_mapEEEEES3_EEEEE6secondB8ne180100Ev, symObjAddr: 0x2300, symBinAddr: 0x100005620, symSize: 0x24 }
  - { offset: 0x34F05, size: 0x8, addend: 0x0, symName: __ZNSt3__122__compressed_pair_elemINS_9allocatorINS_11__tree_nodeINS_12__value_typeINS_12basic_stringIcNS_11char_traitsIcEENS1_IcEEEEN5boost10shared_ptrINS9_20dynamic_property_mapEEEEEPvEEEELi1ELb1EE5__getB8ne180100Ev, symObjAddr: 0x2324, symBinAddr: 0x100005644, symSize: 0x14 }
  - { offset: 0x34F2B, size: 0x8, addend: 0x0, symName: __ZNSt3__14pairIKNS_12basic_stringIcNS_11char_traitsIcEENS_9allocatorIcEEEEN5boost10shared_ptrINS8_20dynamic_property_mapEEEED1Ev, symObjAddr: 0x235C, symBinAddr: 0x10000567C, symSize: 0x2C }
  - { offset: 0x34F57, size: 0x8, addend: 0x0, symName: __ZNSt3__14pairIKNS_12basic_stringIcNS_11char_traitsIcEENS_9allocatorIcEEEEN5boost10shared_ptrINS8_20dynamic_property_mapEEEED2Ev, symObjAddr: 0x2388, symBinAddr: 0x1000056A8, symSize: 0x38 }
  - { offset: 0x34F83, size: 0x8, addend: 0x0, symName: __ZN5boost10shared_ptrINS_20dynamic_property_mapEED1Ev, symObjAddr: 0x23C0, symBinAddr: 0x1000056E0, symSize: 0x2C }
  - { offset: 0x34FAF, size: 0x8, addend: 0x0, symName: __ZN5boost10shared_ptrINS_20dynamic_property_mapEED2Ev, symObjAddr: 0x23EC, symBinAddr: 0x10000570C, symSize: 0x30 }
  - { offset: 0x34FDB, size: 0x8, addend: 0x0, symName: __ZN5boost6detail12shared_countD1Ev, symObjAddr: 0x241C, symBinAddr: 0x10000573C, symSize: 0x2C }
  - { offset: 0x35005, size: 0x8, addend: 0x0, symName: __ZN5boost6detail12shared_countD2Ev, symObjAddr: 0x2448, symBinAddr: 0x100005768, symSize: 0x5C }
  - { offset: 0x3502F, size: 0x8, addend: 0x0, symName: __ZN5boost6detail15sp_counted_base7releaseEv, symObjAddr: 0x24A4, symBinAddr: 0x1000057C4, symSize: 0x58 }
  - { offset: 0x35055, size: 0x8, addend: 0x0, symName: __ZN5boost6detail15sp_counted_base12weak_releaseEv, symObjAddr: 0x252C, symBinAddr: 0x10000584C, symSize: 0x50 }
  - { offset: 0x3507B, size: 0x8, addend: 0x0, symName: __ZNSt3__112__value_typeINS_12basic_stringIcNS_11char_traitsIcEENS_9allocatorIcEEEEN5boost10shared_ptrINS7_20dynamic_property_mapEEEE11__get_valueB8ne180100Ev, symObjAddr: 0x257C, symBinAddr: 0x10000589C, symSize: 0x24 }
  - { offset: 0x350A1, size: 0x8, addend: 0x0, symName: __ZNSt3__19allocatorINS_11__tree_nodeINS_12__value_typeINS_12basic_stringIcNS_11char_traitsIcEENS0_IcEEEEN5boost10shared_ptrINS8_20dynamic_property_mapEEEEEPvEEE10deallocateB8ne180100EPSE_m, symObjAddr: 0x25D8, symBinAddr: 0x1000058F8, symSize: 0x44 }
  - { offset: 0x350E3, size: 0x8, addend: 0x0, symName: __ZNKSt3__16__treeINS_12__value_typeINS_12basic_stringIcNS_11char_traitsIcEENS_9allocatorIcEEEEN5boost10shared_ptrINS8_20dynamic_property_mapEEEEENS_19__map_value_compareIS7_SC_NS_4lessIS7_EELb1EEENS5_ISC_EEE10__end_nodeB8ne180100Ev, symObjAddr: 0x2744, symBinAddr: 0x100005A64, symSize: 0x2C }
  - { offset: 0x35109, size: 0x8, addend: 0x0, symName: __ZNKSt3__117__compressed_pairINS_15__tree_end_nodeIPNS_16__tree_node_baseIPvEEEENS_9allocatorINS_11__tree_nodeINS_12__value_typeINS_12basic_stringIcNS_11char_traitsIcEENS7_IcEEEEN5boost10shared_ptrINSF_20dynamic_property_mapEEEEES3_EEEEE5firstB8ne180100Ev, symObjAddr: 0x2770, symBinAddr: 0x100005A90, symSize: 0x24 }
  - { offset: 0x3512F, size: 0x8, addend: 0x0, symName: __ZNKSt3__122__compressed_pair_elemINS_15__tree_end_nodeIPNS_16__tree_node_baseIPvEEEELi0ELb0EE5__getB8ne180100Ev, symObjAddr: 0x2794, symBinAddr: 0x100005AB4, symSize: 0x14 }
  - { offset: 0x35155, size: 0x8, addend: 0x0, symName: __ZNSt3__14pairIN5boost6detail22adj_list_edge_iteratorINS1_12range_detail16integer_iteratorImEENS2_13out_edge_iterINS_11__wrap_iterIPNS2_20stored_edge_propertyImNS1_11no_propertyEEEEEmNS2_14edge_desc_implINS1_12directed_tagEmEElEENS1_14adjacency_listINS1_4vecSESJ_NS1_9directedSESA_SA_SA_NS1_5listSEEEEESN_ED2Ev, symObjAddr: 0x27A8, symBinAddr: 0x100005AC8, symSize: 0x38 }
  - { offset: 0x35181, size: 0x8, addend: 0x0, symName: __ZN5boost6detail22adj_list_edge_iteratorINS_12range_detail16integer_iteratorImEENS0_13out_edge_iterINSt3__111__wrap_iterIPNS0_20stored_edge_propertyImNS_11no_propertyEEEEEmNS0_14edge_desc_implINS_12directed_tagEmEElEENS_14adjacency_listINS_4vecSESI_NS_9directedSES9_S9_S9_NS_5listSEEEED2Ev, symObjAddr: 0x27E0, symBinAddr: 0x100005B00, symSize: 0x30 }
  - { offset: 0x351AD, size: 0x8, addend: 0x0, symName: __ZN5boost8optionalINSt3__14pairINS_6detail13out_edge_iterINS1_11__wrap_iterIPNS3_20stored_edge_propertyImNS_11no_propertyEEEEEmNS3_14edge_desc_implINS_12directed_tagEmEElEESE_EEED1Ev, symObjAddr: 0x2810, symBinAddr: 0x100005B30, symSize: 0x2C }
  - { offset: 0x351DA, size: 0x8, addend: 0x0, symName: __ZN5boost8optionalINSt3__14pairINS_6detail13out_edge_iterINS1_11__wrap_iterIPNS3_20stored_edge_propertyImNS_11no_propertyEEEEEmNS3_14edge_desc_implINS_12directed_tagEmEElEESE_EEED2Ev, symObjAddr: 0x283C, symBinAddr: 0x100005B5C, symSize: 0x2C }
  - { offset: 0x35207, size: 0x8, addend: 0x0, symName: __ZN5boost15optional_detail13optional_baseINSt3__14pairINS_6detail13out_edge_iterINS2_11__wrap_iterIPNS4_20stored_edge_propertyImNS_11no_propertyEEEEEmNS4_14edge_desc_implINS_12directed_tagEmEElEESF_EEED2Ev, symObjAddr: 0x2868, symBinAddr: 0x100005B88, symSize: 0x34 }
  - { offset: 0x35231, size: 0x8, addend: 0x0, symName: __ZN5boost15optional_detail13optional_baseINSt3__14pairINS_6detail13out_edge_iterINS2_11__wrap_iterIPNS4_20stored_edge_propertyImNS_11no_propertyEEEEEmNS4_14edge_desc_implINS_12directed_tagEmEElEESF_EEE7destroyEv, symObjAddr: 0x289C, symBinAddr: 0x100005BBC, symSize: 0x3C }
  - { offset: 0x35257, size: 0x8, addend: 0x0, symName: __ZN5boost15optional_detail13optional_baseINSt3__14pairINS_6detail13out_edge_iterINS2_11__wrap_iterIPNS4_20stored_edge_propertyImNS_11no_propertyEEEEEmNS4_14edge_desc_implINS_12directed_tagEmEElEESF_EEE12destroy_implEv, symObjAddr: 0x28D8, symBinAddr: 0x100005BF8, symSize: 0x34 }
  - { offset: 0x3527D, size: 0x8, addend: 0x0, symName: __ZN5boost15optional_detail15aligned_storageINSt3__14pairINS_6detail13out_edge_iterINS2_11__wrap_iterIPNS4_20stored_edge_propertyImNS_11no_propertyEEEEEmNS4_14edge_desc_implINS_12directed_tagEmEElEESF_EEE3refEv, symObjAddr: 0x290C, symBinAddr: 0x100005C2C, symSize: 0x28 }
  - { offset: 0x352A3, size: 0x8, addend: 0x0, symName: __ZN5boost15optional_detail15aligned_storageINSt3__14pairINS_6detail13out_edge_iterINS2_11__wrap_iterIPNS4_20stored_edge_propertyImNS_11no_propertyEEEEEmNS4_14edge_desc_implINS_12directed_tagEmEElEESF_EEE7ptr_refEv, symObjAddr: 0x2948, symBinAddr: 0x100005C68, symSize: 0x2C }
  - { offset: 0x352F6, size: 0x8, addend: 0x0, symName: __ZN5boost15optional_detail15aligned_storageINSt3__14pairINS_6detail13out_edge_iterINS2_11__wrap_iterIPNS4_20stored_edge_propertyImNS_11no_propertyEEEEEmNS4_14edge_desc_implINS_12directed_tagEmEElEESF_EEE7addressEv, symObjAddr: 0x2974, symBinAddr: 0x100005C94, symSize: 0x14 }
  - { offset: 0x3531C, size: 0x8, addend: 0x0, symName: __ZN5boost14iterator_rangeINS_6detail22adj_list_edge_iteratorINS_12range_detail16integer_iteratorImEENS1_13out_edge_iterINSt3__111__wrap_iterIPNS1_20stored_edge_propertyImNS_11no_propertyEEEEEmNS1_14edge_desc_implINS_12directed_tagEmEElEENS_14adjacency_listINS_4vecSESJ_NS_9directedSESA_SA_SA_NS_5listSEEEEEED2Ev, symObjAddr: 0x2988, symBinAddr: 0x100005CA8, symSize: 0x2C }
  - { offset: 0x35349, size: 0x8, addend: 0x0, symName: __ZN5boost21iterator_range_detail19iterator_range_baseINS_6detail22adj_list_edge_iteratorINS_12range_detail16integer_iteratorImEENS2_13out_edge_iterINSt3__111__wrap_iterIPNS2_20stored_edge_propertyImNS_11no_propertyEEEEEmNS2_14edge_desc_implINS_12directed_tagEmEElEENS_14adjacency_listINS_4vecSESK_NS_9directedSESB_SB_SB_NS_5listSEEEEENS_9iterators27incrementable_traversal_tagEED2Ev, symObjAddr: 0x29B4, symBinAddr: 0x100005CD4, symSize: 0x38 }
  - { offset: 0x35375, size: 0x8, addend: 0x0, symName: __ZN5boost18dynamic_propertiesD2Ev, symObjAddr: 0x29EC, symBinAddr: 0x100005D0C, symSize: 0x38 }
  - { offset: 0x3539F, size: 0x8, addend: 0x0, symName: __ZN5boost10function_nINS_10shared_ptrINS_20dynamic_property_mapEEEJRKNSt3__112basic_stringIcNS4_11char_traitsIcEENS4_9allocatorIcEEEERKNS_3anyESF_EED1Ev, symObjAddr: 0x2A24, symBinAddr: 0x100005D44, symSize: 0x2C }
  - { offset: 0x353C9, size: 0x8, addend: 0x0, symName: __ZN5boost10function_nINS_10shared_ptrINS_20dynamic_property_mapEEEJRKNSt3__112basic_stringIcNS4_11char_traitsIcEENS4_9allocatorIcEEEERKNS_3anyESF_EED2Ev, symObjAddr: 0x2A50, symBinAddr: 0x100005D70, symSize: 0x34 }
  - { offset: 0x353F3, size: 0x8, addend: 0x0, symName: __ZN5boost10function_nINS_10shared_ptrINS_20dynamic_property_mapEEEJRKNSt3__112basic_stringIcNS4_11char_traitsIcEENS4_9allocatorIcEEEERKNS_3anyESF_EE5clearEv, symObjAddr: 0x2A84, symBinAddr: 0x100005DA4, symSize: 0x6C }
  - { offset: 0x35419, size: 0x8, addend: 0x0, symName: __ZNK5boost13function_base28has_trivial_copy_and_destroyEv, symObjAddr: 0x2AF0, symBinAddr: 0x100005E10, symSize: 0x24 }
  - { offset: 0x3543F, size: 0x8, addend: 0x0, symName: __ZNK5boost10function_nINS_10shared_ptrINS_20dynamic_property_mapEEEJRKNSt3__112basic_stringIcNS4_11char_traitsIcEENS4_9allocatorIcEEEERKNS_3anyESF_EE10get_vtableEv, symObjAddr: 0x2B14, symBinAddr: 0x100005E34, symSize: 0x1C }
  - { offset: 0x35465, size: 0x8, addend: 0x0, symName: __ZNK5boost6detail8function12basic_vtableINS_10shared_ptrINS_20dynamic_property_mapEEEJRKNSt3__112basic_stringIcNS6_11char_traitsIcEENS6_9allocatorIcEEEERKNS_3anyESH_EE5clearERNS1_15function_bufferE, symObjAddr: 0x2B30, symBinAddr: 0x100005E50, symSize: 0x58 }
  - { offset: 0x3549A, size: 0x8, addend: 0x0, symName: __ZN5boost14adjacency_listINS_4vecSES1_NS_9directedSENS_11no_propertyES3_S3_NS_5listSEED2Ev, symObjAddr: 0x2B88, symBinAddr: 0x100005EA8, symSize: 0x38 }
  - { offset: 0x354C7, size: 0x8, addend: 0x0, symName: __ZN5boost10scoped_ptrINS_11no_propertyEED1Ev, symObjAddr: 0x2BC0, symBinAddr: 0x100005EE0, symSize: 0x2C }
  - { offset: 0x354F1, size: 0x8, addend: 0x0, symName: __ZN5boost17vec_adj_list_implINS_14adjacency_listINS_4vecSES2_NS_9directedSENS_11no_propertyES4_S4_NS_5listSEEENS_6detail12adj_list_genIS6_S2_S2_S3_S4_S4_S4_S5_E6configENS_21directed_graph_helperISA_EEED2Ev, symObjAddr: 0x2BEC, symBinAddr: 0x100005F0C, symSize: 0x38 }
  - { offset: 0x3551E, size: 0x8, addend: 0x0, symName: __ZN5boost10scoped_ptrINS_11no_propertyEED2Ev, symObjAddr: 0x2C24, symBinAddr: 0x100005F44, symSize: 0x30 }
  - { offset: 0x35548, size: 0x8, addend: 0x0, symName: __ZNSt3__16vectorIN5boost6detail12adj_list_genINS1_14adjacency_listINS1_4vecSES5_NS1_9directedSENS1_11no_propertyES7_S7_NS1_5listSEEES5_S5_S6_S7_S7_S7_S8_E6config13stored_vertexENS_9allocatorISC_EEED1B8ne180100Ev, symObjAddr: 0x2C94, symBinAddr: 0x100005FB4, symSize: 0x2C }
  - { offset: 0x35572, size: 0x8, addend: 0x0, symName: __ZNSt3__14listIN5boost9list_edgeImNS1_11no_propertyEEENS_9allocatorIS4_EEED1Ev, symObjAddr: 0x2CC0, symBinAddr: 0x100005FE0, symSize: 0x2C }
  - { offset: 0x3559F, size: 0x8, addend: 0x0, symName: __ZNSt3__16vectorIN5boost6detail12adj_list_genINS1_14adjacency_listINS1_4vecSES5_NS1_9directedSENS1_11no_propertyES7_S7_NS1_5listSEEES5_S5_S6_S7_S7_S7_S8_E6config13stored_vertexENS_9allocatorISC_EEED2B8ne180100Ev, symObjAddr: 0x2CEC, symBinAddr: 0x10000600C, symSize: 0x44 }
  - { offset: 0x355C9, size: 0x8, addend: 0x0, symName: __ZNSt3__16vectorIN5boost6detail12adj_list_genINS1_14adjacency_listINS1_4vecSES5_NS1_9directedSENS1_11no_propertyES7_S7_NS1_5listSEEES5_S5_S6_S7_S7_S7_S8_E6config13stored_vertexENS_9allocatorISC_EEE16__destroy_vectorC1B8ne180100ERSF_, symObjAddr: 0x2D30, symBinAddr: 0x100006050, symSize: 0x34 }
  - { offset: 0x35602, size: 0x8, addend: 0x0, symName: __ZNSt3__16vectorIN5boost6detail12adj_list_genINS1_14adjacency_listINS1_4vecSES5_NS1_9directedSENS1_11no_propertyES7_S7_NS1_5listSEEES5_S5_S6_S7_S7_S7_S8_E6config13stored_vertexENS_9allocatorISC_EEE16__destroy_vectorclB8ne180100Ev, symObjAddr: 0x2D64, symBinAddr: 0x100006084, symSize: 0x90 }
  - { offset: 0x35628, size: 0x8, addend: 0x0, symName: __ZNSt3__16vectorIN5boost6detail12adj_list_genINS1_14adjacency_listINS1_4vecSES5_NS1_9directedSENS1_11no_propertyES7_S7_NS1_5listSEEES5_S5_S6_S7_S7_S7_S8_E6config13stored_vertexENS_9allocatorISC_EEE16__destroy_vectorC2B8ne180100ERSF_, symObjAddr: 0x2DF4, symBinAddr: 0x100006114, symSize: 0x20 }
  - { offset: 0x35661, size: 0x8, addend: 0x0, symName: __ZNSt3__16vectorIN5boost6detail12adj_list_genINS1_14adjacency_listINS1_4vecSES5_NS1_9directedSENS1_11no_propertyES7_S7_NS1_5listSEEES5_S5_S6_S7_S7_S7_S8_E6config13stored_vertexENS_9allocatorISC_EEE7__clearB8ne180100Ev, symObjAddr: 0x2E14, symBinAddr: 0x100006134, symSize: 0x28 }
  - { offset: 0x35687, size: 0x8, addend: 0x0, symName: __ZNKSt3__16vectorIN5boost6detail12adj_list_genINS1_14adjacency_listINS1_4vecSES5_NS1_9directedSENS1_11no_propertyES7_S7_NS1_5listSEEES5_S5_S6_S7_S7_S7_S8_E6config13stored_vertexENS_9allocatorISC_EEE17__annotate_deleteB8ne180100Ev, symObjAddr: 0x2E3C, symBinAddr: 0x10000615C, symSize: 0x10 }
  - { offset: 0x356AD, size: 0x8, addend: 0x0, symName: __ZNSt3__116allocator_traitsINS_9allocatorIN5boost6detail12adj_list_genINS2_14adjacency_listINS2_4vecSES6_NS2_9directedSENS2_11no_propertyES8_S8_NS2_5listSEEES6_S6_S7_S8_S8_S8_S9_E6config13stored_vertexEEEE10deallocateB8ne180100ERSE_PSD_m, symObjAddr: 0x2E4C, symBinAddr: 0x10000616C, symSize: 0x34 }
  - { offset: 0x356EF, size: 0x8, addend: 0x0, symName: __ZNSt3__16vectorIN5boost6detail12adj_list_genINS1_14adjacency_listINS1_4vecSES5_NS1_9directedSENS1_11no_propertyES7_S7_NS1_5listSEEES5_S5_S6_S7_S7_S7_S8_E6config13stored_vertexENS_9allocatorISC_EEE7__allocB8ne180100Ev, symObjAddr: 0x2E80, symBinAddr: 0x1000061A0, symSize: 0x28 }
  - { offset: 0x35715, size: 0x8, addend: 0x0, symName: __ZNKSt3__16vectorIN5boost6detail12adj_list_genINS1_14adjacency_listINS1_4vecSES5_NS1_9directedSENS1_11no_propertyES7_S7_NS1_5listSEEES5_S5_S6_S7_S7_S7_S8_E6config13stored_vertexENS_9allocatorISC_EEE8capacityB8ne180100Ev, symObjAddr: 0x2EA8, symBinAddr: 0x1000061C8, symSize: 0x40 }
  - { offset: 0x3573B, size: 0x8, addend: 0x0, symName: __ZNSt3__16vectorIN5boost6detail12adj_list_genINS1_14adjacency_listINS1_4vecSES5_NS1_9directedSENS1_11no_propertyES7_S7_NS1_5listSEEES5_S5_S6_S7_S7_S7_S8_E6config13stored_vertexENS_9allocatorISC_EEE22__base_destruct_at_endB8ne180100EPSC_, symObjAddr: 0x2EE8, symBinAddr: 0x100006208, symSize: 0x8C }
  - { offset: 0x3577F, size: 0x8, addend: 0x0, symName: __ZNSt3__116allocator_traitsINS_9allocatorIN5boost6detail12adj_list_genINS2_14adjacency_listINS2_4vecSES6_NS2_9directedSENS2_11no_propertyES8_S8_NS2_5listSEEES6_S6_S7_S8_S8_S8_S9_E6config13stored_vertexEEEE7destroyB8ne180100ISD_vEEvRSE_PT_, symObjAddr: 0x2F74, symBinAddr: 0x100006294, symSize: 0x2C }
  - { offset: 0x357BC, size: 0x8, addend: 0x0, symName: __ZNSt3__19allocatorIN5boost6detail12adj_list_genINS1_14adjacency_listINS1_4vecSES5_NS1_9directedSENS1_11no_propertyES7_S7_NS1_5listSEEES5_S5_S6_S7_S7_S7_S8_E6config13stored_vertexEE7destroyB8ne180100EPSC_, symObjAddr: 0x2FB4, symBinAddr: 0x1000062D4, symSize: 0x28 }
  - { offset: 0x357F0, size: 0x8, addend: 0x0, symName: __ZN5boost6detail12adj_list_genINS_14adjacency_listINS_4vecSES3_NS_9directedSENS_11no_propertyES5_S5_NS_5listSEEES3_S3_S4_S5_S5_S5_S6_E6config13stored_vertexD1Ev, symObjAddr: 0x2FDC, symBinAddr: 0x1000062FC, symSize: 0x2C }
  - { offset: 0x3581D, size: 0x8, addend: 0x0, symName: __ZN5boost6detail12adj_list_genINS_14adjacency_listINS_4vecSES3_NS_9directedSENS_11no_propertyES5_S5_NS_5listSEEES3_S3_S4_S5_S5_S5_S6_E6config13stored_vertexD2Ev, symObjAddr: 0x3008, symBinAddr: 0x100006328, symSize: 0x2C }
  - { offset: 0x3584A, size: 0x8, addend: 0x0, symName: __ZN5boost6detail12adj_list_genINS_14adjacency_listINS_4vecSES3_NS_9directedSENS_11no_propertyES5_S5_NS_5listSEEES3_S3_S4_S5_S5_S5_S6_E6config18rand_stored_vertexD2Ev, symObjAddr: 0x3034, symBinAddr: 0x100006354, symSize: 0x2C }
  - { offset: 0x35877, size: 0x8, addend: 0x0, symName: __ZNSt3__16vectorIN5boost6detail20stored_edge_propertyImNS1_11no_propertyEEENS_9allocatorIS5_EEED1B8ne180100Ev, symObjAddr: 0x3060, symBinAddr: 0x100006380, symSize: 0x2C }
  - { offset: 0x358A1, size: 0x8, addend: 0x0, symName: __ZNSt3__16vectorIN5boost6detail20stored_edge_propertyImNS1_11no_propertyEEENS_9allocatorIS5_EEED2B8ne180100Ev, symObjAddr: 0x308C, symBinAddr: 0x1000063AC, symSize: 0x44 }
  - { offset: 0x358CB, size: 0x8, addend: 0x0, symName: __ZNSt3__16vectorIN5boost6detail20stored_edge_propertyImNS1_11no_propertyEEENS_9allocatorIS5_EEE16__destroy_vectorC1B8ne180100ERS8_, symObjAddr: 0x30D0, symBinAddr: 0x1000063F0, symSize: 0x34 }
  - { offset: 0x35904, size: 0x8, addend: 0x0, symName: __ZNSt3__16vectorIN5boost6detail20stored_edge_propertyImNS1_11no_propertyEEENS_9allocatorIS5_EEE16__destroy_vectorclB8ne180100Ev, symObjAddr: 0x3104, symBinAddr: 0x100006424, symSize: 0x90 }
  - { offset: 0x3592A, size: 0x8, addend: 0x0, symName: __ZNSt3__16vectorIN5boost6detail20stored_edge_propertyImNS1_11no_propertyEEENS_9allocatorIS5_EEE16__destroy_vectorC2B8ne180100ERS8_, symObjAddr: 0x3194, symBinAddr: 0x1000064B4, symSize: 0x20 }
  - { offset: 0x35963, size: 0x8, addend: 0x0, symName: __ZNSt3__16vectorIN5boost6detail20stored_edge_propertyImNS1_11no_propertyEEENS_9allocatorIS5_EEE7__clearB8ne180100Ev, symObjAddr: 0x31B4, symBinAddr: 0x1000064D4, symSize: 0x28 }
  - { offset: 0x35989, size: 0x8, addend: 0x0, symName: __ZNKSt3__16vectorIN5boost6detail20stored_edge_propertyImNS1_11no_propertyEEENS_9allocatorIS5_EEE17__annotate_deleteB8ne180100Ev, symObjAddr: 0x31DC, symBinAddr: 0x1000064FC, symSize: 0x10 }
  - { offset: 0x359AF, size: 0x8, addend: 0x0, symName: __ZNSt3__116allocator_traitsINS_9allocatorIN5boost6detail20stored_edge_propertyImNS2_11no_propertyEEEEEE10deallocateB8ne180100ERS7_PS6_m, symObjAddr: 0x31EC, symBinAddr: 0x10000650C, symSize: 0x34 }
  - { offset: 0x359F1, size: 0x8, addend: 0x0, symName: __ZNSt3__16vectorIN5boost6detail20stored_edge_propertyImNS1_11no_propertyEEENS_9allocatorIS5_EEE7__allocB8ne180100Ev, symObjAddr: 0x3220, symBinAddr: 0x100006540, symSize: 0x28 }
  - { offset: 0x35A17, size: 0x8, addend: 0x0, symName: __ZNKSt3__16vectorIN5boost6detail20stored_edge_propertyImNS1_11no_propertyEEENS_9allocatorIS5_EEE8capacityB8ne180100Ev, symObjAddr: 0x3248, symBinAddr: 0x100006568, symSize: 0x40 }
  - { offset: 0x35A3D, size: 0x8, addend: 0x0, symName: __ZNSt3__16vectorIN5boost6detail20stored_edge_propertyImNS1_11no_propertyEEENS_9allocatorIS5_EEE22__base_destruct_at_endB8ne180100EPS5_, symObjAddr: 0x3288, symBinAddr: 0x1000065A8, symSize: 0x8C }
  - { offset: 0x35A81, size: 0x8, addend: 0x0, symName: __ZNSt3__116allocator_traitsINS_9allocatorIN5boost6detail20stored_edge_propertyImNS2_11no_propertyEEEEEE7destroyB8ne180100IS6_vEEvRS7_PT_, symObjAddr: 0x3314, symBinAddr: 0x100006634, symSize: 0x2C }
  - { offset: 0x35ABE, size: 0x8, addend: 0x0, symName: __ZNSt3__19allocatorIN5boost6detail20stored_edge_propertyImNS1_11no_propertyEEEE7destroyB8ne180100EPS5_, symObjAddr: 0x3354, symBinAddr: 0x100006674, symSize: 0x28 }
  - { offset: 0x35AF2, size: 0x8, addend: 0x0, symName: __ZN5boost6detail20stored_edge_propertyImNS_11no_propertyEED1Ev, symObjAddr: 0x337C, symBinAddr: 0x10000669C, symSize: 0x2C }
  - { offset: 0x35B1F, size: 0x8, addend: 0x0, symName: __ZN5boost6detail20stored_edge_propertyImNS_11no_propertyEED2Ev, symObjAddr: 0x33A8, symBinAddr: 0x1000066C8, symSize: 0x30 }
  - { offset: 0x35B4C, size: 0x8, addend: 0x0, symName: __ZNSt3__110unique_ptrIN5boost11no_propertyENS_14default_deleteIS2_EEED1B8ne180100Ev, symObjAddr: 0x33D8, symBinAddr: 0x1000066F8, symSize: 0x2C }
  - { offset: 0x35B76, size: 0x8, addend: 0x0, symName: __ZNSt3__110unique_ptrIN5boost11no_propertyENS_14default_deleteIS2_EEED2B8ne180100Ev, symObjAddr: 0x3404, symBinAddr: 0x100006724, symSize: 0x30 }
  - { offset: 0x35BA0, size: 0x8, addend: 0x0, symName: __ZNSt3__110unique_ptrIN5boost11no_propertyENS_14default_deleteIS2_EEE5resetB8ne180100EPS2_, symObjAddr: 0x3434, symBinAddr: 0x100006754, symSize: 0x78 }
  - { offset: 0x35BE4, size: 0x8, addend: 0x0, symName: __ZNSt3__117__compressed_pairIPN5boost11no_propertyENS_14default_deleteIS2_EEE5firstB8ne180100Ev, symObjAddr: 0x34AC, symBinAddr: 0x1000067CC, symSize: 0x24 }
  - { offset: 0x35C0A, size: 0x8, addend: 0x0, symName: __ZNSt3__117__compressed_pairIPN5boost11no_propertyENS_14default_deleteIS2_EEE6secondB8ne180100Ev, symObjAddr: 0x34D0, symBinAddr: 0x1000067F0, symSize: 0x24 }
  - { offset: 0x35C30, size: 0x8, addend: 0x0, symName: __ZNKSt3__114default_deleteIN5boost11no_propertyEEclB8ne180100EPS2_, symObjAddr: 0x34F4, symBinAddr: 0x100006814, symSize: 0x44 }
  - { offset: 0x35C64, size: 0x8, addend: 0x0, symName: __ZNSt3__122__compressed_pair_elemIPN5boost11no_propertyELi0ELb0EE5__getB8ne180100Ev, symObjAddr: 0x3538, symBinAddr: 0x100006858, symSize: 0x14 }
  - { offset: 0x35C8A, size: 0x8, addend: 0x0, symName: __ZNSt3__122__compressed_pair_elemINS_14default_deleteIN5boost11no_propertyEEELi1ELb1EE5__getB8ne180100Ev, symObjAddr: 0x354C, symBinAddr: 0x10000686C, symSize: 0x14 }
  - { offset: 0x35CB0, size: 0x8, addend: 0x0, symName: __ZNSt3__19allocatorIN5boost6detail20stored_edge_propertyImNS1_11no_propertyEEEE10deallocateB8ne180100EPS5_m, symObjAddr: 0x3560, symBinAddr: 0x100006880, symSize: 0x40 }
  - { offset: 0x35CF2, size: 0x8, addend: 0x0, symName: __ZNSt3__117__compressed_pairIPN5boost6detail20stored_edge_propertyImNS1_11no_propertyEEENS_9allocatorIS5_EEE6secondB8ne180100Ev, symObjAddr: 0x35A0, symBinAddr: 0x1000068C0, symSize: 0x24 }
  - { offset: 0x35D18, size: 0x8, addend: 0x0, symName: __ZNSt3__122__compressed_pair_elemINS_9allocatorIN5boost6detail20stored_edge_propertyImNS2_11no_propertyEEEEELi1ELb1EE5__getB8ne180100Ev, symObjAddr: 0x35C4, symBinAddr: 0x1000068E4, symSize: 0x14 }
  - { offset: 0x35D3E, size: 0x8, addend: 0x0, symName: __ZNKSt3__16vectorIN5boost6detail20stored_edge_propertyImNS1_11no_propertyEEENS_9allocatorIS5_EEE9__end_capB8ne180100Ev, symObjAddr: 0x35D8, symBinAddr: 0x1000068F8, symSize: 0x28 }
  - { offset: 0x35D64, size: 0x8, addend: 0x0, symName: __ZNKSt3__117__compressed_pairIPN5boost6detail20stored_edge_propertyImNS1_11no_propertyEEENS_9allocatorIS5_EEE5firstB8ne180100Ev, symObjAddr: 0x3600, symBinAddr: 0x100006920, symSize: 0x24 }
  - { offset: 0x35D8A, size: 0x8, addend: 0x0, symName: __ZNKSt3__122__compressed_pair_elemIPN5boost6detail20stored_edge_propertyImNS1_11no_propertyEEELi0ELb0EE5__getB8ne180100Ev, symObjAddr: 0x3624, symBinAddr: 0x100006944, symSize: 0x14 }
  - { offset: 0x35DB0, size: 0x8, addend: 0x0, symName: __ZNSt3__19allocatorIN5boost6detail12adj_list_genINS1_14adjacency_listINS1_4vecSES5_NS1_9directedSENS1_11no_propertyES7_S7_NS1_5listSEEES5_S5_S6_S7_S7_S7_S8_E6config13stored_vertexEE10deallocateB8ne180100EPSC_m, symObjAddr: 0x3638, symBinAddr: 0x100006958, symSize: 0x40 }
  - { offset: 0x35DF2, size: 0x8, addend: 0x0, symName: __ZNSt3__117__compressed_pairIPN5boost6detail12adj_list_genINS1_14adjacency_listINS1_4vecSES5_NS1_9directedSENS1_11no_propertyES7_S7_NS1_5listSEEES5_S5_S6_S7_S7_S7_S8_E6config13stored_vertexENS_9allocatorISC_EEE6secondB8ne180100Ev, symObjAddr: 0x3678, symBinAddr: 0x100006998, symSize: 0x24 }
  - { offset: 0x35E18, size: 0x8, addend: 0x0, symName: __ZNSt3__122__compressed_pair_elemINS_9allocatorIN5boost6detail12adj_list_genINS2_14adjacency_listINS2_4vecSES6_NS2_9directedSENS2_11no_propertyES8_S8_NS2_5listSEEES6_S6_S7_S8_S8_S8_S9_E6config13stored_vertexEEELi1ELb1EE5__getB8ne180100Ev, symObjAddr: 0x369C, symBinAddr: 0x1000069BC, symSize: 0x14 }
  - { offset: 0x35E3E, size: 0x8, addend: 0x0, symName: __ZNKSt3__16vectorIN5boost6detail12adj_list_genINS1_14adjacency_listINS1_4vecSES5_NS1_9directedSENS1_11no_propertyES7_S7_NS1_5listSEEES5_S5_S6_S7_S7_S7_S8_E6config13stored_vertexENS_9allocatorISC_EEE9__end_capB8ne180100Ev, symObjAddr: 0x36B0, symBinAddr: 0x1000069D0, symSize: 0x28 }
  - { offset: 0x35E64, size: 0x8, addend: 0x0, symName: __ZNKSt3__117__compressed_pairIPN5boost6detail12adj_list_genINS1_14adjacency_listINS1_4vecSES5_NS1_9directedSENS1_11no_propertyES7_S7_NS1_5listSEEES5_S5_S6_S7_S7_S7_S8_E6config13stored_vertexENS_9allocatorISC_EEE5firstB8ne180100Ev, symObjAddr: 0x36D8, symBinAddr: 0x1000069F8, symSize: 0x24 }
  - { offset: 0x35E8A, size: 0x8, addend: 0x0, symName: __ZNKSt3__122__compressed_pair_elemIPN5boost6detail12adj_list_genINS1_14adjacency_listINS1_4vecSES5_NS1_9directedSENS1_11no_propertyES7_S7_NS1_5listSEEES5_S5_S6_S7_S7_S7_S8_E6config13stored_vertexELi0ELb0EE5__getB8ne180100Ev, symObjAddr: 0x36FC, symBinAddr: 0x100006A1C, symSize: 0x14 }
  - { offset: 0x35EB0, size: 0x8, addend: 0x0, symName: __ZNSt3__14listIN5boost9list_edgeImNS1_11no_propertyEEENS_9allocatorIS4_EEED2Ev, symObjAddr: 0x3710, symBinAddr: 0x100006A30, symSize: 0x2C }
  - { offset: 0x35EDD, size: 0x8, addend: 0x0, symName: __ZNSt3__110__list_impIN5boost9list_edgeImNS1_11no_propertyEEENS_9allocatorIS4_EEED2Ev, symObjAddr: 0x373C, symBinAddr: 0x100006A5C, symSize: 0x2C }
  - { offset: 0x35F09, size: 0x8, addend: 0x0, symName: __ZNSt3__110__list_impIN5boost9list_edgeImNS1_11no_propertyEEENS_9allocatorIS4_EEE5clearEv, symObjAddr: 0x3768, symBinAddr: 0x100006A88, symSize: 0xBC }
  - { offset: 0x35F6A, size: 0x8, addend: 0x0, symName: __ZNKSt3__110__list_impIN5boost9list_edgeImNS1_11no_propertyEEENS_9allocatorIS4_EEE5emptyB8ne180100Ev, symObjAddr: 0x3824, symBinAddr: 0x100006B44, symSize: 0x34 }
  - { offset: 0x35F90, size: 0x8, addend: 0x0, symName: __ZNKSt3__110__list_impIN5boost9list_edgeImNS1_11no_propertyEEENS_9allocatorIS4_EEE13__end_as_linkB8ne180100Ev, symObjAddr: 0x3858, symBinAddr: 0x100006B78, symSize: 0x44 }
  - { offset: 0x35FB6, size: 0x8, addend: 0x0, symName: __ZNSt3__110__list_impIN5boost9list_edgeImNS1_11no_propertyEEENS_9allocatorIS4_EEE14__unlink_nodesEPNS_16__list_node_baseIS4_PvEESB_, symObjAddr: 0x389C, symBinAddr: 0x100006BBC, symSize: 0x3C }
  - { offset: 0x35FEB, size: 0x8, addend: 0x0, symName: __ZNSt3__110__list_impIN5boost9list_edgeImNS1_11no_propertyEEENS_9allocatorIS4_EEE4__szB8ne180100Ev, symObjAddr: 0x38D8, symBinAddr: 0x100006BF8, symSize: 0x28 }
  - { offset: 0x36011, size: 0x8, addend: 0x0, symName: __ZNSt3__116__list_node_baseIN5boost9list_edgeImNS1_11no_propertyEEEPvE9__as_nodeB8ne180100Ev, symObjAddr: 0x3900, symBinAddr: 0x100006C20, symSize: 0x24 }
  - { offset: 0x3603D, size: 0x8, addend: 0x0, symName: __ZNSt3__110__list_impIN5boost9list_edgeImNS1_11no_propertyEEENS_9allocatorIS4_EEE13__delete_nodeB8ne180100IJEEEvPNS_11__list_nodeIS4_PvEE, symObjAddr: 0x3924, symBinAddr: 0x100006C44, symSize: 0x60 }
  - { offset: 0x36086, size: 0x8, addend: 0x0, symName: __ZNKSt3__110__list_impIN5boost9list_edgeImNS1_11no_propertyEEENS_9allocatorIS4_EEE4__szB8ne180100Ev, symObjAddr: 0x3984, symBinAddr: 0x100006CA4, symSize: 0x28 }
  - { offset: 0x360AC, size: 0x8, addend: 0x0, symName: __ZNKSt3__117__compressed_pairImNS_9allocatorINS_11__list_nodeIN5boost9list_edgeImNS3_11no_propertyEEEPvEEEEE5firstB8ne180100Ev, symObjAddr: 0x39AC, symBinAddr: 0x100006CCC, symSize: 0x24 }
  - { offset: 0x360D2, size: 0x8, addend: 0x0, symName: __ZNKSt3__122__compressed_pair_elemImLi0ELb0EE5__getB8ne180100Ev, symObjAddr: 0x39D0, symBinAddr: 0x100006CF0, symSize: 0x14 }
  - { offset: 0x360F8, size: 0x8, addend: 0x0, symName: __ZNSt3__126__list_node_pointer_traitsIN5boost9list_edgeImNS1_11no_propertyEEEPvE26__unsafe_link_pointer_castB8ne180100EPNS_16__list_node_baseIS4_S5_EE, symObjAddr: 0x39E4, symBinAddr: 0x100006D04, symSize: 0x14 }
  - { offset: 0x3611C, size: 0x8, addend: 0x0, symName: __ZNSt3__116__list_node_baseIN5boost9list_edgeImNS1_11no_propertyEEEPvE6__selfB8ne180100Ev, symObjAddr: 0x39F8, symBinAddr: 0x100006D18, symSize: 0x24 }
  - { offset: 0x36148, size: 0x8, addend: 0x0, symName: __ZNSt3__114pointer_traitsIPNS_16__list_node_baseIN5boost9list_edgeImNS2_11no_propertyEEEPvEEE10pointer_toB8ne180100ERS7_, symObjAddr: 0x3A1C, symBinAddr: 0x100006D3C, symSize: 0x14 }
  - { offset: 0x3616B, size: 0x8, addend: 0x0, symName: __ZNSt3__117__compressed_pairImNS_9allocatorINS_11__list_nodeIN5boost9list_edgeImNS3_11no_propertyEEEPvEEEEE5firstB8ne180100Ev, symObjAddr: 0x3A30, symBinAddr: 0x100006D50, symSize: 0x24 }
  - { offset: 0x36191, size: 0x8, addend: 0x0, symName: __ZNSt3__122__compressed_pair_elemImLi0ELb0EE5__getB8ne180100Ev, symObjAddr: 0x3A54, symBinAddr: 0x100006D74, symSize: 0x14 }
  - { offset: 0x361B7, size: 0x8, addend: 0x0, symName: __ZNSt3__110__list_impIN5boost9list_edgeImNS1_11no_propertyEEENS_9allocatorIS4_EEE12__node_allocB8ne180100Ev, symObjAddr: 0x3A68, symBinAddr: 0x100006D88, symSize: 0x28 }
  - { offset: 0x361DD, size: 0x8, addend: 0x0, symName: __ZNSt3__116allocator_traitsINS_9allocatorINS_11__list_nodeIN5boost9list_edgeImNS3_11no_propertyEEEPvEEEEE7destroyB8ne180100IS6_vvEEvRS9_PT_, symObjAddr: 0x3A90, symBinAddr: 0x100006DB0, symSize: 0x28 }
  - { offset: 0x36218, size: 0x8, addend: 0x0, symName: __ZNSt3__111__list_nodeIN5boost9list_edgeImNS1_11no_propertyEEEPvE11__get_valueB8ne180100Ev, symObjAddr: 0x3AB8, symBinAddr: 0x100006DD8, symSize: 0x18 }
  - { offset: 0x3623E, size: 0x8, addend: 0x0, symName: __ZNSt3__116allocator_traitsINS_9allocatorINS_11__list_nodeIN5boost9list_edgeImNS3_11no_propertyEEEPvEEEEE10deallocateB8ne180100ERS9_PS8_m, symObjAddr: 0x3AF4, symBinAddr: 0x100006E14, symSize: 0x34 }
  - { offset: 0x36280, size: 0x8, addend: 0x0, symName: __ZNSt3__117__compressed_pairImNS_9allocatorINS_11__list_nodeIN5boost9list_edgeImNS3_11no_propertyEEEPvEEEEE6secondB8ne180100Ev, symObjAddr: 0x3B28, symBinAddr: 0x100006E48, symSize: 0x24 }
  - { offset: 0x362A6, size: 0x8, addend: 0x0, symName: __ZNSt3__122__compressed_pair_elemINS_9allocatorINS_11__list_nodeIN5boost9list_edgeImNS3_11no_propertyEEEPvEEEELi1ELb1EE5__getB8ne180100Ev, symObjAddr: 0x3B4C, symBinAddr: 0x100006E6C, symSize: 0x14 }
  - { offset: 0x362CC, size: 0x8, addend: 0x0, symName: __ZNSt3__111__list_nodeIN5boost9list_edgeImNS1_11no_propertyEEEPvED1B8ne180100Ev, symObjAddr: 0x3B70, symBinAddr: 0x100006E90, symSize: 0x2C }
  - { offset: 0x362F6, size: 0x8, addend: 0x0, symName: __ZNSt3__111__list_nodeIN5boost9list_edgeImNS1_11no_propertyEEEPvED2B8ne180100Ev, symObjAddr: 0x3B9C, symBinAddr: 0x100006EBC, symSize: 0x14 }
  - { offset: 0x36320, size: 0x8, addend: 0x0, symName: __ZNSt3__19allocatorINS_11__list_nodeIN5boost9list_edgeImNS2_11no_propertyEEEPvEEE10deallocateB8ne180100EPS7_m, symObjAddr: 0x3BB0, symBinAddr: 0x100006ED0, symSize: 0x44 }
  - { offset: 0x36362, size: 0x8, addend: 0x0, symName: __ZNSt3__114basic_ifstreamIcNS_11char_traitsIcEEED2Ev, symObjAddr: 0x3BF4, symBinAddr: 0x100006F14, symSize: 0x64 }
  - { offset: 0x3639C, size: 0x8, addend: 0x0, symName: __ZTv0_n24_NSt3__114basic_ifstreamIcNS_11char_traitsIcEEED1Ev, symObjAddr: 0x3C58, symBinAddr: 0x100006F78, symSize: 0x28 }
  - { offset: 0x363B3, size: 0x8, addend: 0x0, symName: __ZNKSt3__112basic_stringIcNS_11char_traitsIcEENS_9allocatorIcEEE4dataB8ne180100Ev, symObjAddr: 0x3C80, symBinAddr: 0x100006FA0, symSize: 0x28 }
  - { offset: 0x363D9, size: 0x8, addend: 0x0, symName: __ZNKSt3__112basic_stringIcNS_11char_traitsIcEENS_9allocatorIcEEE13__get_pointerB8ne180100Ev, symObjAddr: 0x3CBC, symBinAddr: 0x100006FDC, symSize: 0x54 }
  - { offset: 0x363FF, size: 0x8, addend: 0x0, symName: __ZNKSt3__112basic_stringIcNS_11char_traitsIcEENS_9allocatorIcEEE9__is_longB8ne180100Ev, symObjAddr: 0x3D10, symBinAddr: 0x100007030, symSize: 0x38 }
  - { offset: 0x36425, size: 0x8, addend: 0x0, symName: __ZNKSt3__112basic_stringIcNS_11char_traitsIcEENS_9allocatorIcEEE18__get_long_pointerB8ne180100Ev, symObjAddr: 0x3D48, symBinAddr: 0x100007068, symSize: 0x28 }
  - { offset: 0x3644B, size: 0x8, addend: 0x0, symName: __ZNKSt3__112basic_stringIcNS_11char_traitsIcEENS_9allocatorIcEEE19__get_short_pointerB8ne180100Ev, symObjAddr: 0x3D70, symBinAddr: 0x100007090, symSize: 0x28 }
  - { offset: 0x36471, size: 0x8, addend: 0x0, symName: __ZNKSt3__117__compressed_pairINS_12basic_stringIcNS_11char_traitsIcEENS_9allocatorIcEEE5__repES5_E5firstB8ne180100Ev, symObjAddr: 0x3D98, symBinAddr: 0x1000070B8, symSize: 0x24 }
  - { offset: 0x36497, size: 0x8, addend: 0x0, symName: __ZNKSt3__122__compressed_pair_elemINS_12basic_stringIcNS_11char_traitsIcEENS_9allocatorIcEEE5__repELi0ELb0EE5__getB8ne180100Ev, symObjAddr: 0x3DBC, symBinAddr: 0x1000070DC, symSize: 0x14 }
  - { offset: 0x364BD, size: 0x8, addend: 0x0, symName: __ZNSt3__114pointer_traitsIPKcE10pointer_toB8ne180100ERS1_, symObjAddr: 0x3DD0, symBinAddr: 0x1000070F0, symSize: 0x14 }
  - { offset: 0x364E0, size: 0x8, addend: 0x0, symName: __ZNSt3__112basic_stringIcNS_11char_traitsIcEENS_9allocatorIcEEEC2B8ne180100ILi0EEEPKc, symObjAddr: 0x3DE4, symBinAddr: 0x100007104, symSize: 0x58 }
  - { offset: 0x36525, size: 0x8, addend: 0x0, symName: __ZNSt3__117__compressed_pairINS_12basic_stringIcNS_11char_traitsIcEENS_9allocatorIcEEE5__repES5_EC1B8ne180100INS_18__default_init_tagESA_EEOT_OT0_, symObjAddr: 0x3E3C, symBinAddr: 0x10000715C, symSize: 0x3C }
  - { offset: 0x3657D, size: 0x8, addend: 0x0, symName: __ZNSt3__111char_traitsIcE6lengthB8ne180100EPKc, symObjAddr: 0x3E78, symBinAddr: 0x100007198, symSize: 0x34 }
  - { offset: 0x365A0, size: 0x8, addend: 0x0, symName: __ZNSt3__117__compressed_pairINS_12basic_stringIcNS_11char_traitsIcEENS_9allocatorIcEEE5__repES5_EC2B8ne180100INS_18__default_init_tagESA_EEOT_OT0_, symObjAddr: 0x3EAC, symBinAddr: 0x1000071CC, symSize: 0x3C }
  - { offset: 0x365F8, size: 0x8, addend: 0x0, symName: __ZNSt3__122__compressed_pair_elemINS_12basic_stringIcNS_11char_traitsIcEENS_9allocatorIcEEE5__repELi0ELb0EEC2B8ne180100ENS_18__default_init_tagE, symObjAddr: 0x3EE8, symBinAddr: 0x100007208, symSize: 0x14 }
  - { offset: 0x3662C, size: 0x8, addend: 0x0, symName: __ZNSt3__122__compressed_pair_elemINS_9allocatorIcEELi1ELb1EEC2B8ne180100ENS_18__default_init_tagE, symObjAddr: 0x3EFC, symBinAddr: 0x10000721C, symSize: 0x2C }
  - { offset: 0x36660, size: 0x8, addend: 0x0, symName: __ZNSt3__19allocatorIcEC2B8ne180100Ev, symObjAddr: 0x3F28, symBinAddr: 0x100007248, symSize: 0x2C }
  - { offset: 0x3668A, size: 0x8, addend: 0x0, symName: __ZNSt3__116__non_trivial_ifILb1ENS_9allocatorIcEEEC2B8ne180100Ev, symObjAddr: 0x3F54, symBinAddr: 0x100007274, symSize: 0x14 }
  - { offset: 0x366D7, size: 0x8, addend: 0x0, symName: __ZNKSt3__113basic_ostreamIcNS_11char_traitsIcEEE6sentrycvbB8ne180100Ev, symObjAddr: 0x4178, symBinAddr: 0x100007498, symSize: 0x1C }
  - { offset: 0x366FD, size: 0x8, addend: 0x0, symName: __ZNSt3__119ostreambuf_iteratorIcNS_11char_traitsIcEEEC1B8ne180100ERNS_13basic_ostreamIcS2_EE, symObjAddr: 0x43D4, symBinAddr: 0x1000076F4, symSize: 0x34 }
  - { offset: 0x36735, size: 0x8, addend: 0x0, symName: __ZNKSt3__18ios_base5flagsB8ne180100Ev, symObjAddr: 0x4408, symBinAddr: 0x100007728, symSize: 0x18 }
  - { offset: 0x3675D, size: 0x8, addend: 0x0, symName: __ZNKSt3__19basic_iosIcNS_11char_traitsIcEEE4fillB8ne180100Ev, symObjAddr: 0x4420, symBinAddr: 0x100007740, symSize: 0x64 }
  - { offset: 0x36785, size: 0x8, addend: 0x0, symName: __ZNKSt3__119ostreambuf_iteratorIcNS_11char_traitsIcEEE6failedB8ne180100Ev, symObjAddr: 0x4484, symBinAddr: 0x1000077A4, symSize: 0x24 }
  - { offset: 0x367AB, size: 0x8, addend: 0x0, symName: __ZNSt3__19basic_iosIcNS_11char_traitsIcEEE8setstateB8ne180100Ej, symObjAddr: 0x44A8, symBinAddr: 0x1000077C8, symSize: 0x2C }
  - { offset: 0x367E0, size: 0x8, addend: 0x0, symName: __ZNKSt3__18ios_base5widthB8ne180100Ev, symObjAddr: 0x44D4, symBinAddr: 0x1000077F4, symSize: 0x18 }
  - { offset: 0x36808, size: 0x8, addend: 0x0, symName: __ZNSt3__115basic_streambufIcNS_11char_traitsIcEEE5sputnB8ne180100EPKcl, symObjAddr: 0x44EC, symBinAddr: 0x10000780C, symSize: 0x3C }
  - { offset: 0x3684A, size: 0x8, addend: 0x0, symName: __ZNSt3__112basic_stringIcNS_11char_traitsIcEENS_9allocatorIcEEEC1B8ne180100Emc, symObjAddr: 0x4528, symBinAddr: 0x100007848, symSize: 0x3C }
  - { offset: 0x36892, size: 0x8, addend: 0x0, symName: __ZNSt3__112basic_stringIcNS_11char_traitsIcEENS_9allocatorIcEEE4dataB8ne180100Ev, symObjAddr: 0x4564, symBinAddr: 0x100007884, symSize: 0x28 }
  - { offset: 0x368B8, size: 0x8, addend: 0x0, symName: __ZNSt3__18ios_base5widthB8ne180100El, symObjAddr: 0x458C, symBinAddr: 0x1000078AC, symSize: 0x2C }
  - { offset: 0x368FE, size: 0x8, addend: 0x0, symName: __ZNSt3__112basic_stringIcNS_11char_traitsIcEENS_9allocatorIcEEEC2B8ne180100Emc, symObjAddr: 0x45B8, symBinAddr: 0x1000078D8, symSize: 0x4C }
  - { offset: 0x36946, size: 0x8, addend: 0x0, symName: __ZNSt3__112basic_stringIcNS_11char_traitsIcEENS_9allocatorIcEEE13__get_pointerB8ne180100Ev, symObjAddr: 0x4618, symBinAddr: 0x100007938, symSize: 0x54 }
  - { offset: 0x3696C, size: 0x8, addend: 0x0, symName: __ZNSt3__112basic_stringIcNS_11char_traitsIcEENS_9allocatorIcEEE18__get_long_pointerB8ne180100Ev, symObjAddr: 0x466C, symBinAddr: 0x10000798C, symSize: 0x28 }
  - { offset: 0x36992, size: 0x8, addend: 0x0, symName: __ZNSt3__112basic_stringIcNS_11char_traitsIcEENS_9allocatorIcEEE19__get_short_pointerB8ne180100Ev, symObjAddr: 0x4694, symBinAddr: 0x1000079B4, symSize: 0x28 }
  - { offset: 0x369B8, size: 0x8, addend: 0x0, symName: __ZNSt3__117__compressed_pairINS_12basic_stringIcNS_11char_traitsIcEENS_9allocatorIcEEE5__repES5_E5firstB8ne180100Ev, symObjAddr: 0x46BC, symBinAddr: 0x1000079DC, symSize: 0x24 }
  - { offset: 0x369DE, size: 0x8, addend: 0x0, symName: __ZNSt3__122__compressed_pair_elemINS_12basic_stringIcNS_11char_traitsIcEENS_9allocatorIcEEE5__repELi0ELb0EE5__getB8ne180100Ev, symObjAddr: 0x46E0, symBinAddr: 0x100007A00, symSize: 0x14 }
  - { offset: 0x36A04, size: 0x8, addend: 0x0, symName: __ZNSt3__114pointer_traitsIPcE10pointer_toB8ne180100ERc, symObjAddr: 0x46F4, symBinAddr: 0x100007A14, symSize: 0x14 }
  - { offset: 0x36A27, size: 0x8, addend: 0x0, symName: __ZNSt3__119ostreambuf_iteratorIcNS_11char_traitsIcEEEC2B8ne180100ERNS_13basic_ostreamIcS2_EE, symObjAddr: 0x4708, symBinAddr: 0x100007A28, symSize: 0x54 }
  - { offset: 0x36A5F, size: 0x8, addend: 0x0, symName: __ZNKSt3__19basic_iosIcNS_11char_traitsIcEEE5rdbufB8ne180100Ev, symObjAddr: 0x475C, symBinAddr: 0x100007A7C, symSize: 0x24 }
  - { offset: 0x36A87, size: 0x8, addend: 0x0, symName: __ZNKSt3__18ios_base5rdbufB8ne180100Ev, symObjAddr: 0x4780, symBinAddr: 0x100007AA0, symSize: 0x18 }
  - { offset: 0x36AAD, size: 0x8, addend: 0x0, symName: __ZNSt3__111char_traitsIcE11eq_int_typeB8ne180100Eii, symObjAddr: 0x4798, symBinAddr: 0x100007AB8, symSize: 0x28 }
  - { offset: 0x36AE0, size: 0x8, addend: 0x0, symName: __ZNSt3__111char_traitsIcE3eofB8ne180100Ev, symObjAddr: 0x47C0, symBinAddr: 0x100007AE0, symSize: 0x8 }
  - { offset: 0x36AF4, size: 0x8, addend: 0x0, symName: __ZNKSt3__19basic_iosIcNS_11char_traitsIcEEE5widenB8ne180100Ec, symObjAddr: 0x47C8, symBinAddr: 0x100007AE8, symSize: 0x84 }
  - { offset: 0x36B74, size: 0x8, addend: 0x0, symName: __ZNKSt3__15ctypeIcE5widenB8ne180100Ec, symObjAddr: 0x4878, symBinAddr: 0x100007B98, symSize: 0x38 }
  - { offset: 0x36BA9, size: 0x8, addend: 0x0, symName: __ZNSt3__18ios_base8setstateB8ne180100Ej, symObjAddr: 0x48B0, symBinAddr: 0x100007BD0, symSize: 0x34 }
  - { offset: 0x36BE0, size: 0x8, addend: 0x0, symName: __ZNKSt3__112basic_stringIcNS_11char_traitsIcEENS_9allocatorIcEEE4sizeB8ne180100Ev, symObjAddr: 0x48E4, symBinAddr: 0x100007C04, symSize: 0x54 }
  - { offset: 0x36C06, size: 0x8, addend: 0x0, symName: __ZNKSt3__112basic_stringIcNS_11char_traitsIcEENS_9allocatorIcEEE15__get_long_sizeB8ne180100Ev, symObjAddr: 0x4938, symBinAddr: 0x100007C58, symSize: 0x28 }
  - { offset: 0x36C2C, size: 0x8, addend: 0x0, symName: __ZNKSt3__112basic_stringIcNS_11char_traitsIcEENS_9allocatorIcEEE16__get_short_sizeB8ne180100Ev, symObjAddr: 0x4960, symBinAddr: 0x100007C80, symSize: 0x34 }
  - { offset: 0x36C52, size: 0x8, addend: 0x0, symName: __ZNSt3__19basic_iosIcNS_11char_traitsIcEEEC2B8ne180100Ev, symObjAddr: 0x4994, symBinAddr: 0x100007CB4, symSize: 0x3C }
  - { offset: 0x36C7C, size: 0x8, addend: 0x0, symName: __ZNSt3__113basic_istreamIcNS_11char_traitsIcEEEC2B8ne180100EPNS_15basic_streambufIcS2_EE, symObjAddr: 0x49D0, symBinAddr: 0x100007CF0, symSize: 0x64 }
  - { offset: 0x36CC1, size: 0x8, addend: 0x0, symName: __ZNSt3__113basic_filebufIcNS_11char_traitsIcEEE4openERKNS_12basic_stringIcS2_NS_9allocatorIcEEEEj, symObjAddr: 0x4A34, symBinAddr: 0x100007D54, symSize: 0x44 }
  - { offset: 0x36D07, size: 0x8, addend: 0x0, symName: __ZNSt3__18ios_baseC2B8ne180100Ev, symObjAddr: 0x4A78, symBinAddr: 0x100007D98, symSize: 0x24 }
  - { offset: 0x36D31, size: 0x8, addend: 0x0, symName: __ZNSt3__19basic_iosIcNS_11char_traitsIcEEE4initB8ne180100EPNS_15basic_streambufIcS2_EE, symObjAddr: 0x4A9C, symBinAddr: 0x100007DBC, symSize: 0x44 }
  - { offset: 0x36D68, size: 0x8, addend: 0x0, symName: __ZNKSt3__19basic_iosIcNS_11char_traitsIcEEE4failB8ne180100Ev, symObjAddr: 0x4AE0, symBinAddr: 0x100007E00, symSize: 0x28 }
  - { offset: 0x36D8E, size: 0x8, addend: 0x0, symName: __ZNKSt3__18ios_base4failB8ne180100Ev, symObjAddr: 0x4B08, symBinAddr: 0x100007E28, symSize: 0x28 }
  - { offset: 0x36DB6, size: 0x8, addend: 0x0, symName: __ZN5boost14adjacency_listINS_4vecSES1_NS_9directedSENS_11no_propertyES3_S3_NS_5listSEEC2ERKS3_, symObjAddr: 0x4B30, symBinAddr: 0x100007E50, symSize: 0x74 }
  - { offset: 0x36DEF, size: 0x8, addend: 0x0, symName: __ZN5boost17vec_adj_list_implINS_14adjacency_listINS_4vecSES2_NS_9directedSENS_11no_propertyES4_S4_NS_5listSEEENS_6detail12adj_list_genIS6_S2_S2_S3_S4_S4_S4_S5_E6configENS_21directed_graph_helperISA_EEEC2Ev, symObjAddr: 0x4BA4, symBinAddr: 0x100007EC4, symSize: 0x38 }
  - { offset: 0x36E19, size: 0x8, addend: 0x0, symName: __ZN5boost10scoped_ptrINS_11no_propertyEEC1EPS1_, symObjAddr: 0x4BDC, symBinAddr: 0x100007EFC, symSize: 0x34 }
  - { offset: 0x36E51, size: 0x8, addend: 0x0, symName: __ZNSt3__14listIN5boost9list_edgeImNS1_11no_propertyEEENS_9allocatorIS4_EEEC1B8ne180100Ev, symObjAddr: 0x4C10, symBinAddr: 0x100007F30, symSize: 0x2C }
  - { offset: 0x36E7B, size: 0x8, addend: 0x0, symName: __ZNSt3__16vectorIN5boost6detail12adj_list_genINS1_14adjacency_listINS1_4vecSES5_NS1_9directedSENS1_11no_propertyES7_S7_NS1_5listSEEES5_S5_S6_S7_S7_S7_S8_E6config13stored_vertexENS_9allocatorISC_EEEC1B8ne180100Ev, symObjAddr: 0x4C3C, symBinAddr: 0x100007F5C, symSize: 0x2C }
  - { offset: 0x36EA5, size: 0x8, addend: 0x0, symName: __ZNSt3__14listIN5boost9list_edgeImNS1_11no_propertyEEENS_9allocatorIS4_EEEC2B8ne180100Ev, symObjAddr: 0x4C68, symBinAddr: 0x100007F88, symSize: 0x2C }
  - { offset: 0x36ECF, size: 0x8, addend: 0x0, symName: __ZNSt3__110__list_impIN5boost9list_edgeImNS1_11no_propertyEEENS_9allocatorIS4_EEEC2Ev, symObjAddr: 0x4C94, symBinAddr: 0x100007FB4, symSize: 0x50 }
  - { offset: 0x36EFB, size: 0x8, addend: 0x0, symName: __ZNSt3__116__list_node_baseIN5boost9list_edgeImNS1_11no_propertyEEEPvEC1B8ne180100Ev, symObjAddr: 0x4CE4, symBinAddr: 0x100008004, symSize: 0x2C }
  - { offset: 0x36F25, size: 0x8, addend: 0x0, symName: __ZNSt3__117__compressed_pairImNS_9allocatorINS_11__list_nodeIN5boost9list_edgeImNS3_11no_propertyEEEPvEEEEEC1B8ne180100IiNS_18__default_init_tagEEEOT_OT0_, symObjAddr: 0x4D10, symBinAddr: 0x100008030, symSize: 0x3C }
  - { offset: 0x36F7D, size: 0x8, addend: 0x0, symName: __ZNSt3__116__list_node_baseIN5boost9list_edgeImNS1_11no_propertyEEEPvEC2B8ne180100Ev, symObjAddr: 0x4D4C, symBinAddr: 0x10000806C, symSize: 0x4C }
  - { offset: 0x36FA7, size: 0x8, addend: 0x0, symName: __ZNSt3__117__compressed_pairImNS_9allocatorINS_11__list_nodeIN5boost9list_edgeImNS3_11no_propertyEEEPvEEEEEC2B8ne180100IiNS_18__default_init_tagEEEOT_OT0_, symObjAddr: 0x4D98, symBinAddr: 0x1000080B8, symSize: 0x40 }
  - { offset: 0x36FFF, size: 0x8, addend: 0x0, symName: __ZNSt3__122__compressed_pair_elemINS_9allocatorINS_11__list_nodeIN5boost9list_edgeImNS3_11no_propertyEEEPvEEEELi1ELb1EEC2B8ne180100ENS_18__default_init_tagE, symObjAddr: 0x4DD8, symBinAddr: 0x1000080F8, symSize: 0x2C }
  - { offset: 0x37033, size: 0x8, addend: 0x0, symName: __ZNSt3__19allocatorINS_11__list_nodeIN5boost9list_edgeImNS2_11no_propertyEEEPvEEEC2B8ne180100Ev, symObjAddr: 0x4E04, symBinAddr: 0x100008124, symSize: 0x2C }
  - { offset: 0x3705D, size: 0x8, addend: 0x0, symName: __ZNSt3__116__non_trivial_ifILb1ENS_9allocatorINS_11__list_nodeIN5boost9list_edgeImNS3_11no_propertyEEEPvEEEEEC2B8ne180100Ev, symObjAddr: 0x4E30, symBinAddr: 0x100008150, symSize: 0x14 }
  - { offset: 0x37087, size: 0x8, addend: 0x0, symName: __ZNSt3__16vectorIN5boost6detail12adj_list_genINS1_14adjacency_listINS1_4vecSES5_NS1_9directedSENS1_11no_propertyES7_S7_NS1_5listSEEES5_S5_S6_S7_S7_S7_S8_E6config13stored_vertexENS_9allocatorISC_EEEC2B8ne180100Ev, symObjAddr: 0x4E44, symBinAddr: 0x100008164, symSize: 0x4C }
  - { offset: 0x370B7, size: 0x8, addend: 0x0, symName: __ZNSt3__117__compressed_pairIPN5boost6detail12adj_list_genINS1_14adjacency_listINS1_4vecSES5_NS1_9directedSENS1_11no_propertyES7_S7_NS1_5listSEEES5_S5_S6_S7_S7_S7_S8_E6config13stored_vertexENS_9allocatorISC_EEEC1B8ne180100IDnNS_18__default_init_tagEEEOT_OT0_, symObjAddr: 0x4E90, symBinAddr: 0x1000081B0, symSize: 0x3C }
  - { offset: 0x3710F, size: 0x8, addend: 0x0, symName: __ZNSt3__117__compressed_pairIPN5boost6detail12adj_list_genINS1_14adjacency_listINS1_4vecSES5_NS1_9directedSENS1_11no_propertyES7_S7_NS1_5listSEEES5_S5_S6_S7_S7_S7_S8_E6config13stored_vertexENS_9allocatorISC_EEEC2B8ne180100IDnNS_18__default_init_tagEEEOT_OT0_, symObjAddr: 0x4ECC, symBinAddr: 0x1000081EC, symSize: 0x40 }
  - { offset: 0x37167, size: 0x8, addend: 0x0, symName: __ZNSt3__122__compressed_pair_elemIPN5boost6detail12adj_list_genINS1_14adjacency_listINS1_4vecSES5_NS1_9directedSENS1_11no_propertyES7_S7_NS1_5listSEEES5_S5_S6_S7_S7_S7_S8_E6config13stored_vertexELi0ELb0EEC2B8ne180100IDnvEEOT_, symObjAddr: 0x4F0C, symBinAddr: 0x10000822C, symSize: 0x1C }
  - { offset: 0x371A9, size: 0x8, addend: 0x0, symName: __ZNSt3__122__compressed_pair_elemINS_9allocatorIN5boost6detail12adj_list_genINS2_14adjacency_listINS2_4vecSES6_NS2_9directedSENS2_11no_propertyES8_S8_NS2_5listSEEES6_S6_S7_S8_S8_S8_S9_E6config13stored_vertexEEELi1ELb1EEC2B8ne180100ENS_18__default_init_tagE, symObjAddr: 0x4F28, symBinAddr: 0x100008248, symSize: 0x2C }
  - { offset: 0x371DD, size: 0x8, addend: 0x0, symName: __ZNSt3__19allocatorIN5boost6detail12adj_list_genINS1_14adjacency_listINS1_4vecSES5_NS1_9directedSENS1_11no_propertyES7_S7_NS1_5listSEEES5_S5_S6_S7_S7_S7_S8_E6config13stored_vertexEEC2B8ne180100Ev, symObjAddr: 0x4F54, symBinAddr: 0x100008274, symSize: 0x2C }
  - { offset: 0x37207, size: 0x8, addend: 0x0, symName: __ZNSt3__116__non_trivial_ifILb1ENS_9allocatorIN5boost6detail12adj_list_genINS2_14adjacency_listINS2_4vecSES6_NS2_9directedSENS2_11no_propertyES8_S8_NS2_5listSEEES6_S6_S7_S8_S8_S8_S9_E6config13stored_vertexEEEEC2B8ne180100Ev, symObjAddr: 0x4F80, symBinAddr: 0x1000082A0, symSize: 0x14 }
  - { offset: 0x37231, size: 0x8, addend: 0x0, symName: __ZN5boost10scoped_ptrINS_11no_propertyEEC2EPS1_, symObjAddr: 0x4F94, symBinAddr: 0x1000082B4, symSize: 0x20 }
  - { offset: 0x37269, size: 0x8, addend: 0x0, symName: __ZN5boost26vec_adj_list_vertex_id_mapINS_11no_propertyEmEC1IPNS_14adjacency_listINS_4vecSES5_NS_9directedSES1_S1_S1_NS_5listSEEEEERKT_NS_14vertex_index_tE, symObjAddr: 0x4FEC, symBinAddr: 0x10000830C, symSize: 0x3C }
  - { offset: 0x372B4, size: 0x8, addend: 0x0, symName: __ZN5boost26vec_adj_list_vertex_id_mapINS_11no_propertyEmEC2IPNS_14adjacency_listINS_4vecSES5_NS_9directedSES1_S1_S1_NS_5listSEEEEERKT_NS_14vertex_index_tE, symObjAddr: 0x5028, symBinAddr: 0x100008348, symSize: 0x1C }
  - { offset: 0x3732E, size: 0x8, addend: 0x0, symName: __ZN5boost10shared_ptrINS_6detail28dynamic_property_map_adaptorINS_26vec_adj_list_vertex_id_mapINS_11no_propertyEmEEEEED1Ev, symObjAddr: 0x5154, symBinAddr: 0x100008474, symSize: 0x2C }
  - { offset: 0x3735A, size: 0x8, addend: 0x0, symName: __ZNSt3__18multimapINS_12basic_stringIcNS_11char_traitsIcEENS_9allocatorIcEEEEN5boost10shared_ptrINS7_20dynamic_property_mapEEENS_4lessIS6_EENS4_INS_4pairIKS6_SA_EEEEE6insertB8ne180100EOSF_, symObjAddr: 0x5180, symBinAddr: 0x1000084A0, symSize: 0x40 }
  - { offset: 0x3738F, size: 0x8, addend: 0x0, symName: __ZNSt3__14pairIKNS_12basic_stringIcNS_11char_traitsIcEENS_9allocatorIcEEEEN5boost10shared_ptrINS8_20dynamic_property_mapEEEEC1B8ne180100IRS7_RSB_Li0EEEOT_OT0_, symObjAddr: 0x51C0, symBinAddr: 0x1000084E0, symSize: 0x3C }
  - { offset: 0x373ED, size: 0x8, addend: 0x0, symName: __ZNK5boost10shared_ptrINS_6detail28dynamic_property_map_adaptorINS_26vec_adj_list_vertex_id_mapINS_11no_propertyEmEEEEE3getEv, symObjAddr: 0x51FC, symBinAddr: 0x10000851C, symSize: 0x18 }
  - { offset: 0x37413, size: 0x8, addend: 0x0, symName: __ZN5boost10shared_ptrINS_20dynamic_property_mapEEC1INS_6detail28dynamic_property_map_adaptorINS_26vec_adj_list_vertex_id_mapINS_11no_propertyEmEEEEEEONS0_IT_EEPS1_, symObjAddr: 0x5214, symBinAddr: 0x100008534, symSize: 0x3C }
  - { offset: 0x37464, size: 0x8, addend: 0x0, symName: __ZN5boost10shared_ptrINS_20dynamic_property_mapEEC2INS_6detail28dynamic_property_map_adaptorINS_26vec_adj_list_vertex_id_mapINS_11no_propertyEmEEEEEEONS0_IT_EEPS1_, symObjAddr: 0x5250, symBinAddr: 0x100008570, symSize: 0x5C }
  - { offset: 0x374B5, size: 0x8, addend: 0x0, symName: __ZN5boost6detail12shared_countC1Ev, symObjAddr: 0x52AC, symBinAddr: 0x1000085CC, symSize: 0x2C }
  - { offset: 0x374DF, size: 0x8, addend: 0x0, symName: __ZN5boost6detail12shared_count4swapERS1_, symObjAddr: 0x52D8, symBinAddr: 0x1000085F8, symSize: 0x38 }
  - { offset: 0x37523, size: 0x8, addend: 0x0, symName: __ZN5boost6detail12shared_countC2Ev, symObjAddr: 0x5310, symBinAddr: 0x100008630, symSize: 0x18 }
  - { offset: 0x3754D, size: 0x8, addend: 0x0, symName: __ZN5boost10shared_ptrINS_6detail28dynamic_property_map_adaptorINS_26vec_adj_list_vertex_id_mapINS_11no_propertyEmEEEEEC1IS6_NS1_14sp_inplace_tagINS1_13sp_ms_deleterIS6_EEEEEEPT_T0_, symObjAddr: 0x5328, symBinAddr: 0x100008648, symSize: 0x34 }
  - { offset: 0x375A7, size: 0x8, addend: 0x0, symName: __ZNK5boost10shared_ptrINS_6detail28dynamic_property_map_adaptorINS_26vec_adj_list_vertex_id_mapINS_11no_propertyEmEEEEE29_internal_get_untyped_deleterEv, symObjAddr: 0x535C, symBinAddr: 0x10000867C, symSize: 0x28 }
  - { offset: 0x375CD, size: 0x8, addend: 0x0, symName: __ZN5boost6detail13sp_ms_deleterINS0_28dynamic_property_map_adaptorINS_26vec_adj_list_vertex_id_mapINS_11no_propertyEmEEEEE7addressEv, symObjAddr: 0x5384, symBinAddr: 0x1000086A4, symSize: 0x18 }
  - { offset: 0x375F3, size: 0x8, addend: 0x0, symName: __ZN5boost6detail28dynamic_property_map_adaptorINS_26vec_adj_list_vertex_id_mapINS_11no_propertyEmEEEC1ERKS4_, symObjAddr: 0x539C, symBinAddr: 0x1000086BC, symSize: 0x34 }
  - { offset: 0x3762B, size: 0x8, addend: 0x0, symName: __ZN5boost6detail13sp_ms_deleterINS0_28dynamic_property_map_adaptorINS_26vec_adj_list_vertex_id_mapINS_11no_propertyEmEEEEE15set_initializedEv, symObjAddr: 0x53D0, symBinAddr: 0x1000086F0, symSize: 0x1C }
  - { offset: 0x37651, size: 0x8, addend: 0x0, symName: __ZN5boost10shared_ptrINS_6detail28dynamic_property_map_adaptorINS_26vec_adj_list_vertex_id_mapINS_11no_propertyEmEEEEEC1IS6_EERKNS0_IT_EEPS6_, symObjAddr: 0x53F0, symBinAddr: 0x100008710, symSize: 0x3C }
  - { offset: 0x376A2, size: 0x8, addend: 0x0, symName: __ZN5boost10shared_ptrINS_6detail28dynamic_property_map_adaptorINS_26vec_adj_list_vertex_id_mapINS_11no_propertyEmEEEEEC2IS6_NS1_14sp_inplace_tagINS1_13sp_ms_deleterIS6_EEEEEEPT_T0_, symObjAddr: 0x542C, symBinAddr: 0x10000874C, symSize: 0x74 }
  - { offset: 0x376FC, size: 0x8, addend: 0x0, symName: __ZN5boost6detail12shared_countC1IPNS0_28dynamic_property_map_adaptorINS_26vec_adj_list_vertex_id_mapINS_11no_propertyEmEEEENS0_13sp_ms_deleterIS7_EEEET_NS0_14sp_inplace_tagIT0_EE, symObjAddr: 0x54A0, symBinAddr: 0x1000087C0, symSize: 0x34 }
  - { offset: 0x37750, size: 0x8, addend: 0x0, symName: __ZN5boost6detail12shared_countC2IPNS0_28dynamic_property_map_adaptorINS_26vec_adj_list_vertex_id_mapINS_11no_propertyEmEEEENS0_13sp_ms_deleterIS7_EEEET_NS0_14sp_inplace_tagIT0_EE, symObjAddr: 0x5514, symBinAddr: 0x100008834, symSize: 0xCC }
  - { offset: 0x377C1, size: 0x8, addend: 0x0, symName: __ZN5boost6detail18sp_counted_impl_pdIPNS0_28dynamic_property_map_adaptorINS_26vec_adj_list_vertex_id_mapINS_11no_propertyEmEEEENS0_13sp_ms_deleterIS6_EEEC1ES7_, symObjAddr: 0x55E0, symBinAddr: 0x100008900, symSize: 0x34 }
  - { offset: 0x377F9, size: 0x8, addend: 0x0, symName: __ZN5boost6detail13sp_ms_deleterINS0_28dynamic_property_map_adaptorINS_26vec_adj_list_vertex_id_mapINS_11no_propertyEmEEEEE11operator_fnEPS6_, symObjAddr: 0x5614, symBinAddr: 0x100008934, symSize: 0x10 }
  - { offset: 0x37818, size: 0x8, addend: 0x0, symName: __ZN5boost6detail18sp_counted_impl_pdIPNS0_28dynamic_property_map_adaptorINS_26vec_adj_list_vertex_id_mapINS_11no_propertyEmEEEENS0_13sp_ms_deleterIS6_EEEC2ES7_, symObjAddr: 0x5624, symBinAddr: 0x100008944, symSize: 0x54 }
  - { offset: 0x37850, size: 0x8, addend: 0x0, symName: __ZN5boost6detail15sp_counted_baseC2Ev, symObjAddr: 0x5678, symBinAddr: 0x100008998, symSize: 0x30 }
  - { offset: 0x3787A, size: 0x8, addend: 0x0, symName: __ZN5boost6detail13sp_ms_deleterINS0_28dynamic_property_map_adaptorINS_26vec_adj_list_vertex_id_mapINS_11no_propertyEmEEEEEC1Ev, symObjAddr: 0x56A8, symBinAddr: 0x1000089C8, symSize: 0x2C }
  - { offset: 0x378A4, size: 0x8, addend: 0x0, symName: __ZN5boost6detail18sp_counted_impl_pdIPNS0_28dynamic_property_map_adaptorINS_26vec_adj_list_vertex_id_mapINS_11no_propertyEmEEEENS0_13sp_ms_deleterIS6_EEED1Ev, symObjAddr: 0x56D4, symBinAddr: 0x1000089F4, symSize: 0x2C }
  - { offset: 0x378D0, size: 0x8, addend: 0x0, symName: __ZN5boost6detail18sp_counted_impl_pdIPNS0_28dynamic_property_map_adaptorINS_26vec_adj_list_vertex_id_mapINS_11no_propertyEmEEEENS0_13sp_ms_deleterIS6_EEED0Ev, symObjAddr: 0x5700, symBinAddr: 0x100008A20, symSize: 0x30 }
  - { offset: 0x378FC, size: 0x8, addend: 0x0, symName: __ZN5boost6detail18sp_counted_impl_pdIPNS0_28dynamic_property_map_adaptorINS_26vec_adj_list_vertex_id_mapINS_11no_propertyEmEEEENS0_13sp_ms_deleterIS6_EEE7disposeEv, symObjAddr: 0x5730, symBinAddr: 0x100008A50, symSize: 0x2C }
  - { offset: 0x37922, size: 0x8, addend: 0x0, symName: __ZN5boost6detail15sp_counted_base7destroyEv, symObjAddr: 0x575C, symBinAddr: 0x100008A7C, symSize: 0x48 }
  - { offset: 0x37948, size: 0x8, addend: 0x0, symName: __ZN5boost6detail18sp_counted_impl_pdIPNS0_28dynamic_property_map_adaptorINS_26vec_adj_list_vertex_id_mapINS_11no_propertyEmEEEENS0_13sp_ms_deleterIS6_EEE11get_deleterERKSt9type_info, symObjAddr: 0x57A4, symBinAddr: 0x100008AC4, symSize: 0x60 }
  - { offset: 0x3797C, size: 0x8, addend: 0x0, symName: __ZN5boost6detail18sp_counted_impl_pdIPNS0_28dynamic_property_map_adaptorINS_26vec_adj_list_vertex_id_mapINS_11no_propertyEmEEEENS0_13sp_ms_deleterIS6_EEE17get_local_deleterERKSt9type_info, symObjAddr: 0x5804, symBinAddr: 0x100008B24, symSize: 0x68 }
  - { offset: 0x379B0, size: 0x8, addend: 0x0, symName: __ZN5boost6detail18sp_counted_impl_pdIPNS0_28dynamic_property_map_adaptorINS_26vec_adj_list_vertex_id_mapINS_11no_propertyEmEEEENS0_13sp_ms_deleterIS6_EEE19get_untyped_deleterEv, symObjAddr: 0x586C, symBinAddr: 0x100008B8C, symSize: 0x18 }
  - { offset: 0x379D6, size: 0x8, addend: 0x0, symName: __ZN5boost6detail15sp_counted_baseD1Ev, symObjAddr: 0x5884, symBinAddr: 0x100008BA4, symSize: 0x14 }
  - { offset: 0x37A00, size: 0x8, addend: 0x0, symName: __ZN5boost6detail15sp_counted_baseD0Ev, symObjAddr: 0x5898, symBinAddr: 0x100008BB8, symSize: 0xC }
  - { offset: 0x37A2A, size: 0x8, addend: 0x0, symName: __ZN5boost6detail13sp_ms_deleterINS0_28dynamic_property_map_adaptorINS_26vec_adj_list_vertex_id_mapINS_11no_propertyEmEEEEEC2Ev, symObjAddr: 0x58A4, symBinAddr: 0x100008BC4, symSize: 0x18 }
  - { offset: 0x37A54, size: 0x8, addend: 0x0, symName: __ZN5boost6detail18sp_counted_impl_pdIPNS0_28dynamic_property_map_adaptorINS_26vec_adj_list_vertex_id_mapINS_11no_propertyEmEEEENS0_13sp_ms_deleterIS6_EEED2Ev, symObjAddr: 0x58BC, symBinAddr: 0x100008BDC, symSize: 0x48 }
  - { offset: 0x37A80, size: 0x8, addend: 0x0, symName: __ZN5boost6detail13sp_ms_deleterINS0_28dynamic_property_map_adaptorINS_26vec_adj_list_vertex_id_mapINS_11no_propertyEmEEEEED1Ev, symObjAddr: 0x5904, symBinAddr: 0x100008C24, symSize: 0x2C }
  - { offset: 0x37AAA, size: 0x8, addend: 0x0, symName: __ZN5boost6detail15sp_counted_baseD2Ev, symObjAddr: 0x5930, symBinAddr: 0x100008C50, symSize: 0x14 }
  - { offset: 0x37AD4, size: 0x8, addend: 0x0, symName: __ZN5boost6detail13sp_ms_deleterINS0_28dynamic_property_map_adaptorINS_26vec_adj_list_vertex_id_mapINS_11no_propertyEmEEEEED2Ev, symObjAddr: 0x5944, symBinAddr: 0x100008C64, symSize: 0x2C }
  - { offset: 0x37AFE, size: 0x8, addend: 0x0, symName: __ZN5boost6detail13sp_ms_deleterINS0_28dynamic_property_map_adaptorINS_26vec_adj_list_vertex_id_mapINS_11no_propertyEmEEEEE7destroyEv, symObjAddr: 0x5970, symBinAddr: 0x100008C90, symSize: 0x58 }
  - { offset: 0x37B40, size: 0x8, addend: 0x0, symName: __ZN5boost6detail13sp_ms_deleterINS0_28dynamic_property_map_adaptorINS_26vec_adj_list_vertex_id_mapINS_11no_propertyEmEEEEEclEPS6_, symObjAddr: 0x59C8, symBinAddr: 0x100008CE8, symSize: 0x28 }
  - { offset: 0x37BA4, size: 0x8, addend: 0x0, symName: __ZNKSt9type_infoeqB8ne180100ERKS_, symObjAddr: 0x59F0, symBinAddr: 0x100008D10, symSize: 0xDC }
  - { offset: 0x37C40, size: 0x8, addend: 0x0, symName: __ZNSt27__type_info_implementations30__non_unique_arm_rtti_bit_impl21__is_type_name_uniqueB8ne180100Em, symObjAddr: 0x5ACC, symBinAddr: 0x100008DEC, symSize: 0x20 }
  - { offset: 0x37C64, size: 0x8, addend: 0x0, symName: __ZNK5boost6detail12shared_count19get_untyped_deleterEv, symObjAddr: 0x5B14, symBinAddr: 0x100008E34, symSize: 0x74 }
  - { offset: 0x37C8A, size: 0x8, addend: 0x0, symName: __ZN5boost6detail28dynamic_property_map_adaptorINS_26vec_adj_list_vertex_id_mapINS_11no_propertyEmEEEC2ERKS4_, symObjAddr: 0x5B88, symBinAddr: 0x100008EA8, symSize: 0x40 }
  - { offset: 0x37CC2, size: 0x8, addend: 0x0, symName: __ZN5boost20dynamic_property_mapC2Ev, symObjAddr: 0x5BC8, symBinAddr: 0x100008EE8, symSize: 0x24 }
  - { offset: 0x37CEE, size: 0x8, addend: 0x0, symName: __ZN5boost6detail28dynamic_property_map_adaptorINS_26vec_adj_list_vertex_id_mapINS_11no_propertyEmEEED1Ev, symObjAddr: 0x5BEC, symBinAddr: 0x100008F0C, symSize: 0x2C }
  - { offset: 0x37D1A, size: 0x8, addend: 0x0, symName: __ZN5boost6detail28dynamic_property_map_adaptorINS_26vec_adj_list_vertex_id_mapINS_11no_propertyEmEEED0Ev, symObjAddr: 0x5C18, symBinAddr: 0x100008F38, symSize: 0x30 }
  - { offset: 0x37D46, size: 0x8, addend: 0x0, symName: __ZN5boost6detail28dynamic_property_map_adaptorINS_26vec_adj_list_vertex_id_mapINS_11no_propertyEmEEE3getERKNS_3anyE, symObjAddr: 0x5C48, symBinAddr: 0x100008F68, symSize: 0x68 }
  - { offset: 0x37D7A, size: 0x8, addend: 0x0, symName: __ZN5boost6detail28dynamic_property_map_adaptorINS_26vec_adj_list_vertex_id_mapINS_11no_propertyEmEEE10get_stringERKNS_3anyE, symObjAddr: 0x5CB0, symBinAddr: 0x100008FD0, symSize: 0xCC }
  - { offset: 0x37DBD, size: 0x8, addend: 0x0, symName: __ZN5boost6detail28dynamic_property_map_adaptorINS_26vec_adj_list_vertex_id_mapINS_11no_propertyEmEEE3putERKNS_3anyES8_, symObjAddr: 0x5D7C, symBinAddr: 0x10000909C, symSize: 0x34 }
  - { offset: 0x37DFF, size: 0x8, addend: 0x0, symName: __ZNK5boost6detail28dynamic_property_map_adaptorINS_26vec_adj_list_vertex_id_mapINS_11no_propertyEmEEE3keyEv, symObjAddr: 0x5DB0, symBinAddr: 0x1000090D0, symSize: 0x18 }
  - { offset: 0x37E25, size: 0x8, addend: 0x0, symName: __ZNK5boost6detail28dynamic_property_map_adaptorINS_26vec_adj_list_vertex_id_mapINS_11no_propertyEmEEE5valueEv, symObjAddr: 0x5DC8, symBinAddr: 0x1000090E8, symSize: 0x18 }
  - { offset: 0x37E4B, size: 0x8, addend: 0x0, symName: __ZN5boost20dynamic_property_mapD1Ev, symObjAddr: 0x5DE0, symBinAddr: 0x100009100, symSize: 0x14 }
  - { offset: 0x37E75, size: 0x8, addend: 0x0, symName: __ZN5boost20dynamic_property_mapD0Ev, symObjAddr: 0x5DF4, symBinAddr: 0x100009114, symSize: 0xC }
  - { offset: 0x37E9F, size: 0x8, addend: 0x0, symName: __ZN5boost6detail28dynamic_property_map_adaptorINS_26vec_adj_list_vertex_id_mapINS_11no_propertyEmEEED2Ev, symObjAddr: 0x5E00, symBinAddr: 0x100009120, symSize: 0x2C }
  - { offset: 0x37ECB, size: 0x8, addend: 0x0, symName: __ZN5boost20dynamic_property_mapD2Ev, symObjAddr: 0x5E2C, symBinAddr: 0x10000914C, symSize: 0x14 }
  - { offset: 0x37EFB, size: 0x8, addend: 0x0, symName: __ZN5boost3anyC1ImEEOT_PNSt3__19enable_ifIXntsr3std7is_sameIRS0_S2_EE5valueEvE4typeEPNS5_IXntsr8is_constIS2_EE5valueEvE4typeE, symObjAddr: 0x5E94, symBinAddr: 0x1000091B4, symSize: 0x44 }
  - { offset: 0x37F50, size: 0x8, addend: 0x0, symName: __ZNK5boost26vec_adj_list_vertex_id_mapINS_11no_propertyEmEixEm, symObjAddr: 0x5F10, symBinAddr: 0x100009230, symSize: 0x18 }
  - { offset: 0x37F8B, size: 0x8, addend: 0x0, symName: __ZN5boost12bad_any_castC1Ev, symObjAddr: 0x6090, symBinAddr: 0x1000093B0, symSize: 0x2C }
  - { offset: 0x37FB7, size: 0x8, addend: 0x0, symName: __ZN5boost12bad_any_castD1Ev, symObjAddr: 0x60BC, symBinAddr: 0x1000093DC, symSize: 0x2C }
  - { offset: 0x37FE3, size: 0x8, addend: 0x0, symName: __ZNK5boost3any4typeEv, symObjAddr: 0x6128, symBinAddr: 0x100009448, symSize: 0x74 }
  - { offset: 0x38009, size: 0x8, addend: 0x0, symName: __ZN5boost9typeindex14stl_type_indexC1ERKSt9type_info, symObjAddr: 0x620C, symBinAddr: 0x10000952C, symSize: 0x34 }
  - { offset: 0x38041, size: 0x8, addend: 0x0, symName: __ZNK5boost9typeindex14stl_type_index5equalERKS1_, symObjAddr: 0x6240, symBinAddr: 0x100009560, symSize: 0x90 }
  - { offset: 0x38076, size: 0x8, addend: 0x0, symName: __ZNK5boost9typeindex14stl_type_index8raw_nameEv, symObjAddr: 0x62D0, symBinAddr: 0x1000095F0, symSize: 0x28 }
  - { offset: 0x3809D, size: 0x8, addend: 0x0, symName: __ZNKSt9type_info4nameB8ne180100Ev, symObjAddr: 0x62F8, symBinAddr: 0x100009618, symSize: 0x24 }
  - { offset: 0x380E3, size: 0x8, addend: 0x0, symName: __ZN5boost9typeindex14stl_type_indexC2ERKSt9type_info, symObjAddr: 0x631C, symBinAddr: 0x10000963C, symSize: 0x20 }
  - { offset: 0x3811B, size: 0x8, addend: 0x0, symName: __ZNK5boost9typeindex14stl_type_index9type_infoEv, symObjAddr: 0x6360, symBinAddr: 0x100009680, symSize: 0x18 }
  - { offset: 0x38142, size: 0x8, addend: 0x0, symName: __ZN5boost9typeindex14stl_type_index7type_idIvEES1_v, symObjAddr: 0x6378, symBinAddr: 0x100009698, symSize: 0x2C }
  - { offset: 0x3815C, size: 0x8, addend: 0x0, symName: __ZN5boost9typeindex14stl_type_index7type_idIKmEES1_v, symObjAddr: 0x63A4, symBinAddr: 0x1000096C4, symSize: 0x2C }
  - { offset: 0x3817A, size: 0x8, addend: 0x0, symName: __ZN5boost10wrapexceptINS_12bad_any_castEEC1ERKS1_, symObjAddr: 0x63E0, symBinAddr: 0x100009700, symSize: 0x34 }
  - { offset: 0x381B2, size: 0x8, addend: 0x0, symName: __ZN5boost10wrapexceptINS_12bad_any_castEED1Ev, symObjAddr: 0x6414, symBinAddr: 0x100009734, symSize: 0x2C }
  - { offset: 0x381DE, size: 0x8, addend: 0x0, symName: __ZN5boost10wrapexceptINS_12bad_any_castEEC2ERKS1_, symObjAddr: 0x6440, symBinAddr: 0x100009760, symSize: 0xCC }
  - { offset: 0x38216, size: 0x8, addend: 0x0, symName: __ZN5boost16exception_detail10clone_baseC2Ev, symObjAddr: 0x650C, symBinAddr: 0x10000982C, symSize: 0x24 }
  - { offset: 0x38243, size: 0x8, addend: 0x0, symName: __ZN5boost12bad_any_castC2ERKS0_, symObjAddr: 0x6530, symBinAddr: 0x100009850, symSize: 0x44 }
  - { offset: 0x38278, size: 0x8, addend: 0x0, symName: __ZN5boost9exceptionC2Ev, symObjAddr: 0x6574, symBinAddr: 0x100009894, symSize: 0x54 }
  - { offset: 0x382A2, size: 0x8, addend: 0x0, symName: __ZN5boost10wrapexceptINS_12bad_any_castEE9copy_fromEPKv, symObjAddr: 0x65C8, symBinAddr: 0x1000098E8, symSize: 0x14 }
  - { offset: 0x382D2, size: 0x8, addend: 0x0, symName: __ZN5boost9exceptionD2Ev, symObjAddr: 0x65DC, symBinAddr: 0x1000098FC, symSize: 0x40 }
  - { offset: 0x382FE, size: 0x8, addend: 0x0, symName: __ZN5boost12bad_any_castD2Ev, symObjAddr: 0x661C, symBinAddr: 0x10000993C, symSize: 0x2C }
  - { offset: 0x3832A, size: 0x8, addend: 0x0, symName: __ZN5boost16exception_detail10clone_baseD2Ev, symObjAddr: 0x6648, symBinAddr: 0x100009968, symSize: 0x14 }
  - { offset: 0x38354, size: 0x8, addend: 0x0, symName: __ZNK5boost10wrapexceptINS_12bad_any_castEE5cloneEv, symObjAddr: 0x665C, symBinAddr: 0x10000997C, symSize: 0xE4 }
  - { offset: 0x38396, size: 0x8, addend: 0x0, symName: __ZNK5boost10wrapexceptINS_12bad_any_castEE7rethrowEv, symObjAddr: 0x6740, symBinAddr: 0x100009A60, symSize: 0x6C }
  - { offset: 0x383BC, size: 0x8, addend: 0x0, symName: __ZN5boost10wrapexceptINS_12bad_any_castEED0Ev, symObjAddr: 0x67AC, symBinAddr: 0x100009ACC, symSize: 0x30 }
  - { offset: 0x383E8, size: 0x8, addend: 0x0, symName: __ZThn8_N5boost10wrapexceptINS_12bad_any_castEED1Ev, symObjAddr: 0x67DC, symBinAddr: 0x100009AFC, symSize: 0x1C }
  - { offset: 0x383FE, size: 0x8, addend: 0x0, symName: __ZThn8_N5boost10wrapexceptINS_12bad_any_castEED0Ev, symObjAddr: 0x67F8, symBinAddr: 0x100009B18, symSize: 0x18 }
  - { offset: 0x38414, size: 0x8, addend: 0x0, symName: __ZNK5boost12bad_any_cast4whatEv, symObjAddr: 0x6810, symBinAddr: 0x100009B30, symSize: 0x18 }
  - { offset: 0x3843A, size: 0x8, addend: 0x0, symName: __ZThn16_N5boost10wrapexceptINS_12bad_any_castEED1Ev, symObjAddr: 0x6828, symBinAddr: 0x100009B48, symSize: 0x1C }
  - { offset: 0x38450, size: 0x8, addend: 0x0, symName: __ZThn16_N5boost10wrapexceptINS_12bad_any_castEED0Ev, symObjAddr: 0x6844, symBinAddr: 0x100009B64, symSize: 0x18 }
  - { offset: 0x38466, size: 0x8, addend: 0x0, symName: __ZN5boost16exception_detail10clone_baseD1Ev, symObjAddr: 0x685C, symBinAddr: 0x100009B7C, symSize: 0x14 }
  - { offset: 0x38490, size: 0x8, addend: 0x0, symName: __ZN5boost16exception_detail10clone_baseD0Ev, symObjAddr: 0x6870, symBinAddr: 0x100009B90, symSize: 0xC }
  - { offset: 0x384BA, size: 0x8, addend: 0x0, symName: __ZNSt8bad_castC2B8ne180100ERKS_, symObjAddr: 0x687C, symBinAddr: 0x100009B9C, symSize: 0x44 }
  - { offset: 0x384F0, size: 0x8, addend: 0x0, symName: __ZN5boost12bad_any_castD0Ev, symObjAddr: 0x68C0, symBinAddr: 0x100009BE0, symSize: 0x30 }
  - { offset: 0x3851C, size: 0x8, addend: 0x0, symName: __ZNSt9exceptionC2B8ne180100ERKS_, symObjAddr: 0x68F0, symBinAddr: 0x100009C10, symSize: 0x28 }
  - { offset: 0x38550, size: 0x8, addend: 0x0, symName: __ZN5boost16exception_detail12refcount_ptrINS0_20error_info_containerEEC1Ev, symObjAddr: 0x6918, symBinAddr: 0x100009C38, symSize: 0x2C }
  - { offset: 0x3857A, size: 0x8, addend: 0x0, symName: __ZN5boost16exception_detail12refcount_ptrINS0_20error_info_containerEEC2Ev, symObjAddr: 0x6944, symBinAddr: 0x100009C64, symSize: 0x18 }
  - { offset: 0x385A4, size: 0x8, addend: 0x0, symName: __ZN5boost16exception_detail12refcount_ptrINS0_20error_info_containerEED1Ev, symObjAddr: 0x695C, symBinAddr: 0x100009C7C, symSize: 0x2C }
  - { offset: 0x385CE, size: 0x8, addend: 0x0, symName: __ZN5boost16exception_detail12refcount_ptrINS0_20error_info_containerEED2Ev, symObjAddr: 0x6988, symBinAddr: 0x100009CA8, symSize: 0x34 }
  - { offset: 0x385F8, size: 0x8, addend: 0x0, symName: __ZN5boost16exception_detail12refcount_ptrINS0_20error_info_containerEE7releaseEv, symObjAddr: 0x69BC, symBinAddr: 0x100009CDC, symSize: 0x60 }
  - { offset: 0x38624, size: 0x8, addend: 0x0, symName: __ZN5boost10wrapexceptINS_12bad_any_castEEC1ERKS2_, symObjAddr: 0x6A1C, symBinAddr: 0x100009D3C, symSize: 0x34 }
  - { offset: 0x38665, size: 0x8, addend: 0x0, symName: __ZN5boost10wrapexceptINS_12bad_any_castEE7deleterD1Ev, symObjAddr: 0x6B74, symBinAddr: 0x100009E94, symSize: 0x2C }
  - { offset: 0x3868F, size: 0x8, addend: 0x0, symName: __ZN5boost10wrapexceptINS_12bad_any_castEEC2ERKS2_, symObjAddr: 0x6BA0, symBinAddr: 0x100009EC0, symSize: 0xAC }
  - { offset: 0x386CA, size: 0x8, addend: 0x0, symName: __ZN5boost16exception_detail10clone_baseC2ERKS1_, symObjAddr: 0x6C4C, symBinAddr: 0x100009F6C, symSize: 0x28 }
  - { offset: 0x38706, size: 0x8, addend: 0x0, symName: __ZN5boost9exceptionC2ERKS0_, symObjAddr: 0x6C74, symBinAddr: 0x100009F94, symSize: 0x60 }
  - { offset: 0x3873B, size: 0x8, addend: 0x0, symName: __ZN5boost16exception_detail12refcount_ptrINS0_20error_info_containerEEC1ERKS3_, symObjAddr: 0x6CD4, symBinAddr: 0x100009FF4, symSize: 0x34 }
  - { offset: 0x38773, size: 0x8, addend: 0x0, symName: __ZN5boost16exception_detail12refcount_ptrINS0_20error_info_containerEEC2ERKS3_, symObjAddr: 0x6D08, symBinAddr: 0x10000A028, symSize: 0x3C }
  - { offset: 0x387AB, size: 0x8, addend: 0x0, symName: __ZN5boost16exception_detail12refcount_ptrINS0_20error_info_containerEE7add_refEv, symObjAddr: 0x6D44, symBinAddr: 0x10000A064, symSize: 0x50 }
  - { offset: 0x387D1, size: 0x8, addend: 0x0, symName: __ZNK5boost16exception_detail12refcount_ptrINS0_20error_info_containerEE3getEv, symObjAddr: 0x6D94, symBinAddr: 0x10000A0B4, symSize: 0x18 }
  - { offset: 0x387F7, size: 0x8, addend: 0x0, symName: __ZN5boost16exception_detail12refcount_ptrINS0_20error_info_containerEEaSERKS3_, symObjAddr: 0x6DAC, symBinAddr: 0x10000A0CC, symSize: 0x38 }
  - { offset: 0x3882B, size: 0x8, addend: 0x0, symName: __ZN5boost16exception_detail12refcount_ptrINS0_20error_info_containerEE5adoptEPS2_, symObjAddr: 0x6DE4, symBinAddr: 0x10000A104, symSize: 0x3C }
  - { offset: 0x3885F, size: 0x8, addend: 0x0, symName: __ZN5boost10wrapexceptINS_12bad_any_castEE7deleterD2Ev, symObjAddr: 0x6E20, symBinAddr: 0x10000A140, symSize: 0x58 }
  - { offset: 0x38889, size: 0x8, addend: 0x0, symName: __ZN5boost10wrapexceptINS_12bad_any_castEED2Ev, symObjAddr: 0x6E78, symBinAddr: 0x10000A198, symSize: 0x44 }
  - { offset: 0x388B5, size: 0x8, addend: 0x0, symName: __ZN5boost12bad_any_castC2Ev, symObjAddr: 0x6EBC, symBinAddr: 0x10000A1DC, symSize: 0x3C }
  - { offset: 0x388E1, size: 0x8, addend: 0x0, symName: __ZN5boost3anyC2ImEEOT_PNSt3__19enable_ifIXntsr3std7is_sameIRS0_S2_EE5valueEvE4typeEPNS5_IXntsr8is_constIS2_EE5valueEvE4typeE, symObjAddr: 0x6EF8, symBinAddr: 0x10000A218, symSize: 0x78 }
  - { offset: 0x38936, size: 0x8, addend: 0x0, symName: __ZN5boost3any6holderImEC1EOm, symObjAddr: 0x6F70, symBinAddr: 0x10000A290, symSize: 0x34 }
  - { offset: 0x3896E, size: 0x8, addend: 0x0, symName: __ZN5boost3any6holderImEC2EOm, symObjAddr: 0x6FA4, symBinAddr: 0x10000A2C4, symSize: 0x4C }
  - { offset: 0x389AC, size: 0x8, addend: 0x0, symName: __ZN5boost3any11placeholderC2Ev, symObjAddr: 0x6FF0, symBinAddr: 0x10000A310, symSize: 0x3C }
  - { offset: 0x389D8, size: 0x8, addend: 0x0, symName: __ZN5boost3any6holderImED1Ev, symObjAddr: 0x702C, symBinAddr: 0x10000A34C, symSize: 0x2C }
  - { offset: 0x38A04, size: 0x8, addend: 0x0, symName: __ZN5boost3any6holderImED0Ev, symObjAddr: 0x7058, symBinAddr: 0x10000A378, symSize: 0x30 }
  - { offset: 0x38A30, size: 0x8, addend: 0x0, symName: __ZNK5boost3any6holderImE4typeEv, symObjAddr: 0x7088, symBinAddr: 0x10000A3A8, symSize: 0x30 }
  - { offset: 0x38A56, size: 0x8, addend: 0x0, symName: __ZNK5boost3any6holderImE5cloneEv, symObjAddr: 0x70B8, symBinAddr: 0x10000A3D8, symSize: 0x68 }
  - { offset: 0x38A7C, size: 0x8, addend: 0x0, symName: __ZN5boost4anys6detail11placeholderC2Ev, symObjAddr: 0x7120, symBinAddr: 0x10000A440, symSize: 0x24 }
  - { offset: 0x38AA8, size: 0x8, addend: 0x0, symName: __ZN5boost3any11placeholderD1Ev, symObjAddr: 0x7144, symBinAddr: 0x10000A464, symSize: 0x14 }
  - { offset: 0x38AD4, size: 0x8, addend: 0x0, symName: __ZN5boost3any11placeholderD0Ev, symObjAddr: 0x7158, symBinAddr: 0x10000A478, symSize: 0xC }
  - { offset: 0x38B00, size: 0x8, addend: 0x0, symName: __ZN5boost4anys6detail11placeholderD1Ev, symObjAddr: 0x7164, symBinAddr: 0x10000A484, symSize: 0x14 }
  - { offset: 0x38B2A, size: 0x8, addend: 0x0, symName: __ZN5boost4anys6detail11placeholderD0Ev, symObjAddr: 0x7178, symBinAddr: 0x10000A498, symSize: 0xC }
  - { offset: 0x38B54, size: 0x8, addend: 0x0, symName: __ZN5boost3any6holderImED2Ev, symObjAddr: 0x7184, symBinAddr: 0x10000A4A4, symSize: 0x2C }
  - { offset: 0x38B80, size: 0x8, addend: 0x0, symName: __ZN5boost3any11placeholderD2Ev, symObjAddr: 0x71B0, symBinAddr: 0x10000A4D0, symSize: 0x2C }
  - { offset: 0x38BAC, size: 0x8, addend: 0x0, symName: __ZN5boost4anys6detail11placeholderD2Ev, symObjAddr: 0x71DC, symBinAddr: 0x10000A4FC, symSize: 0x14 }
  - { offset: 0x38BD6, size: 0x8, addend: 0x0, symName: __ZN5boost9typeindex14stl_type_index7type_idImEES1_v, symObjAddr: 0x7214, symBinAddr: 0x10000A534, symSize: 0x2C }
  - { offset: 0x38BF4, size: 0x8, addend: 0x0, symName: __ZN5boost3any6holderImEC1ERKm, symObjAddr: 0x7240, symBinAddr: 0x10000A560, symSize: 0x34 }
  - { offset: 0x38C2C, size: 0x8, addend: 0x0, symName: __ZN5boost3any6holderImEC2ERKm, symObjAddr: 0x7274, symBinAddr: 0x10000A594, symSize: 0x4C }
  - { offset: 0x38CC0, size: 0x8, addend: 0x0, symName: __ZNSt3__119basic_ostringstreamIcNS_11char_traitsIcEENS_9allocatorIcEEEC1B8ne180100Ev, symObjAddr: 0x72C0, symBinAddr: 0x10000A5E0, symSize: 0xE4 }
  - { offset: 0x38CEA, size: 0x8, addend: 0x0, symName: __ZNKSt3__119basic_ostringstreamIcNS_11char_traitsIcEENS_9allocatorIcEEE3strB8ne180100Ev, symObjAddr: 0x73A4, symBinAddr: 0x10000A6C4, symSize: 0x30 }
  - { offset: 0x38D16, size: 0x8, addend: 0x0, symName: __ZNSt3__119basic_ostringstreamIcNS_11char_traitsIcEENS_9allocatorIcEEED1Ev, symObjAddr: 0x73D4, symBinAddr: 0x10000A6F4, symSize: 0x40 }
  - { offset: 0x38D43, size: 0x8, addend: 0x0, symName: __ZNSt3__113basic_ostreamIcNS_11char_traitsIcEEEC2B8ne180100EPNS_15basic_streambufIcS2_EE, symObjAddr: 0x7414, symBinAddr: 0x10000A734, symSize: 0x60 }
  - { offset: 0x38D88, size: 0x8, addend: 0x0, symName: __ZNSt3__115basic_stringbufIcNS_11char_traitsIcEENS_9allocatorIcEEEC1B8ne180100Ej, symObjAddr: 0x7474, symBinAddr: 0x10000A794, symSize: 0x34 }
  - { offset: 0x38DC1, size: 0x8, addend: 0x0, symName: __ZNSt3__115basic_stringbufIcNS_11char_traitsIcEENS_9allocatorIcEEEC2B8ne180100Ej, symObjAddr: 0x74A8, symBinAddr: 0x10000A7C8, symSize: 0x58 }
  - { offset: 0x38DFA, size: 0x8, addend: 0x0, symName: __ZNSt3__112basic_stringIcNS_11char_traitsIcEENS_9allocatorIcEEEC1B8ne180100Ev, symObjAddr: 0x7500, symBinAddr: 0x10000A820, symSize: 0x2C }
  - { offset: 0x38E24, size: 0x8, addend: 0x0, symName: __ZNSt3__112basic_stringIcNS_11char_traitsIcEENS_9allocatorIcEEEC2B8ne180100Ev, symObjAddr: 0x752C, symBinAddr: 0x10000A84C, symSize: 0x48 }
  - { offset: 0x38E54, size: 0x8, addend: 0x0, symName: __ZNSt3__117__compressed_pairINS_12basic_stringIcNS_11char_traitsIcEENS_9allocatorIcEEE5__repES5_EC1B8ne180100INS_16__value_init_tagENS_18__default_init_tagEEEOT_OT0_, symObjAddr: 0x7574, symBinAddr: 0x10000A894, symSize: 0x3C }
  - { offset: 0x38EAC, size: 0x8, addend: 0x0, symName: __ZNKSt3__112basic_stringIcNS_11char_traitsIcEENS_9allocatorIcEEE14__annotate_newB8ne180100Em, symObjAddr: 0x75B0, symBinAddr: 0x10000A8D0, symSize: 0x14 }
  - { offset: 0x38EE1, size: 0x8, addend: 0x0, symName: __ZNSt3__117__compressed_pairINS_12basic_stringIcNS_11char_traitsIcEENS_9allocatorIcEEE5__repES5_EC2B8ne180100INS_16__value_init_tagENS_18__default_init_tagEEEOT_OT0_, symObjAddr: 0x75C4, symBinAddr: 0x10000A8E4, symSize: 0x3C }
  - { offset: 0x38F39, size: 0x8, addend: 0x0, symName: __ZNSt3__122__compressed_pair_elemINS_12basic_stringIcNS_11char_traitsIcEENS_9allocatorIcEEE5__repELi0ELb0EEC2B8ne180100ENS_16__value_init_tagE, symObjAddr: 0x7600, symBinAddr: 0x10000A920, symSize: 0x20 }
  - { offset: 0x38F6D, size: 0x8, addend: 0x0, symName: __ZNSt3__119basic_ostringstreamIcNS_11char_traitsIcEENS_9allocatorIcEEED2Ev, symObjAddr: 0x7620, symBinAddr: 0x10000A940, symSize: 0x64 }
  - { offset: 0x38FA7, size: 0x8, addend: 0x0, symName: __ZTv0_n24_NSt3__119basic_ostringstreamIcNS_11char_traitsIcEENS_9allocatorIcEEED1Ev, symObjAddr: 0x7684, symBinAddr: 0x10000A9A4, symSize: 0x28 }
  - { offset: 0x38FC4, size: 0x8, addend: 0x0, symName: __ZNSt3__115basic_stringbufIcNS_11char_traitsIcEENS_9allocatorIcEEED1Ev, symObjAddr: 0x76AC, symBinAddr: 0x10000A9CC, symSize: 0x2C }
  - { offset: 0x38FF1, size: 0x8, addend: 0x0, symName: __ZNSt3__115basic_stringbufIcNS_11char_traitsIcEENS_9allocatorIcEEED2Ev, symObjAddr: 0x76D8, symBinAddr: 0x10000A9F8, symSize: 0x48 }
  - { offset: 0x3901E, size: 0x8, addend: 0x0, symName: __ZN5boost6detail28dynamic_property_map_adaptorINS_26vec_adj_list_vertex_id_mapINS_11no_propertyEmEEE6do_putERKNS_3anyES8_N4mpl_5bool_ILb0EEE, symObjAddr: 0x7720, symBinAddr: 0x10000AA40, symSize: 0x80 }
  - { offset: 0x39073, size: 0x8, addend: 0x0, symName: __ZN5boost23dynamic_const_put_errorC1Ev, symObjAddr: 0x7814, symBinAddr: 0x10000AB34, symSize: 0x2C }
  - { offset: 0x3909F, size: 0x8, addend: 0x0, symName: __ZN5boost15source_locationC1EPKcjS2_j, symObjAddr: 0x7840, symBinAddr: 0x10000AB60, symSize: 0x4C }
  - { offset: 0x39101, size: 0x8, addend: 0x0, symName: __ZN5boost23dynamic_const_put_errorD1Ev, symObjAddr: 0x788C, symBinAddr: 0x10000ABAC, symSize: 0x2C }
  - { offset: 0x39142, size: 0x8, addend: 0x0, symName: __ZN5boost10wrapexceptINS_23dynamic_const_put_errorEEC1ERKS1_RKNS_15source_locationE, symObjAddr: 0x78B8, symBinAddr: 0x10000ABD8, symSize: 0x3C }
  - { offset: 0x39188, size: 0x8, addend: 0x0, symName: __ZN5boost10wrapexceptINS_23dynamic_const_put_errorEED1Ev, symObjAddr: 0x78F4, symBinAddr: 0x10000AC14, symSize: 0x2C }
  - { offset: 0x391B4, size: 0x8, addend: 0x0, symName: __ZN5boost10wrapexceptINS_23dynamic_const_put_errorEEC2ERKS1_RKNS_15source_locationE, symObjAddr: 0x7920, symBinAddr: 0x10000AC40, symSize: 0x170 }
  - { offset: 0x391FA, size: 0x8, addend: 0x0, symName: __ZN5boost23dynamic_const_put_errorC2ERKS0_, symObjAddr: 0x7A90, symBinAddr: 0x10000ADB0, symSize: 0x44 }
  - { offset: 0x3922F, size: 0x8, addend: 0x0, symName: __ZN5boost10wrapexceptINS_23dynamic_const_put_errorEE9copy_fromEPKv, symObjAddr: 0x7AD4, symBinAddr: 0x10000ADF4, symSize: 0x14 }
  - { offset: 0x3925F, size: 0x8, addend: 0x0, symName: __ZNK5boost15source_location9file_nameEv, symObjAddr: 0x7B10, symBinAddr: 0x10000AE30, symSize: 0x18 }
  - { offset: 0x39285, size: 0x8, addend: 0x0, symName: __ZN5boost10error_infoINS_11throw_file_EPKcEC1ES3_, symObjAddr: 0x7B28, symBinAddr: 0x10000AE48, symSize: 0x34 }
  - { offset: 0x392BD, size: 0x8, addend: 0x0, symName: __ZNK5boost15source_location4lineEv, symObjAddr: 0x7B84, symBinAddr: 0x10000AEA4, symSize: 0x18 }
  - { offset: 0x392E3, size: 0x8, addend: 0x0, symName: __ZN5boost10error_infoINS_11throw_line_EiEC1Ei, symObjAddr: 0x7B9C, symBinAddr: 0x10000AEBC, symSize: 0x34 }
  - { offset: 0x3931B, size: 0x8, addend: 0x0, symName: __ZNK5boost15source_location13function_nameEv, symObjAddr: 0x7BF8, symBinAddr: 0x10000AF18, symSize: 0x18 }
  - { offset: 0x39341, size: 0x8, addend: 0x0, symName: __ZN5boost10error_infoINS_15throw_function_EPKcEC1ES3_, symObjAddr: 0x7C10, symBinAddr: 0x10000AF30, symSize: 0x34 }
  - { offset: 0x39379, size: 0x8, addend: 0x0, symName: __ZNK5boost15source_location6columnEv, symObjAddr: 0x7C6C, symBinAddr: 0x10000AF8C, symSize: 0x18 }
  - { offset: 0x3939F, size: 0x8, addend: 0x0, symName: __ZN5boost10error_infoINS_13throw_column_EiEC1Ei, symObjAddr: 0x7C84, symBinAddr: 0x10000AFA4, symSize: 0x34 }
  - { offset: 0x393D7, size: 0x8, addend: 0x0, symName: __ZN5boost23dynamic_const_put_errorD2Ev, symObjAddr: 0x7CB8, symBinAddr: 0x10000AFD8, symSize: 0x2C }
  - { offset: 0x39401, size: 0x8, addend: 0x0, symName: __ZNK5boost10wrapexceptINS_23dynamic_const_put_errorEE5cloneEv, symObjAddr: 0x7CE4, symBinAddr: 0x10000B004, symSize: 0xE4 }
  - { offset: 0x39443, size: 0x8, addend: 0x0, symName: __ZNK5boost10wrapexceptINS_23dynamic_const_put_errorEE7rethrowEv, symObjAddr: 0x7DC8, symBinAddr: 0x10000B0E8, symSize: 0x6C }
  - { offset: 0x39469, size: 0x8, addend: 0x0, symName: __ZN5boost10wrapexceptINS_23dynamic_const_put_errorEED0Ev, symObjAddr: 0x7E34, symBinAddr: 0x10000B154, symSize: 0x30 }
  - { offset: 0x39495, size: 0x8, addend: 0x0, symName: __ZThn8_N5boost10wrapexceptINS_23dynamic_const_put_errorEED1Ev, symObjAddr: 0x7E64, symBinAddr: 0x10000B184, symSize: 0x1C }
  - { offset: 0x394AB, size: 0x8, addend: 0x0, symName: __ZThn8_N5boost10wrapexceptINS_23dynamic_const_put_errorEED0Ev, symObjAddr: 0x7E80, symBinAddr: 0x10000B1A0, symSize: 0x18 }
  - { offset: 0x394C1, size: 0x8, addend: 0x0, symName: __ZNK5boost23dynamic_const_put_error4whatEv, symObjAddr: 0x7E98, symBinAddr: 0x10000B1B8, symSize: 0x18 }
  - { offset: 0x394E7, size: 0x8, addend: 0x0, symName: __ZThn16_N5boost10wrapexceptINS_23dynamic_const_put_errorEED1Ev, symObjAddr: 0x7EB0, symBinAddr: 0x10000B1D0, symSize: 0x1C }
  - { offset: 0x394FD, size: 0x8, addend: 0x0, symName: __ZThn16_N5boost10wrapexceptINS_23dynamic_const_put_errorEED0Ev, symObjAddr: 0x7ECC, symBinAddr: 0x10000B1EC, symSize: 0x18 }
  - { offset: 0x39519, size: 0x8, addend: 0x0, symName: __ZN5boost26dynamic_property_exceptionC2ERKS0_, symObjAddr: 0x7EE4, symBinAddr: 0x10000B204, symSize: 0x44 }
  - { offset: 0x3954E, size: 0x8, addend: 0x0, symName: __ZN5boost23dynamic_const_put_errorD0Ev, symObjAddr: 0x7F28, symBinAddr: 0x10000B248, symSize: 0x30 }
  - { offset: 0x39578, size: 0x8, addend: 0x0, symName: __ZN5boost26dynamic_property_exceptionD1Ev, symObjAddr: 0x7F58, symBinAddr: 0x10000B278, symSize: 0x14 }
  - { offset: 0x395A2, size: 0x8, addend: 0x0, symName: __ZN5boost26dynamic_property_exceptionD0Ev, symObjAddr: 0x7F6C, symBinAddr: 0x10000B28C, symSize: 0xC }
  - { offset: 0x395CC, size: 0x8, addend: 0x0, symName: __ZN5boost10error_infoINS_11throw_file_EPKcEC2ES3_, symObjAddr: 0x7F78, symBinAddr: 0x10000B298, symSize: 0x20 }
  - { offset: 0x39604, size: 0x8, addend: 0x0, symName: __ZN5boost10error_infoINS_11throw_line_EiEC2Ei, symObjAddr: 0x7F98, symBinAddr: 0x10000B2B8, symSize: 0x20 }
  - { offset: 0x3963C, size: 0x8, addend: 0x0, symName: __ZN5boost10error_infoINS_15throw_function_EPKcEC2ES3_, symObjAddr: 0x7FB8, symBinAddr: 0x10000B2D8, symSize: 0x20 }
  - { offset: 0x39674, size: 0x8, addend: 0x0, symName: __ZN5boost10error_infoINS_13throw_column_EiEC2Ei, symObjAddr: 0x7FD8, symBinAddr: 0x10000B2F8, symSize: 0x20 }
  - { offset: 0x396AC, size: 0x8, addend: 0x0, symName: __ZN5boost26dynamic_property_exceptionD2Ev, symObjAddr: 0x7FF8, symBinAddr: 0x10000B318, symSize: 0x2C }
  - { offset: 0x396DC, size: 0x8, addend: 0x0, symName: __ZN5boost10wrapexceptINS_23dynamic_const_put_errorEEC1ERKS2_, symObjAddr: 0x8024, symBinAddr: 0x10000B344, symSize: 0x34 }
  - { offset: 0x3971D, size: 0x8, addend: 0x0, symName: __ZN5boost10wrapexceptINS_23dynamic_const_put_errorEE7deleterD1Ev, symObjAddr: 0x8058, symBinAddr: 0x10000B378, symSize: 0x2C }
  - { offset: 0x39747, size: 0x8, addend: 0x0, symName: __ZN5boost10wrapexceptINS_23dynamic_const_put_errorEEC2ERKS2_, symObjAddr: 0x8084, symBinAddr: 0x10000B3A4, symSize: 0xAC }
  - { offset: 0x3977C, size: 0x8, addend: 0x0, symName: __ZN5boost10wrapexceptINS_23dynamic_const_put_errorEE7deleterD2Ev, symObjAddr: 0x8130, symBinAddr: 0x10000B450, symSize: 0x58 }
  - { offset: 0x397A6, size: 0x8, addend: 0x0, symName: __ZN5boost10wrapexceptINS_23dynamic_const_put_errorEED2Ev, symObjAddr: 0x8188, symBinAddr: 0x10000B4A8, symSize: 0x44 }
  - { offset: 0x397D2, size: 0x8, addend: 0x0, symName: __ZN5boost23dynamic_const_put_errorC2Ev, symObjAddr: 0x81CC, symBinAddr: 0x10000B4EC, symSize: 0x3C }
  - { offset: 0x397FE, size: 0x8, addend: 0x0, symName: __ZN5boost26dynamic_property_exceptionC2Ev, symObjAddr: 0x8208, symBinAddr: 0x10000B528, symSize: 0x3C }
  - { offset: 0x3982A, size: 0x8, addend: 0x0, symName: __ZNSt9exceptionC2B8ne180100Ev, symObjAddr: 0x8244, symBinAddr: 0x10000B564, symSize: 0x24 }
  - { offset: 0x39854, size: 0x8, addend: 0x0, symName: __ZN5boost15source_locationC2EPKcjS2_j, symObjAddr: 0x8268, symBinAddr: 0x10000B588, symSize: 0x44 }
  - { offset: 0x398B6, size: 0x8, addend: 0x0, symName: __ZN5boost10shared_ptrINS_6detail28dynamic_property_map_adaptorINS_26vec_adj_list_vertex_id_mapINS_11no_propertyEmEEEEEC2IS6_EERKNS0_IT_EEPS6_, symObjAddr: 0x82AC, symBinAddr: 0x10000B5CC, symSize: 0x48 }
  - { offset: 0x39907, size: 0x8, addend: 0x0, symName: __ZN5boost6detail12shared_countC1ERKS1_, symObjAddr: 0x82F4, symBinAddr: 0x10000B614, symSize: 0x34 }
  - { offset: 0x39940, size: 0x8, addend: 0x0, symName: __ZN5boost6detail12shared_countC2ERKS1_, symObjAddr: 0x8328, symBinAddr: 0x10000B648, symSize: 0x6C }
  - { offset: 0x39979, size: 0x8, addend: 0x0, symName: __ZN5boost6detail15sp_counted_base12add_ref_copyEv, symObjAddr: 0x8394, symBinAddr: 0x10000B6B4, symSize: 0x28 }
  - { offset: 0x3999F, size: 0x8, addend: 0x0, symName: __ZN5boost10shared_ptrINS_6detail28dynamic_property_map_adaptorINS_26vec_adj_list_vertex_id_mapINS_11no_propertyEmEEEEED2Ev, symObjAddr: 0x83E4, symBinAddr: 0x10000B704, symSize: 0x30 }
  - { offset: 0x399CB, size: 0x8, addend: 0x0, symName: __ZNSt3__16__treeINS_12__value_typeINS_12basic_stringIcNS_11char_traitsIcEENS_9allocatorIcEEEEN5boost10shared_ptrINS8_20dynamic_property_mapEEEEENS_19__map_value_compareIS7_SC_NS_4lessIS7_EELb1EEENS5_ISC_EEE14__insert_multiB8ne180100EONS_4pairIKS7_SB_EE, symObjAddr: 0x8414, symBinAddr: 0x10000B734, symSize: 0x34 }
  - { offset: 0x39A00, size: 0x8, addend: 0x0, symName: __ZNSt3__114__map_iteratorINS_15__tree_iteratorINS_12__value_typeINS_12basic_stringIcNS_11char_traitsIcEENS_9allocatorIcEEEEN5boost10shared_ptrINS9_20dynamic_property_mapEEEEEPNS_11__tree_nodeISD_PvEElEEEC1B8ne180100ESI_, symObjAddr: 0x8448, symBinAddr: 0x10000B768, symSize: 0x34 }
  - { offset: 0x39A39, size: 0x8, addend: 0x0, symName: __ZNSt3__16__treeINS_12__value_typeINS_12basic_stringIcNS_11char_traitsIcEENS_9allocatorIcEEEEN5boost10shared_ptrINS8_20dynamic_property_mapEEEEENS_19__map_value_compareIS7_SC_NS_4lessIS7_EELb1EEENS5_ISC_EEE15__emplace_multiIJNS_4pairIKS7_SB_EEEEENS_15__tree_iteratorISC_PNS_11__tree_nodeISC_PvEElEEDpOT_, symObjAddr: 0x847C, symBinAddr: 0x10000B79C, symSize: 0xE0 }
  - { offset: 0x39AA8, size: 0x8, addend: 0x0, symName: __ZNSt3__16__treeINS_12__value_typeINS_12basic_stringIcNS_11char_traitsIcEENS_9allocatorIcEEEEN5boost10shared_ptrINS8_20dynamic_property_mapEEEEENS_19__map_value_compareIS7_SC_NS_4lessIS7_EELb1EEENS5_ISC_EEE16__construct_nodeIJNS_4pairIKS7_SB_EEEEENS_10unique_ptrINS_11__tree_nodeISC_PvEENS_22__tree_node_destructorINS5_ISQ_EEEEEEDpOT_, symObjAddr: 0x855C, symBinAddr: 0x10000B87C, symSize: 0x110 }
  - { offset: 0x39B09, size: 0x8, addend: 0x0, symName: __ZNSt3__16__treeINS_12__value_typeINS_12basic_stringIcNS_11char_traitsIcEENS_9allocatorIcEEEEN5boost10shared_ptrINS8_20dynamic_property_mapEEEEENS_19__map_value_compareIS7_SC_NS_4lessIS7_EELb1EEENS5_ISC_EEE16__find_leaf_highERPNS_15__tree_end_nodeIPNS_16__tree_node_baseIPvEEEERKS7_, symObjAddr: 0x866C, symBinAddr: 0x10000B98C, symSize: 0x124 }
  - { offset: 0x39B5E, size: 0x8, addend: 0x0, symName: __ZNSt3__122__tree_key_value_typesINS_12__value_typeINS_12basic_stringIcNS_11char_traitsIcEENS_9allocatorIcEEEEN5boost10shared_ptrINS8_20dynamic_property_mapEEEEEE9__get_keyB8ne180100ERKSC_, symObjAddr: 0x8790, symBinAddr: 0x10000BAB0, symSize: 0x24 }
  - { offset: 0x39B82, size: 0x8, addend: 0x0, symName: __ZNKSt3__110unique_ptrINS_11__tree_nodeINS_12__value_typeINS_12basic_stringIcNS_11char_traitsIcEENS_9allocatorIcEEEEN5boost10shared_ptrINS9_20dynamic_property_mapEEEEEPvEENS_22__tree_node_destructorINS6_ISF_EEEEEptB8ne180100Ev, symObjAddr: 0x87B4, symBinAddr: 0x10000BAD4, symSize: 0x28 }
  - { offset: 0x39BA8, size: 0x8, addend: 0x0, symName: __ZNSt3__16__treeINS_12__value_typeINS_12basic_stringIcNS_11char_traitsIcEENS_9allocatorIcEEEEN5boost10shared_ptrINS8_20dynamic_property_mapEEEEENS_19__map_value_compareIS7_SC_NS_4lessIS7_EELb1EEENS5_ISC_EEE16__insert_node_atEPNS_15__tree_end_nodeIPNS_16__tree_node_baseIPvEEEERSN_SN_, symObjAddr: 0x87DC, symBinAddr: 0x10000BAFC, symSize: 0xCC }
  - { offset: 0x39BFD, size: 0x8, addend: 0x0, symName: __ZNKSt3__110unique_ptrINS_11__tree_nodeINS_12__value_typeINS_12basic_stringIcNS_11char_traitsIcEENS_9allocatorIcEEEEN5boost10shared_ptrINS9_20dynamic_property_mapEEEEEPvEENS_22__tree_node_destructorINS6_ISF_EEEEE3getB8ne180100Ev, symObjAddr: 0x88A8, symBinAddr: 0x10000BBC8, symSize: 0x28 }
  - { offset: 0x39C23, size: 0x8, addend: 0x0, symName: __ZNSt3__110unique_ptrINS_11__tree_nodeINS_12__value_typeINS_12basic_stringIcNS_11char_traitsIcEENS_9allocatorIcEEEEN5boost10shared_ptrINS9_20dynamic_property_mapEEEEEPvEENS_22__tree_node_destructorINS6_ISF_EEEEE7releaseB8ne180100Ev, symObjAddr: 0x88D0, symBinAddr: 0x10000BBF0, symSize: 0x44 }
  - { offset: 0x39C58, size: 0x8, addend: 0x0, symName: __ZNSt3__115__tree_iteratorINS_12__value_typeINS_12basic_stringIcNS_11char_traitsIcEENS_9allocatorIcEEEEN5boost10shared_ptrINS8_20dynamic_property_mapEEEEEPNS_11__tree_nodeISC_PvEElEC1B8ne180100ESG_, symObjAddr: 0x8914, symBinAddr: 0x10000BC34, symSize: 0x34 }
  - { offset: 0x39C91, size: 0x8, addend: 0x0, symName: __ZNSt3__110unique_ptrINS_11__tree_nodeINS_12__value_typeINS_12basic_stringIcNS_11char_traitsIcEENS_9allocatorIcEEEEN5boost10shared_ptrINS9_20dynamic_property_mapEEEEEPvEENS_22__tree_node_destructorINS6_ISF_EEEEED1B8ne180100Ev, symObjAddr: 0x8948, symBinAddr: 0x10000BC68, symSize: 0x2C }
  - { offset: 0x39CBB, size: 0x8, addend: 0x0, symName: __ZNSt3__116allocator_traitsINS_9allocatorINS_11__tree_nodeINS_12__value_typeINS_12basic_stringIcNS_11char_traitsIcEENS1_IcEEEEN5boost10shared_ptrINS9_20dynamic_property_mapEEEEEPvEEEEE8allocateB8ne180100ERSG_m, symObjAddr: 0x8974, symBinAddr: 0x10000BC94, symSize: 0x2C }
  - { offset: 0x39CEE, size: 0x8, addend: 0x0, symName: __ZNSt3__122__tree_node_destructorINS_9allocatorINS_11__tree_nodeINS_12__value_typeINS_12basic_stringIcNS_11char_traitsIcEENS1_IcEEEEN5boost10shared_ptrINS9_20dynamic_property_mapEEEEEPvEEEEEC1B8ne180100ERSG_b, symObjAddr: 0x89A0, symBinAddr: 0x10000BCC0, symSize: 0x48 }
  - { offset: 0x39D3C, size: 0x8, addend: 0x0, symName: __ZNSt3__110unique_ptrINS_11__tree_nodeINS_12__value_typeINS_12basic_stringIcNS_11char_traitsIcEENS_9allocatorIcEEEEN5boost10shared_ptrINS9_20dynamic_property_mapEEEEEPvEENS_22__tree_node_destructorINS6_ISF_EEEEEC1B8ne180100ILb1EvEEPSF_NS_16__dependent_typeINS_27__unique_ptr_deleter_sfinaeISI_EEXT_EE20__good_rval_ref_typeE, symObjAddr: 0x89E8, symBinAddr: 0x10000BD08, symSize: 0x3C }
  - { offset: 0x39D8D, size: 0x8, addend: 0x0, symName: __ZNSt3__116allocator_traitsINS_9allocatorINS_11__tree_nodeINS_12__value_typeINS_12basic_stringIcNS_11char_traitsIcEENS1_IcEEEEN5boost10shared_ptrINS9_20dynamic_property_mapEEEEEPvEEEEE9constructB8ne180100INS_4pairIKS8_SC_EEJSL_EvEEvRSG_PT_DpOT0_, symObjAddr: 0x8A24, symBinAddr: 0x10000BD44, symSize: 0x34 }
  - { offset: 0x39DE4, size: 0x8, addend: 0x0, symName: __ZNSt3__110unique_ptrINS_11__tree_nodeINS_12__value_typeINS_12basic_stringIcNS_11char_traitsIcEENS_9allocatorIcEEEEN5boost10shared_ptrINS9_20dynamic_property_mapEEEEEPvEENS_22__tree_node_destructorINS6_ISF_EEEEE11get_deleterB8ne180100Ev, symObjAddr: 0x8A58, symBinAddr: 0x10000BD78, symSize: 0x24 }
  - { offset: 0x39E0A, size: 0x8, addend: 0x0, symName: __ZNSt3__19allocatorINS_11__tree_nodeINS_12__value_typeINS_12basic_stringIcNS_11char_traitsIcEENS0_IcEEEEN5boost10shared_ptrINS8_20dynamic_property_mapEEEEEPvEEE8allocateB8ne180100Em, symObjAddr: 0x8A7C, symBinAddr: 0x10000BD9C, symSize: 0x5C }
  - { offset: 0x39E49, size: 0x8, addend: 0x0, symName: __ZNSt3__116allocator_traitsINS_9allocatorINS_11__tree_nodeINS_12__value_typeINS_12basic_stringIcNS_11char_traitsIcEENS1_IcEEEEN5boost10shared_ptrINS9_20dynamic_property_mapEEEEEPvEEEEE8max_sizeB8ne180100ISG_vEEmRKSG_, symObjAddr: 0x8AD8, symBinAddr: 0x10000BDF8, symSize: 0x24 }
  - { offset: 0x39E77, size: 0x8, addend: 0x0, symName: __ZNKSt3__19allocatorINS_11__tree_nodeINS_12__value_typeINS_12basic_stringIcNS_11char_traitsIcEENS0_IcEEEEN5boost10shared_ptrINS8_20dynamic_property_mapEEEEEPvEEE8max_sizeB8ne180100Ev, symObjAddr: 0x8B90, symBinAddr: 0x10000BEB0, symSize: 0x20 }
  - { offset: 0x39E9D, size: 0x8, addend: 0x0, symName: __ZNSt3__122__tree_node_destructorINS_9allocatorINS_11__tree_nodeINS_12__value_typeINS_12basic_stringIcNS_11char_traitsIcEENS1_IcEEEEN5boost10shared_ptrINS9_20dynamic_property_mapEEEEEPvEEEEEC2B8ne180100ERSG_b, symObjAddr: 0x8C00, symBinAddr: 0x10000BF20, symSize: 0x38 }
  - { offset: 0x39EE5, size: 0x8, addend: 0x0, symName: __ZNSt3__110unique_ptrINS_11__tree_nodeINS_12__value_typeINS_12basic_stringIcNS_11char_traitsIcEENS_9allocatorIcEEEEN5boost10shared_ptrINS9_20dynamic_property_mapEEEEEPvEENS_22__tree_node_destructorINS6_ISF_EEEEEC2B8ne180100ILb1EvEEPSF_NS_16__dependent_typeINS_27__unique_ptr_deleter_sfinaeISI_EEXT_EE20__good_rval_ref_typeE, symObjAddr: 0x8C38, symBinAddr: 0x10000BF58, symSize: 0x48 }
  - { offset: 0x39F36, size: 0x8, addend: 0x0, symName: __ZNSt3__117__compressed_pairIPNS_11__tree_nodeINS_12__value_typeINS_12basic_stringIcNS_11char_traitsIcEENS_9allocatorIcEEEEN5boost10shared_ptrINS9_20dynamic_property_mapEEEEEPvEENS_22__tree_node_destructorINS6_ISF_EEEEEC1B8ne180100IRSG_SJ_EEOT_OT0_, symObjAddr: 0x8C80, symBinAddr: 0x10000BFA0, symSize: 0x3C }
  - { offset: 0x39F8E, size: 0x8, addend: 0x0, symName: __ZNSt3__117__compressed_pairIPNS_11__tree_nodeINS_12__value_typeINS_12basic_stringIcNS_11char_traitsIcEENS_9allocatorIcEEEEN5boost10shared_ptrINS9_20dynamic_property_mapEEEEEPvEENS_22__tree_node_destructorINS6_ISF_EEEEEC2B8ne180100IRSG_SJ_EEOT_OT0_, symObjAddr: 0x8CBC, symBinAddr: 0x10000BFDC, symSize: 0x48 }
  - { offset: 0x39FE6, size: 0x8, addend: 0x0, symName: __ZNSt3__122__compressed_pair_elemIPNS_11__tree_nodeINS_12__value_typeINS_12basic_stringIcNS_11char_traitsIcEENS_9allocatorIcEEEEN5boost10shared_ptrINS9_20dynamic_property_mapEEEEEPvEELi0ELb0EEC2B8ne180100IRSG_vEEOT_, symObjAddr: 0x8D04, symBinAddr: 0x10000C024, symSize: 0x24 }
  - { offset: 0x3A028, size: 0x8, addend: 0x0, symName: __ZNSt3__122__compressed_pair_elemINS_22__tree_node_destructorINS_9allocatorINS_11__tree_nodeINS_12__value_typeINS_12basic_stringIcNS_11char_traitsIcEENS2_IcEEEEN5boost10shared_ptrINSA_20dynamic_property_mapEEEEEPvEEEEEELi1ELb0EEC2B8ne180100ISI_vEEOT_, symObjAddr: 0x8D28, symBinAddr: 0x10000C048, symSize: 0x24 }
  - { offset: 0x3A06A, size: 0x8, addend: 0x0, symName: __ZNSt3__19allocatorINS_11__tree_nodeINS_12__value_typeINS_12basic_stringIcNS_11char_traitsIcEENS0_IcEEEEN5boost10shared_ptrINS8_20dynamic_property_mapEEEEEPvEEE9constructB8ne180100INS_4pairIKS7_SB_EEJSJ_EEEvPT_DpOT0_, symObjAddr: 0x8D4C, symBinAddr: 0x10000C06C, symSize: 0x30 }
  - { offset: 0x3A0C0, size: 0x8, addend: 0x0, symName: __ZNSt3__14pairIKNS_12basic_stringIcNS_11char_traitsIcEENS_9allocatorIcEEEEN5boost10shared_ptrINS8_20dynamic_property_mapEEEEC1B8ne180100EOSC_, symObjAddr: 0x8D7C, symBinAddr: 0x10000C09C, symSize: 0x34 }
  - { offset: 0x3A0F4, size: 0x8, addend: 0x0, symName: __ZNSt3__14pairIKNS_12basic_stringIcNS_11char_traitsIcEENS_9allocatorIcEEEEN5boost10shared_ptrINS8_20dynamic_property_mapEEEEC2B8ne180100EOSC_, symObjAddr: 0x8DB0, symBinAddr: 0x10000C0D0, symSize: 0x48 }
  - { offset: 0x3A128, size: 0x8, addend: 0x0, symName: __ZN5boost10shared_ptrINS_20dynamic_property_mapEEC1EOS2_, symObjAddr: 0x8DF8, symBinAddr: 0x10000C118, symSize: 0x34 }
  - { offset: 0x3A161, size: 0x8, addend: 0x0, symName: __ZN5boost10shared_ptrINS_20dynamic_property_mapEEC2EOS2_, symObjAddr: 0x8E2C, symBinAddr: 0x10000C14C, symSize: 0x50 }
  - { offset: 0x3A19A, size: 0x8, addend: 0x0, symName: __ZN5boost6detail12shared_countC1EOS1_, symObjAddr: 0x8E7C, symBinAddr: 0x10000C19C, symSize: 0x34 }
  - { offset: 0x3A1D3, size: 0x8, addend: 0x0, symName: __ZN5boost6detail12shared_countC2EOS1_, symObjAddr: 0x8EB0, symBinAddr: 0x10000C1D0, symSize: 0x2C }
  - { offset: 0x3A20C, size: 0x8, addend: 0x0, symName: __ZNSt3__117__compressed_pairIPNS_11__tree_nodeINS_12__value_typeINS_12basic_stringIcNS_11char_traitsIcEENS_9allocatorIcEEEEN5boost10shared_ptrINS9_20dynamic_property_mapEEEEEPvEENS_22__tree_node_destructorINS6_ISF_EEEEE6secondB8ne180100Ev, symObjAddr: 0x8EDC, symBinAddr: 0x10000C1FC, symSize: 0x28 }
  - { offset: 0x3A232, size: 0x8, addend: 0x0, symName: __ZNSt3__122__compressed_pair_elemINS_22__tree_node_destructorINS_9allocatorINS_11__tree_nodeINS_12__value_typeINS_12basic_stringIcNS_11char_traitsIcEENS2_IcEEEEN5boost10shared_ptrINSA_20dynamic_property_mapEEEEEPvEEEEEELi1ELb0EE5__getB8ne180100Ev, symObjAddr: 0x8F04, symBinAddr: 0x10000C224, symSize: 0x14 }
  - { offset: 0x3A258, size: 0x8, addend: 0x0, symName: __ZNSt3__16__treeINS_12__value_typeINS_12basic_stringIcNS_11char_traitsIcEENS_9allocatorIcEEEEN5boost10shared_ptrINS8_20dynamic_property_mapEEEEENS_19__map_value_compareIS7_SC_NS_4lessIS7_EELb1EEENS5_ISC_EEE10value_compB8ne180100Ev, symObjAddr: 0x8F18, symBinAddr: 0x10000C238, symSize: 0x28 }
  - { offset: 0x3A27E, size: 0x8, addend: 0x0, symName: __ZNKSt3__119__map_value_compareINS_12basic_stringIcNS_11char_traitsIcEENS_9allocatorIcEEEENS_12__value_typeIS6_N5boost10shared_ptrINS8_20dynamic_property_mapEEEEENS_4lessIS6_EELb1EEclB8ne180100ERKS6_RKSC_, symObjAddr: 0x8F40, symBinAddr: 0x10000C260, symSize: 0x50 }
  - { offset: 0x3A2C2, size: 0x8, addend: 0x0, symName: __ZNSt3__117__compressed_pairImNS_19__map_value_compareINS_12basic_stringIcNS_11char_traitsIcEENS_9allocatorIcEEEENS_12__value_typeIS7_N5boost10shared_ptrINS9_20dynamic_property_mapEEEEENS_4lessIS7_EELb1EEEE6secondB8ne180100Ev, symObjAddr: 0x8F90, symBinAddr: 0x10000C2B0, symSize: 0x24 }
  - { offset: 0x3A2E8, size: 0x8, addend: 0x0, symName: __ZNSt3__122__compressed_pair_elemINS_19__map_value_compareINS_12basic_stringIcNS_11char_traitsIcEENS_9allocatorIcEEEENS_12__value_typeIS7_N5boost10shared_ptrINS9_20dynamic_property_mapEEEEENS_4lessIS7_EELb1EEELi1ELb1EE5__getB8ne180100Ev, symObjAddr: 0x8FB4, symBinAddr: 0x10000C2D4, symSize: 0x14 }
  - { offset: 0x3A30E, size: 0x8, addend: 0x0, symName: __ZNKSt3__14lessINS_12basic_stringIcNS_11char_traitsIcEENS_9allocatorIcEEEEEclB8ne180100ERKS6_S9_, symObjAddr: 0x8FC8, symBinAddr: 0x10000C2E8, symSize: 0x34 }
  - { offset: 0x3A352, size: 0x8, addend: 0x0, symName: __ZNKSt3__112__value_typeINS_12basic_stringIcNS_11char_traitsIcEENS_9allocatorIcEEEEN5boost10shared_ptrINS7_20dynamic_property_mapEEEE11__get_valueB8ne180100Ev, symObjAddr: 0x8FFC, symBinAddr: 0x10000C31C, symSize: 0x24 }
  - { offset: 0x3A378, size: 0x8, addend: 0x0, symName: __ZNKSt3__112basic_stringIcNS_11char_traitsIcEENS_9allocatorIcEEE7compareB8ne180100ERKS5_, symObjAddr: 0x9058, symBinAddr: 0x10000C378, symSize: 0x4C }
  - { offset: 0x3A3AF, size: 0x8, addend: 0x0, symName: __ZNKSt3__112basic_stringIcNS_11char_traitsIcEENS_9allocatorIcEEE7compareINS_17basic_string_viewIcS2_EELi0EEEiRKT_, symObjAddr: 0x90A4, symBinAddr: 0x10000C3C4, symSize: 0x12C }
  - { offset: 0x3A432, size: 0x8, addend: 0x0, symName: __ZNKSt3__112basic_stringIcNS_11char_traitsIcEENS_9allocatorIcEEEcvNS_17basic_string_viewIcS2_EEB8ne180100Ev, symObjAddr: 0x91D0, symBinAddr: 0x10000C4F0, symSize: 0x50 }
  - { offset: 0x3A458, size: 0x8, addend: 0x0, symName: __ZNKSt3__117basic_string_viewIcNS_11char_traitsIcEEE4sizeB8ne180100Ev, symObjAddr: 0x9220, symBinAddr: 0x10000C540, symSize: 0x18 }
  - { offset: 0x3A47E, size: 0x8, addend: 0x0, symName: __ZNSt3__111char_traitsIcE7compareB8ne180100EPKcS3_m, symObjAddr: 0x9238, symBinAddr: 0x10000C558, symSize: 0x34 }
  - { offset: 0x3A4BD, size: 0x8, addend: 0x0, symName: __ZNKSt3__117basic_string_viewIcNS_11char_traitsIcEEE4dataB8ne180100Ev, symObjAddr: 0x926C, symBinAddr: 0x10000C58C, symSize: 0x18 }
  - { offset: 0x3A4EE, size: 0x8, addend: 0x0, symName: __ZNKSt3__16__lessIvvEclB8ne180100ImmEEbRKT_RKT0_, symObjAddr: 0x9304, symBinAddr: 0x10000C624, symSize: 0x34 }
  - { offset: 0x3A542, size: 0x8, addend: 0x0, symName: __ZNSt3__117basic_string_viewIcNS_11char_traitsIcEEEC1B8ne180100EPKcm, symObjAddr: 0x9338, symBinAddr: 0x10000C658, symSize: 0x3C }
  - { offset: 0x3A58A, size: 0x8, addend: 0x0, symName: __ZNSt3__117basic_string_viewIcNS_11char_traitsIcEEEC2B8ne180100EPKcm, symObjAddr: 0x9374, symBinAddr: 0x10000C694, symSize: 0x2C }
  - { offset: 0x3A5D2, size: 0x8, addend: 0x0, symName: __ZNKSt3__117__compressed_pairIPNS_11__tree_nodeINS_12__value_typeINS_12basic_stringIcNS_11char_traitsIcEENS_9allocatorIcEEEEN5boost10shared_ptrINS9_20dynamic_property_mapEEEEEPvEENS_22__tree_node_destructorINS6_ISF_EEEEE5firstB8ne180100Ev, symObjAddr: 0x93D8, symBinAddr: 0x10000C6F8, symSize: 0x24 }
  - { offset: 0x3A5F8, size: 0x8, addend: 0x0, symName: __ZNKSt3__122__compressed_pair_elemIPNS_11__tree_nodeINS_12__value_typeINS_12basic_stringIcNS_11char_traitsIcEENS_9allocatorIcEEEEN5boost10shared_ptrINS9_20dynamic_property_mapEEEEEPvEELi0ELb0EE5__getB8ne180100Ev, symObjAddr: 0x93FC, symBinAddr: 0x10000C71C, symSize: 0x14 }
  - { offset: 0x3A61E, size: 0x8, addend: 0x0, symName: __ZNSt3__16__treeINS_12__value_typeINS_12basic_stringIcNS_11char_traitsIcEENS_9allocatorIcEEEEN5boost10shared_ptrINS8_20dynamic_property_mapEEEEENS_19__map_value_compareIS7_SC_NS_4lessIS7_EELb1EEENS5_ISC_EEE4sizeB8ne180100Ev, symObjAddr: 0x973C, symBinAddr: 0x10000CA5C, symSize: 0x28 }
  - { offset: 0x3A644, size: 0x8, addend: 0x0, symName: __ZNKSt3__116__tree_node_baseIPvE15__parent_unsafeB8ne180100Ev, symObjAddr: 0x9764, symBinAddr: 0x10000CA84, symSize: 0x18 }
  - { offset: 0x3A66A, size: 0x8, addend: 0x0, symName: __ZNSt3__116__tree_node_baseIPvE12__set_parentB8ne180100EPS2_, symObjAddr: 0x994C, symBinAddr: 0x10000CC6C, symSize: 0x20 }
  - { offset: 0x3A69F, size: 0x8, addend: 0x0, symName: __ZNSt3__117__compressed_pairImNS_19__map_value_compareINS_12basic_stringIcNS_11char_traitsIcEENS_9allocatorIcEEEENS_12__value_typeIS7_N5boost10shared_ptrINS9_20dynamic_property_mapEEEEENS_4lessIS7_EELb1EEEE5firstB8ne180100Ev, symObjAddr: 0x996C, symBinAddr: 0x10000CC8C, symSize: 0x24 }
  - { offset: 0x3A6C5, size: 0x8, addend: 0x0, symName: __ZNSt3__117__compressed_pairIPNS_11__tree_nodeINS_12__value_typeINS_12basic_stringIcNS_11char_traitsIcEENS_9allocatorIcEEEEN5boost10shared_ptrINS9_20dynamic_property_mapEEEEEPvEENS_22__tree_node_destructorINS6_ISF_EEEEE5firstB8ne180100Ev, symObjAddr: 0x9990, symBinAddr: 0x10000CCB0, symSize: 0x24 }
  - { offset: 0x3A6EB, size: 0x8, addend: 0x0, symName: __ZNSt3__122__compressed_pair_elemIPNS_11__tree_nodeINS_12__value_typeINS_12basic_stringIcNS_11char_traitsIcEENS_9allocatorIcEEEEN5boost10shared_ptrINS9_20dynamic_property_mapEEEEEPvEELi0ELb0EE5__getB8ne180100Ev, symObjAddr: 0x99B4, symBinAddr: 0x10000CCD4, symSize: 0x14 }
  - { offset: 0x3A711, size: 0x8, addend: 0x0, symName: __ZNSt3__115__tree_iteratorINS_12__value_typeINS_12basic_stringIcNS_11char_traitsIcEENS_9allocatorIcEEEEN5boost10shared_ptrINS8_20dynamic_property_mapEEEEEPNS_11__tree_nodeISC_PvEElEC2B8ne180100ESG_, symObjAddr: 0x99C8, symBinAddr: 0x10000CCE8, symSize: 0x20 }
  - { offset: 0x3A74A, size: 0x8, addend: 0x0, symName: __ZNSt3__110unique_ptrINS_11__tree_nodeINS_12__value_typeINS_12basic_stringIcNS_11char_traitsIcEENS_9allocatorIcEEEEN5boost10shared_ptrINS9_20dynamic_property_mapEEEEEPvEENS_22__tree_node_destructorINS6_ISF_EEEEED2B8ne180100Ev, symObjAddr: 0x99E8, symBinAddr: 0x10000CD08, symSize: 0x30 }
  - { offset: 0x3A774, size: 0x8, addend: 0x0, symName: __ZNSt3__110unique_ptrINS_11__tree_nodeINS_12__value_typeINS_12basic_stringIcNS_11char_traitsIcEENS_9allocatorIcEEEEN5boost10shared_ptrINS9_20dynamic_property_mapEEEEEPvEENS_22__tree_node_destructorINS6_ISF_EEEEE5resetB8ne180100EPSF_, symObjAddr: 0x9A18, symBinAddr: 0x10000CD38, symSize: 0x78 }
  - { offset: 0x3A7B8, size: 0x8, addend: 0x0, symName: __ZNSt3__122__tree_node_destructorINS_9allocatorINS_11__tree_nodeINS_12__value_typeINS_12basic_stringIcNS_11char_traitsIcEENS1_IcEEEEN5boost10shared_ptrINS9_20dynamic_property_mapEEEEEPvEEEEEclB8ne180100EPSF_, symObjAddr: 0x9A90, symBinAddr: 0x10000CDB0, symSize: 0x98 }
  - { offset: 0x3A7ED, size: 0x8, addend: 0x0, symName: __ZNSt3__114__map_iteratorINS_15__tree_iteratorINS_12__value_typeINS_12basic_stringIcNS_11char_traitsIcEENS_9allocatorIcEEEEN5boost10shared_ptrINS9_20dynamic_property_mapEEEEEPNS_11__tree_nodeISD_PvEElEEEC2B8ne180100ESI_, symObjAddr: 0x9B28, symBinAddr: 0x10000CE48, symSize: 0x20 }
  - { offset: 0x3A826, size: 0x8, addend: 0x0, symName: __ZNSt3__14pairIKNS_12basic_stringIcNS_11char_traitsIcEENS_9allocatorIcEEEEN5boost10shared_ptrINS8_20dynamic_property_mapEEEEC2B8ne180100IRS7_RSB_Li0EEEOT_OT0_, symObjAddr: 0x9B48, symBinAddr: 0x10000CE68, symSize: 0x48 }
  - { offset: 0x3A884, size: 0x8, addend: 0x0, symName: __ZN5boost10shared_ptrINS_20dynamic_property_mapEEC1ERKS2_, symObjAddr: 0x9B90, symBinAddr: 0x10000CEB0, symSize: 0x34 }
  - { offset: 0x3A8BD, size: 0x8, addend: 0x0, symName: __ZN5boost10shared_ptrINS_20dynamic_property_mapEEC2ERKS2_, symObjAddr: 0x9BC4, symBinAddr: 0x10000CEE4, symSize: 0x48 }
  - { offset: 0x3A8F6, size: 0x8, addend: 0x0, symName: __ZNSt3__13setINS_12basic_stringIcNS_11char_traitsIcEENS_9allocatorIcEEEENS_4lessIS6_EENS4_IS6_EEEC2B8ne180100Ev, symObjAddr: 0x9C0C, symBinAddr: 0x10000CF2C, symSize: 0x30 }
  - { offset: 0x3A920, size: 0x8, addend: 0x0, symName: __ZNSt3__16__treeINS_12basic_stringIcNS_11char_traitsIcEENS_9allocatorIcEEEENS_4lessIS6_EENS4_IS6_EEEC1ERKS8_, symObjAddr: 0x9C3C, symBinAddr: 0x10000CF5C, symSize: 0x34 }
  - { offset: 0x3A95B, size: 0x8, addend: 0x0, symName: __ZNSt3__16__treeINS_12basic_stringIcNS_11char_traitsIcEENS_9allocatorIcEEEENS_4lessIS6_EENS4_IS6_EEEC2ERKS8_, symObjAddr: 0x9C70, symBinAddr: 0x10000CF90, symSize: 0x7C }
  - { offset: 0x3A996, size: 0x8, addend: 0x0, symName: __ZNSt3__117__compressed_pairINS_15__tree_end_nodeIPNS_16__tree_node_baseIPvEEEENS_9allocatorINS_11__tree_nodeINS_12basic_stringIcNS_11char_traitsIcEENS7_IcEEEES3_EEEEEC1B8ne180100ILb1EvEEv, symObjAddr: 0x9CEC, symBinAddr: 0x10000D00C, symSize: 0x2C }
  - { offset: 0x3A9CB, size: 0x8, addend: 0x0, symName: __ZNSt3__117__compressed_pairImNS_4lessINS_12basic_stringIcNS_11char_traitsIcEENS_9allocatorIcEEEEEEEC1B8ne180100IiRKS8_EEOT_OT0_, symObjAddr: 0x9D18, symBinAddr: 0x10000D038, symSize: 0x3C }
  - { offset: 0x3AA23, size: 0x8, addend: 0x0, symName: __ZNSt3__16__treeINS_12basic_stringIcNS_11char_traitsIcEENS_9allocatorIcEEEENS_4lessIS6_EENS4_IS6_EEE10__end_nodeB8ne180100Ev, symObjAddr: 0x9D54, symBinAddr: 0x10000D074, symSize: 0x2C }
  - { offset: 0x3AA49, size: 0x8, addend: 0x0, symName: __ZNSt3__16__treeINS_12basic_stringIcNS_11char_traitsIcEENS_9allocatorIcEEEENS_4lessIS6_EENS4_IS6_EEE12__begin_nodeB8ne180100Ev, symObjAddr: 0x9D80, symBinAddr: 0x10000D0A0, symSize: 0x14 }
  - { offset: 0x3AA6F, size: 0x8, addend: 0x0, symName: __ZNSt3__117__compressed_pairINS_15__tree_end_nodeIPNS_16__tree_node_baseIPvEEEENS_9allocatorINS_11__tree_nodeINS_12basic_stringIcNS_11char_traitsIcEENS7_IcEEEES3_EEEEEC2B8ne180100ILb1EvEEv, symObjAddr: 0x9D94, symBinAddr: 0x10000D0B4, symSize: 0x34 }
  - { offset: 0x3AAA4, size: 0x8, addend: 0x0, symName: __ZNSt3__122__compressed_pair_elemINS_9allocatorINS_11__tree_nodeINS_12basic_stringIcNS_11char_traitsIcEENS1_IcEEEEPvEEEELi1ELb1EEC2B8ne180100ENS_16__value_init_tagE, symObjAddr: 0x9DC8, symBinAddr: 0x10000D0E8, symSize: 0x2C }
  - { offset: 0x3AAD8, size: 0x8, addend: 0x0, symName: __ZNSt3__19allocatorINS_11__tree_nodeINS_12basic_stringIcNS_11char_traitsIcEENS0_IcEEEEPvEEEC2B8ne180100Ev, symObjAddr: 0x9DF4, symBinAddr: 0x10000D114, symSize: 0x2C }
  - { offset: 0x3AB02, size: 0x8, addend: 0x0, symName: __ZNSt3__116__non_trivial_ifILb1ENS_9allocatorINS_11__tree_nodeINS_12basic_stringIcNS_11char_traitsIcEENS1_IcEEEEPvEEEEEC2B8ne180100Ev, symObjAddr: 0x9E20, symBinAddr: 0x10000D140, symSize: 0x14 }
  - { offset: 0x3AB2C, size: 0x8, addend: 0x0, symName: __ZNSt3__117__compressed_pairImNS_4lessINS_12basic_stringIcNS_11char_traitsIcEENS_9allocatorIcEEEEEEEC2B8ne180100IiRKS8_EEOT_OT0_, symObjAddr: 0x9E34, symBinAddr: 0x10000D154, symSize: 0x44 }
  - { offset: 0x3AB84, size: 0x8, addend: 0x0, symName: __ZNSt3__122__compressed_pair_elemINS_4lessINS_12basic_stringIcNS_11char_traitsIcEENS_9allocatorIcEEEEEELi1ELb1EEC2B8ne180100IRKS8_vEEOT_, symObjAddr: 0x9E78, symBinAddr: 0x10000D198, symSize: 0x18 }
  - { offset: 0x3ABC6, size: 0x8, addend: 0x0, symName: __ZNSt3__117__compressed_pairINS_15__tree_end_nodeIPNS_16__tree_node_baseIPvEEEENS_9allocatorINS_11__tree_nodeINS_12basic_stringIcNS_11char_traitsIcEENS7_IcEEEES3_EEEEE5firstB8ne180100Ev, symObjAddr: 0x9E90, symBinAddr: 0x10000D1B0, symSize: 0x24 }
  - { offset: 0x3ABEC, size: 0x8, addend: 0x0, symName: __ZNSt3__13setINS_12basic_stringIcNS_11char_traitsIcEENS_9allocatorIcEEEENS_4lessIS6_EENS4_IS6_EEED2B8ne180100Ev, symObjAddr: 0x9EB4, symBinAddr: 0x10000D1D4, symSize: 0x2C }
  - { offset: 0x3AC16, size: 0x8, addend: 0x0, symName: __ZNSt3__16__treeINS_12basic_stringIcNS_11char_traitsIcEENS_9allocatorIcEEEENS_4lessIS6_EENS4_IS6_EEED1Ev, symObjAddr: 0x9EE0, symBinAddr: 0x10000D200, symSize: 0x2C }
  - { offset: 0x3AC42, size: 0x8, addend: 0x0, symName: __ZNSt3__16__treeINS_12basic_stringIcNS_11char_traitsIcEENS_9allocatorIcEEEENS_4lessIS6_EENS4_IS6_EEED2Ev, symObjAddr: 0x9F0C, symBinAddr: 0x10000D22C, symSize: 0x38 }
  - { offset: 0x3AC6E, size: 0x8, addend: 0x0, symName: __ZNSt3__16__treeINS_12basic_stringIcNS_11char_traitsIcEENS_9allocatorIcEEEENS_4lessIS6_EENS4_IS6_EEE7destroyEPNS_11__tree_nodeIS6_PvEE, symObjAddr: 0x9F44, symBinAddr: 0x10000D264, symSize: 0xAC }
  - { offset: 0x3ACBA, size: 0x8, addend: 0x0, symName: __ZNKSt3__16__treeINS_12basic_stringIcNS_11char_traitsIcEENS_9allocatorIcEEEENS_4lessIS6_EENS4_IS6_EEE6__rootB8ne180100Ev, symObjAddr: 0x9FF0, symBinAddr: 0x10000D310, symSize: 0x28 }
  - { offset: 0x3ACE0, size: 0x8, addend: 0x0, symName: __ZNSt3__16__treeINS_12basic_stringIcNS_11char_traitsIcEENS_9allocatorIcEEEENS_4lessIS6_EENS4_IS6_EEE12__node_allocB8ne180100Ev, symObjAddr: 0xA018, symBinAddr: 0x10000D338, symSize: 0x28 }
  - { offset: 0x3AD06, size: 0x8, addend: 0x0, symName: __ZNSt3__116allocator_traitsINS_9allocatorINS_11__tree_nodeINS_12basic_stringIcNS_11char_traitsIcEENS1_IcEEEEPvEEEEE7destroyB8ne180100IS7_vvEEvRSA_PT_, symObjAddr: 0xA040, symBinAddr: 0x10000D360, symSize: 0x28 }
  - { offset: 0x3AD41, size: 0x8, addend: 0x0, symName: __ZNSt3__122__tree_key_value_typesINS_12basic_stringIcNS_11char_traitsIcEENS_9allocatorIcEEEEE9__get_ptrB8ne180100ERS6_, symObjAddr: 0xA068, symBinAddr: 0x10000D388, symSize: 0x14 }
  - { offset: 0x3AD65, size: 0x8, addend: 0x0, symName: __ZNSt3__116allocator_traitsINS_9allocatorINS_11__tree_nodeINS_12basic_stringIcNS_11char_traitsIcEENS1_IcEEEEPvEEEEE10deallocateB8ne180100ERSA_PS9_m, symObjAddr: 0xA07C, symBinAddr: 0x10000D39C, symSize: 0x34 }
  - { offset: 0x3ADA7, size: 0x8, addend: 0x0, symName: __ZNSt3__117__compressed_pairINS_15__tree_end_nodeIPNS_16__tree_node_baseIPvEEEENS_9allocatorINS_11__tree_nodeINS_12basic_stringIcNS_11char_traitsIcEENS7_IcEEEES3_EEEEE6secondB8ne180100Ev, symObjAddr: 0xA0B0, symBinAddr: 0x10000D3D0, symSize: 0x24 }
  - { offset: 0x3ADCD, size: 0x8, addend: 0x0, symName: __ZNSt3__122__compressed_pair_elemINS_9allocatorINS_11__tree_nodeINS_12basic_stringIcNS_11char_traitsIcEENS1_IcEEEEPvEEEELi1ELb1EE5__getB8ne180100Ev, symObjAddr: 0xA0D4, symBinAddr: 0x10000D3F4, symSize: 0x14 }
  - { offset: 0x3ADF3, size: 0x8, addend: 0x0, symName: __ZNSt3__19allocatorINS_11__tree_nodeINS_12basic_stringIcNS_11char_traitsIcEENS0_IcEEEEPvEEE10deallocateB8ne180100EPS8_m, symObjAddr: 0xA10C, symBinAddr: 0x10000D42C, symSize: 0x44 }
  - { offset: 0x3AE35, size: 0x8, addend: 0x0, symName: __ZNKSt3__16__treeINS_12basic_stringIcNS_11char_traitsIcEENS_9allocatorIcEEEENS_4lessIS6_EENS4_IS6_EEE10__end_nodeB8ne180100Ev, symObjAddr: 0xA150, symBinAddr: 0x10000D470, symSize: 0x2C }
  - { offset: 0x3AE5B, size: 0x8, addend: 0x0, symName: __ZNKSt3__117__compressed_pairINS_15__tree_end_nodeIPNS_16__tree_node_baseIPvEEEENS_9allocatorINS_11__tree_nodeINS_12basic_stringIcNS_11char_traitsIcEENS7_IcEEEES3_EEEEE5firstB8ne180100Ev, symObjAddr: 0xA17C, symBinAddr: 0x10000D49C, symSize: 0x24 }
  - { offset: 0x3AE81, size: 0x8, addend: 0x0, symName: __ZNSt3__16__treeINS_12basic_stringIcNS_11char_traitsIcEENS_9allocatorIcEEEENS_4lessIS6_EENS4_IS6_EEE15__insert_uniqueB8ne180100EOS6_, symObjAddr: 0xA1A0, symBinAddr: 0x10000D4C0, symSize: 0x50 }
  - { offset: 0x3AEB6, size: 0x8, addend: 0x0, symName: __ZNSt3__14pairINS_21__tree_const_iteratorINS_12basic_stringIcNS_11char_traitsIcEENS_9allocatorIcEEEEPNS_11__tree_nodeIS7_PvEElEEbEC1B8ne180100INS_15__tree_iteratorIS7_SB_lEEbLi0EEEONS0_IT_T0_EE, symObjAddr: 0xA1F0, symBinAddr: 0x10000D510, symSize: 0x34 }
  - { offset: 0x3AF06, size: 0x8, addend: 0x0, symName: __ZNSt3__16__treeINS_12basic_stringIcNS_11char_traitsIcEENS_9allocatorIcEEEENS_4lessIS6_EENS4_IS6_EEE25__emplace_unique_key_argsIS6_JS6_EEENS_4pairINS_15__tree_iteratorIS6_PNS_11__tree_nodeIS6_PvEElEEbEERKT_DpOT0_, symObjAddr: 0xA224, symBinAddr: 0x10000D544, symSize: 0xF0 }
  - { offset: 0x3AFB2, size: 0x8, addend: 0x0, symName: __ZNSt3__122__tree_key_value_typesINS_12basic_stringIcNS_11char_traitsIcEENS_9allocatorIcEEEEE9__get_keyB8ne180100ERKS6_, symObjAddr: 0xA314, symBinAddr: 0x10000D634, symSize: 0x14 }
  - { offset: 0x3AFD6, size: 0x8, addend: 0x0, symName: __ZNSt3__16__treeINS_12basic_stringIcNS_11char_traitsIcEENS_9allocatorIcEEEENS_4lessIS6_EENS4_IS6_EEE12__find_equalIS6_EERPNS_16__tree_node_baseIPvEERPNS_15__tree_end_nodeISF_EERKT_, symObjAddr: 0xA328, symBinAddr: 0x10000D648, symSize: 0x184 }
  - { offset: 0x3B043, size: 0x8, addend: 0x0, symName: __ZNSt3__16__treeINS_12basic_stringIcNS_11char_traitsIcEENS_9allocatorIcEEEENS_4lessIS6_EENS4_IS6_EEE16__construct_nodeIJS6_EEENS_10unique_ptrINS_11__tree_nodeIS6_PvEENS_22__tree_node_destructorINS4_ISF_EEEEEEDpOT_, symObjAddr: 0xA4AC, symBinAddr: 0x10000D7CC, symSize: 0x108 }
  - { offset: 0x3B0A4, size: 0x8, addend: 0x0, symName: __ZNSt3__16__treeINS_12basic_stringIcNS_11char_traitsIcEENS_9allocatorIcEEEENS_4lessIS6_EENS4_IS6_EEE16__insert_node_atEPNS_15__tree_end_nodeIPNS_16__tree_node_baseIPvEEEERSF_SF_, symObjAddr: 0xA5B4, symBinAddr: 0x10000D8D4, symSize: 0xCC }
  - { offset: 0x3B0F9, size: 0x8, addend: 0x0, symName: __ZNKSt3__110unique_ptrINS_11__tree_nodeINS_12basic_stringIcNS_11char_traitsIcEENS_9allocatorIcEEEEPvEENS_22__tree_node_destructorINS5_IS9_EEEEE3getB8ne180100Ev, symObjAddr: 0xA680, symBinAddr: 0x10000D9A0, symSize: 0x28 }
  - { offset: 0x3B11F, size: 0x8, addend: 0x0, symName: __ZNSt3__110unique_ptrINS_11__tree_nodeINS_12basic_stringIcNS_11char_traitsIcEENS_9allocatorIcEEEEPvEENS_22__tree_node_destructorINS5_IS9_EEEEE7releaseB8ne180100Ev, symObjAddr: 0xA6A8, symBinAddr: 0x10000D9C8, symSize: 0x44 }
  - { offset: 0x3B154, size: 0x8, addend: 0x0, symName: __ZNSt3__110unique_ptrINS_11__tree_nodeINS_12basic_stringIcNS_11char_traitsIcEENS_9allocatorIcEEEEPvEENS_22__tree_node_destructorINS5_IS9_EEEEED1B8ne180100Ev, symObjAddr: 0xA6EC, symBinAddr: 0x10000DA0C, symSize: 0x2C }
  - { offset: 0x3B17E, size: 0x8, addend: 0x0, symName: __ZNSt3__115__tree_iteratorINS_12basic_stringIcNS_11char_traitsIcEENS_9allocatorIcEEEEPNS_11__tree_nodeIS6_PvEElEC1B8ne180100ESA_, symObjAddr: 0xA718, symBinAddr: 0x10000DA38, symSize: 0x34 }
  - { offset: 0x3B1BD, size: 0x8, addend: 0x0, symName: __ZNSt3__14pairINS_15__tree_iteratorINS_12basic_stringIcNS_11char_traitsIcEENS_9allocatorIcEEEEPNS_11__tree_nodeIS7_PvEElEEbEC1B8ne180100ISC_RbLi0EEEOT_OT0_, symObjAddr: 0xA74C, symBinAddr: 0x10000DA6C, symSize: 0x3C }
  - { offset: 0x3B21B, size: 0x8, addend: 0x0, symName: __ZNKSt3__16__treeINS_12basic_stringIcNS_11char_traitsIcEENS_9allocatorIcEEEENS_4lessIS6_EENS4_IS6_EEE10__root_ptrB8ne180100Ev, symObjAddr: 0xA788, symBinAddr: 0x10000DAA8, symSize: 0x24 }
  - { offset: 0x3B241, size: 0x8, addend: 0x0, symName: __ZNSt3__16__treeINS_12basic_stringIcNS_11char_traitsIcEENS_9allocatorIcEEEENS_4lessIS6_EENS4_IS6_EEE10value_compB8ne180100Ev, symObjAddr: 0xA7AC, symBinAddr: 0x10000DACC, symSize: 0x28 }
  - { offset: 0x3B267, size: 0x8, addend: 0x0, symName: __ZNSt3__117__compressed_pairImNS_4lessINS_12basic_stringIcNS_11char_traitsIcEENS_9allocatorIcEEEEEEE6secondB8ne180100Ev, symObjAddr: 0xA7D4, symBinAddr: 0x10000DAF4, symSize: 0x24 }
  - { offset: 0x3B28D, size: 0x8, addend: 0x0, symName: __ZNSt3__122__compressed_pair_elemINS_4lessINS_12basic_stringIcNS_11char_traitsIcEENS_9allocatorIcEEEEEELi1ELb1EE5__getB8ne180100Ev, symObjAddr: 0xA7F8, symBinAddr: 0x10000DB18, symSize: 0x14 }
  - { offset: 0x3B2B3, size: 0x8, addend: 0x0, symName: __ZNSt3__116allocator_traitsINS_9allocatorINS_11__tree_nodeINS_12basic_stringIcNS_11char_traitsIcEENS1_IcEEEEPvEEEEE8allocateB8ne180100ERSA_m, symObjAddr: 0xA80C, symBinAddr: 0x10000DB2C, symSize: 0x2C }
  - { offset: 0x3B2E6, size: 0x8, addend: 0x0, symName: __ZNSt3__122__tree_node_destructorINS_9allocatorINS_11__tree_nodeINS_12basic_stringIcNS_11char_traitsIcEENS1_IcEEEEPvEEEEEC1B8ne180100ERSA_b, symObjAddr: 0xA838, symBinAddr: 0x10000DB58, symSize: 0x48 }
  - { offset: 0x3B334, size: 0x8, addend: 0x0, symName: __ZNSt3__110unique_ptrINS_11__tree_nodeINS_12basic_stringIcNS_11char_traitsIcEENS_9allocatorIcEEEEPvEENS_22__tree_node_destructorINS5_IS9_EEEEEC1B8ne180100ILb1EvEEPS9_NS_16__dependent_typeINS_27__unique_ptr_deleter_sfinaeISC_EEXT_EE20__good_rval_ref_typeE, symObjAddr: 0xA880, symBinAddr: 0x10000DBA0, symSize: 0x3C }
  - { offset: 0x3B385, size: 0x8, addend: 0x0, symName: __ZNSt3__116allocator_traitsINS_9allocatorINS_11__tree_nodeINS_12basic_stringIcNS_11char_traitsIcEENS1_IcEEEEPvEEEEE9constructB8ne180100IS7_JS7_EvEEvRSA_PT_DpOT0_, symObjAddr: 0xA8BC, symBinAddr: 0x10000DBDC, symSize: 0x34 }
  - { offset: 0x3B3DC, size: 0x8, addend: 0x0, symName: __ZNKSt3__110unique_ptrINS_11__tree_nodeINS_12basic_stringIcNS_11char_traitsIcEENS_9allocatorIcEEEEPvEENS_22__tree_node_destructorINS5_IS9_EEEEEptB8ne180100Ev, symObjAddr: 0xA8F0, symBinAddr: 0x10000DC10, symSize: 0x28 }
  - { offset: 0x3B402, size: 0x8, addend: 0x0, symName: __ZNSt3__110unique_ptrINS_11__tree_nodeINS_12basic_stringIcNS_11char_traitsIcEENS_9allocatorIcEEEEPvEENS_22__tree_node_destructorINS5_IS9_EEEEE11get_deleterB8ne180100Ev, symObjAddr: 0xA918, symBinAddr: 0x10000DC38, symSize: 0x24 }
  - { offset: 0x3B428, size: 0x8, addend: 0x0, symName: __ZNSt3__19allocatorINS_11__tree_nodeINS_12basic_stringIcNS_11char_traitsIcEENS0_IcEEEEPvEEE8allocateB8ne180100Em, symObjAddr: 0xA93C, symBinAddr: 0x10000DC5C, symSize: 0x5C }
  - { offset: 0x3B467, size: 0x8, addend: 0x0, symName: __ZNSt3__116allocator_traitsINS_9allocatorINS_11__tree_nodeINS_12basic_stringIcNS_11char_traitsIcEENS1_IcEEEEPvEEEEE8max_sizeB8ne180100ISA_vEEmRKSA_, symObjAddr: 0xA998, symBinAddr: 0x10000DCB8, symSize: 0x24 }
  - { offset: 0x3B495, size: 0x8, addend: 0x0, symName: __ZNKSt3__19allocatorINS_11__tree_nodeINS_12basic_stringIcNS_11char_traitsIcEENS0_IcEEEEPvEEE8max_sizeB8ne180100Ev, symObjAddr: 0xA9BC, symBinAddr: 0x10000DCDC, symSize: 0x20 }
  - { offset: 0x3B4BB, size: 0x8, addend: 0x0, symName: __ZNSt3__122__tree_node_destructorINS_9allocatorINS_11__tree_nodeINS_12basic_stringIcNS_11char_traitsIcEENS1_IcEEEEPvEEEEEC2B8ne180100ERSA_b, symObjAddr: 0xA9DC, symBinAddr: 0x10000DCFC, symSize: 0x38 }
  - { offset: 0x3B503, size: 0x8, addend: 0x0, symName: __ZNSt3__110unique_ptrINS_11__tree_nodeINS_12basic_stringIcNS_11char_traitsIcEENS_9allocatorIcEEEEPvEENS_22__tree_node_destructorINS5_IS9_EEEEEC2B8ne180100ILb1EvEEPS9_NS_16__dependent_typeINS_27__unique_ptr_deleter_sfinaeISC_EEXT_EE20__good_rval_ref_typeE, symObjAddr: 0xAA14, symBinAddr: 0x10000DD34, symSize: 0x48 }
  - { offset: 0x3B554, size: 0x8, addend: 0x0, symName: __ZNSt3__117__compressed_pairIPNS_11__tree_nodeINS_12basic_stringIcNS_11char_traitsIcEENS_9allocatorIcEEEEPvEENS_22__tree_node_destructorINS5_IS9_EEEEEC1B8ne180100IRSA_SD_EEOT_OT0_, symObjAddr: 0xAA5C, symBinAddr: 0x10000DD7C, symSize: 0x3C }
  - { offset: 0x3B5AC, size: 0x8, addend: 0x0, symName: __ZNSt3__117__compressed_pairIPNS_11__tree_nodeINS_12basic_stringIcNS_11char_traitsIcEENS_9allocatorIcEEEEPvEENS_22__tree_node_destructorINS5_IS9_EEEEEC2B8ne180100IRSA_SD_EEOT_OT0_, symObjAddr: 0xAA98, symBinAddr: 0x10000DDB8, symSize: 0x48 }
  - { offset: 0x3B604, size: 0x8, addend: 0x0, symName: __ZNSt3__122__compressed_pair_elemIPNS_11__tree_nodeINS_12basic_stringIcNS_11char_traitsIcEENS_9allocatorIcEEEEPvEELi0ELb0EEC2B8ne180100IRSA_vEEOT_, symObjAddr: 0xAAE0, symBinAddr: 0x10000DE00, symSize: 0x24 }
  - { offset: 0x3B646, size: 0x8, addend: 0x0, symName: __ZNSt3__122__compressed_pair_elemINS_22__tree_node_destructorINS_9allocatorINS_11__tree_nodeINS_12basic_stringIcNS_11char_traitsIcEENS2_IcEEEEPvEEEEEELi1ELb0EEC2B8ne180100ISC_vEEOT_, symObjAddr: 0xAB04, symBinAddr: 0x10000DE24, symSize: 0x24 }
  - { offset: 0x3B688, size: 0x8, addend: 0x0, symName: __ZNSt3__19allocatorINS_11__tree_nodeINS_12basic_stringIcNS_11char_traitsIcEENS0_IcEEEEPvEEE9constructB8ne180100IS6_JS6_EEEvPT_DpOT0_, symObjAddr: 0xAB28, symBinAddr: 0x10000DE48, symSize: 0x30 }
  - { offset: 0x3B6DE, size: 0x8, addend: 0x0, symName: __ZNSt3__112basic_stringIcNS_11char_traitsIcEENS_9allocatorIcEEEC1B8ne180100EOS5_, symObjAddr: 0xAB58, symBinAddr: 0x10000DE78, symSize: 0x34 }
  - { offset: 0x3B717, size: 0x8, addend: 0x0, symName: __ZNSt3__112basic_stringIcNS_11char_traitsIcEENS_9allocatorIcEEEC2B8ne180100EOS5_, symObjAddr: 0xAB8C, symBinAddr: 0x10000DEAC, symSize: 0xB8 }
  - { offset: 0x3B782, size: 0x8, addend: 0x0, symName: __ZZNSt3__112basic_stringIcNS_11char_traitsIcEENS_9allocatorIcEEEC1B8ne180100EOS5_ENKUlRS5_E_clES7_, symObjAddr: 0xAC44, symBinAddr: 0x10000DF64, symSize: 0x40 }
  - { offset: 0x3B7BB, size: 0x8, addend: 0x0, symName: __ZNKSt3__112basic_stringIcNS_11char_traitsIcEENS_9allocatorIcEEE17__annotate_deleteB8ne180100Ev, symObjAddr: 0xAC84, symBinAddr: 0x10000DFA4, symSize: 0x10 }
  - { offset: 0x3B7E1, size: 0x8, addend: 0x0, symName: __ZNKSt3__117__compressed_pairIPNS_11__tree_nodeINS_12basic_stringIcNS_11char_traitsIcEENS_9allocatorIcEEEEPvEENS_22__tree_node_destructorINS5_IS9_EEEEE5firstB8ne180100Ev, symObjAddr: 0xAC94, symBinAddr: 0x10000DFB4, symSize: 0x24 }
  - { offset: 0x3B807, size: 0x8, addend: 0x0, symName: __ZNKSt3__122__compressed_pair_elemIPNS_11__tree_nodeINS_12basic_stringIcNS_11char_traitsIcEENS_9allocatorIcEEEEPvEELi0ELb0EE5__getB8ne180100Ev, symObjAddr: 0xACB8, symBinAddr: 0x10000DFD8, symSize: 0x14 }
  - { offset: 0x3B82D, size: 0x8, addend: 0x0, symName: __ZNSt3__117__compressed_pairIPNS_11__tree_nodeINS_12basic_stringIcNS_11char_traitsIcEENS_9allocatorIcEEEEPvEENS_22__tree_node_destructorINS5_IS9_EEEEE6secondB8ne180100Ev, symObjAddr: 0xACCC, symBinAddr: 0x10000DFEC, symSize: 0x28 }
  - { offset: 0x3B853, size: 0x8, addend: 0x0, symName: __ZNSt3__122__compressed_pair_elemINS_22__tree_node_destructorINS_9allocatorINS_11__tree_nodeINS_12basic_stringIcNS_11char_traitsIcEENS2_IcEEEEPvEEEEEELi1ELb0EE5__getB8ne180100Ev, symObjAddr: 0xACF4, symBinAddr: 0x10000E014, symSize: 0x14 }
  - { offset: 0x3B879, size: 0x8, addend: 0x0, symName: __ZNSt3__16__treeINS_12basic_stringIcNS_11char_traitsIcEENS_9allocatorIcEEEENS_4lessIS6_EENS4_IS6_EEE4sizeB8ne180100Ev, symObjAddr: 0xAD08, symBinAddr: 0x10000E028, symSize: 0x28 }
  - { offset: 0x3B89F, size: 0x8, addend: 0x0, symName: __ZNSt3__117__compressed_pairImNS_4lessINS_12basic_stringIcNS_11char_traitsIcEENS_9allocatorIcEEEEEEE5firstB8ne180100Ev, symObjAddr: 0xAD30, symBinAddr: 0x10000E050, symSize: 0x24 }
  - { offset: 0x3B8C5, size: 0x8, addend: 0x0, symName: __ZNSt3__117__compressed_pairIPNS_11__tree_nodeINS_12basic_stringIcNS_11char_traitsIcEENS_9allocatorIcEEEEPvEENS_22__tree_node_destructorINS5_IS9_EEEEE5firstB8ne180100Ev, symObjAddr: 0xAD54, symBinAddr: 0x10000E074, symSize: 0x24 }
  - { offset: 0x3B8EB, size: 0x8, addend: 0x0, symName: __ZNSt3__122__compressed_pair_elemIPNS_11__tree_nodeINS_12basic_stringIcNS_11char_traitsIcEENS_9allocatorIcEEEEPvEELi0ELb0EE5__getB8ne180100Ev, symObjAddr: 0xAD78, symBinAddr: 0x10000E098, symSize: 0x14 }
  - { offset: 0x3B911, size: 0x8, addend: 0x0, symName: __ZNSt3__110unique_ptrINS_11__tree_nodeINS_12basic_stringIcNS_11char_traitsIcEENS_9allocatorIcEEEEPvEENS_22__tree_node_destructorINS5_IS9_EEEEED2B8ne180100Ev, symObjAddr: 0xAD8C, symBinAddr: 0x10000E0AC, symSize: 0x30 }
  - { offset: 0x3B93B, size: 0x8, addend: 0x0, symName: __ZNSt3__110unique_ptrINS_11__tree_nodeINS_12basic_stringIcNS_11char_traitsIcEENS_9allocatorIcEEEEPvEENS_22__tree_node_destructorINS5_IS9_EEEEE5resetB8ne180100EPS9_, symObjAddr: 0xADBC, symBinAddr: 0x10000E0DC, symSize: 0x78 }
  - { offset: 0x3B97F, size: 0x8, addend: 0x0, symName: __ZNSt3__122__tree_node_destructorINS_9allocatorINS_11__tree_nodeINS_12basic_stringIcNS_11char_traitsIcEENS1_IcEEEEPvEEEEEclB8ne180100EPS9_, symObjAddr: 0xAE34, symBinAddr: 0x10000E154, symSize: 0x90 }
  - { offset: 0x3B9B4, size: 0x8, addend: 0x0, symName: __ZNSt3__115__tree_iteratorINS_12basic_stringIcNS_11char_traitsIcEENS_9allocatorIcEEEEPNS_11__tree_nodeIS6_PvEElEC2B8ne180100ESA_, symObjAddr: 0xAEC4, symBinAddr: 0x10000E1E4, symSize: 0x20 }
  - { offset: 0x3B9ED, size: 0x8, addend: 0x0, symName: __ZNSt3__14pairINS_15__tree_iteratorINS_12basic_stringIcNS_11char_traitsIcEENS_9allocatorIcEEEEPNS_11__tree_nodeIS7_PvEElEEbEC2B8ne180100ISC_RbLi0EEEOT_OT0_, symObjAddr: 0xAEE4, symBinAddr: 0x10000E204, symSize: 0x38 }
  - { offset: 0x3BA4B, size: 0x8, addend: 0x0, symName: __ZNSt3__14pairINS_21__tree_const_iteratorINS_12basic_stringIcNS_11char_traitsIcEENS_9allocatorIcEEEEPNS_11__tree_nodeIS7_PvEElEEbEC2B8ne180100INS_15__tree_iteratorIS7_SB_lEEbLi0EEEONS0_IT_T0_EE, symObjAddr: 0xAF1C, symBinAddr: 0x10000E23C, symSize: 0x50 }
  - { offset: 0x3BA9B, size: 0x8, addend: 0x0, symName: __ZNSt3__121__tree_const_iteratorINS_12basic_stringIcNS_11char_traitsIcEENS_9allocatorIcEEEEPNS_11__tree_nodeIS6_PvEElEC1B8ne180100ENS_15__tree_iteratorIS6_SA_lEE, symObjAddr: 0xAF6C, symBinAddr: 0x10000E28C, symSize: 0x34 }
  - { offset: 0x3BAD4, size: 0x8, addend: 0x0, symName: __ZNSt3__121__tree_const_iteratorINS_12basic_stringIcNS_11char_traitsIcEENS_9allocatorIcEEEEPNS_11__tree_nodeIS6_PvEElEC2B8ne180100ENS_15__tree_iteratorIS6_SA_lEE, symObjAddr: 0xAFA0, symBinAddr: 0x10000E2C0, symSize: 0x20 }
  - { offset: 0x3BB0D, size: 0x8, addend: 0x0, symName: __ZNSt3__16__treeINS_12basic_stringIcNS_11char_traitsIcEENS_9allocatorIcEEEENS_4lessIS6_EENS4_IS6_EEE5beginB8ne180100Ev, symObjAddr: 0xAFC0, symBinAddr: 0x10000E2E0, symSize: 0x34 }
  - { offset: 0x3BB33, size: 0x8, addend: 0x0, symName: __ZNSt3__115__tree_iteratorINS_12basic_stringIcNS_11char_traitsIcEENS_9allocatorIcEEEEPNS_11__tree_nodeIS6_PvEElEC1B8ne180100EPNS_15__tree_end_nodeIPNS_16__tree_node_baseIS8_EEEE, symObjAddr: 0xAFF4, symBinAddr: 0x10000E314, symSize: 0x34 }
  - { offset: 0x3BB6C, size: 0x8, addend: 0x0, symName: __ZNSt3__115__tree_iteratorINS_12basic_stringIcNS_11char_traitsIcEENS_9allocatorIcEEEEPNS_11__tree_nodeIS6_PvEElEC2B8ne180100EPNS_15__tree_end_nodeIPNS_16__tree_node_baseIS8_EEEE, symObjAddr: 0xB028, symBinAddr: 0x10000E348, symSize: 0x20 }
  - { offset: 0x3BBA5, size: 0x8, addend: 0x0, symName: __ZNSt3__16__treeINS_12basic_stringIcNS_11char_traitsIcEENS_9allocatorIcEEEENS_4lessIS6_EENS4_IS6_EEE3endB8ne180100Ev, symObjAddr: 0xB048, symBinAddr: 0x10000E368, symSize: 0x34 }
  - { offset: 0x3BBCB, size: 0x8, addend: 0x0, symName: __ZNKSt3__121__tree_const_iteratorINS_12basic_stringIcNS_11char_traitsIcEENS_9allocatorIcEEEEPNS_11__tree_nodeIS6_PvEElE8__get_npB8ne180100Ev, symObjAddr: 0xB16C, symBinAddr: 0x10000E48C, symSize: 0x18 }
  - { offset: 0x3BBF1, size: 0x8, addend: 0x0, symName: __ZNSt3__13mapINS_12basic_stringIcNS_11char_traitsIcEENS_9allocatorIcEEEES6_NS_4lessIS6_EENS4_INS_4pairIKS6_S6_EEEEEC2B8ne180100Ev, symObjAddr: 0xB184, symBinAddr: 0x10000E4A4, symSize: 0x40 }
  - { offset: 0x3BC1B, size: 0x8, addend: 0x0, symName: __ZNSt3__119__map_value_compareINS_12basic_stringIcNS_11char_traitsIcEENS_9allocatorIcEEEENS_12__value_typeIS6_S6_EENS_4lessIS6_EELb1EEC1B8ne180100ESA_, symObjAddr: 0xB1C4, symBinAddr: 0x10000E4E4, symSize: 0x2C }
  - { offset: 0x3BC54, size: 0x8, addend: 0x0, symName: __ZNSt3__16__treeINS_12__value_typeINS_12basic_stringIcNS_11char_traitsIcEENS_9allocatorIcEEEES7_EENS_19__map_value_compareIS7_S8_NS_4lessIS7_EELb1EEENS5_IS8_EEEC1ERKSC_, symObjAddr: 0xB1F0, symBinAddr: 0x10000E510, symSize: 0x34 }
  - { offset: 0x3BC8F, size: 0x8, addend: 0x0, symName: __ZNSt3__119__map_value_compareINS_12basic_stringIcNS_11char_traitsIcEENS_9allocatorIcEEEENS_12__value_typeIS6_S6_EENS_4lessIS6_EELb1EEC2B8ne180100ESA_, symObjAddr: 0xB224, symBinAddr: 0x10000E544, symSize: 0x14 }
  - { offset: 0x3BCC8, size: 0x8, addend: 0x0, symName: __ZNSt3__16__treeINS_12__value_typeINS_12basic_stringIcNS_11char_traitsIcEENS_9allocatorIcEEEES7_EENS_19__map_value_compareIS7_S8_NS_4lessIS7_EELb1EEENS5_IS8_EEEC2ERKSC_, symObjAddr: 0xB238, symBinAddr: 0x10000E558, symSize: 0x7C }
  - { offset: 0x3BD03, size: 0x8, addend: 0x0, symName: __ZNSt3__117__compressed_pairINS_15__tree_end_nodeIPNS_16__tree_node_baseIPvEEEENS_9allocatorINS_11__tree_nodeINS_12__value_typeINS_12basic_stringIcNS_11char_traitsIcEENS7_IcEEEESE_EES3_EEEEEC1B8ne180100ILb1EvEEv, symObjAddr: 0xB2B4, symBinAddr: 0x10000E5D4, symSize: 0x2C }
  - { offset: 0x3BD38, size: 0x8, addend: 0x0, symName: __ZNSt3__117__compressed_pairImNS_19__map_value_compareINS_12basic_stringIcNS_11char_traitsIcEENS_9allocatorIcEEEENS_12__value_typeIS7_S7_EENS_4lessIS7_EELb1EEEEC1B8ne180100IiRKSC_EEOT_OT0_, symObjAddr: 0xB2E0, symBinAddr: 0x10000E600, symSize: 0x3C }
  - { offset: 0x3BD90, size: 0x8, addend: 0x0, symName: __ZNSt3__16__treeINS_12__value_typeINS_12basic_stringIcNS_11char_traitsIcEENS_9allocatorIcEEEES7_EENS_19__map_value_compareIS7_S8_NS_4lessIS7_EELb1EEENS5_IS8_EEE10__end_nodeB8ne180100Ev, symObjAddr: 0xB31C, symBinAddr: 0x10000E63C, symSize: 0x2C }
  - { offset: 0x3BDB6, size: 0x8, addend: 0x0, symName: __ZNSt3__16__treeINS_12__value_typeINS_12basic_stringIcNS_11char_traitsIcEENS_9allocatorIcEEEES7_EENS_19__map_value_compareIS7_S8_NS_4lessIS7_EELb1EEENS5_IS8_EEE12__begin_nodeB8ne180100Ev, symObjAddr: 0xB348, symBinAddr: 0x10000E668, symSize: 0x14 }
  - { offset: 0x3BDDC, size: 0x8, addend: 0x0, symName: __ZNSt3__117__compressed_pairINS_15__tree_end_nodeIPNS_16__tree_node_baseIPvEEEENS_9allocatorINS_11__tree_nodeINS_12__value_typeINS_12basic_stringIcNS_11char_traitsIcEENS7_IcEEEESE_EES3_EEEEEC2B8ne180100ILb1EvEEv, symObjAddr: 0xB35C, symBinAddr: 0x10000E67C, symSize: 0x34 }
  - { offset: 0x3BE11, size: 0x8, addend: 0x0, symName: __ZNSt3__122__compressed_pair_elemINS_9allocatorINS_11__tree_nodeINS_12__value_typeINS_12basic_stringIcNS_11char_traitsIcEENS1_IcEEEES8_EEPvEEEELi1ELb1EEC2B8ne180100ENS_16__value_init_tagE, symObjAddr: 0xB390, symBinAddr: 0x10000E6B0, symSize: 0x2C }
  - { offset: 0x3BE45, size: 0x8, addend: 0x0, symName: __ZNSt3__19allocatorINS_11__tree_nodeINS_12__value_typeINS_12basic_stringIcNS_11char_traitsIcEENS0_IcEEEES7_EEPvEEEC2B8ne180100Ev, symObjAddr: 0xB3BC, symBinAddr: 0x10000E6DC, symSize: 0x2C }
  - { offset: 0x3BE6F, size: 0x8, addend: 0x0, symName: __ZNSt3__116__non_trivial_ifILb1ENS_9allocatorINS_11__tree_nodeINS_12__value_typeINS_12basic_stringIcNS_11char_traitsIcEENS1_IcEEEES8_EEPvEEEEEC2B8ne180100Ev, symObjAddr: 0xB3E8, symBinAddr: 0x10000E708, symSize: 0x14 }
  - { offset: 0x3BE99, size: 0x8, addend: 0x0, symName: __ZNSt3__117__compressed_pairImNS_19__map_value_compareINS_12basic_stringIcNS_11char_traitsIcEENS_9allocatorIcEEEENS_12__value_typeIS7_S7_EENS_4lessIS7_EELb1EEEEC2B8ne180100IiRKSC_EEOT_OT0_, symObjAddr: 0xB3FC, symBinAddr: 0x10000E71C, symSize: 0x44 }
  - { offset: 0x3BEF1, size: 0x8, addend: 0x0, symName: __ZNSt3__122__compressed_pair_elemINS_19__map_value_compareINS_12basic_stringIcNS_11char_traitsIcEENS_9allocatorIcEEEENS_12__value_typeIS7_S7_EENS_4lessIS7_EELb1EEELi1ELb1EEC2B8ne180100IRKSC_vEEOT_, symObjAddr: 0xB440, symBinAddr: 0x10000E760, symSize: 0x18 }
  - { offset: 0x3BF33, size: 0x8, addend: 0x0, symName: __ZNSt3__117__compressed_pairINS_15__tree_end_nodeIPNS_16__tree_node_baseIPvEEEENS_9allocatorINS_11__tree_nodeINS_12__value_typeINS_12basic_stringIcNS_11char_traitsIcEENS7_IcEEEESE_EES3_EEEEE5firstB8ne180100Ev, symObjAddr: 0xB458, symBinAddr: 0x10000E778, symSize: 0x24 }
  - { offset: 0x3BF59, size: 0x8, addend: 0x0, symName: __ZNSt3__13mapINS_12basic_stringIcNS_11char_traitsIcEENS_9allocatorIcEEEES6_NS_4lessIS6_EENS4_INS_4pairIKS6_S6_EEEEED2B8ne180100Ev, symObjAddr: 0xB47C, symBinAddr: 0x10000E79C, symSize: 0x2C }
  - { offset: 0x3BF83, size: 0x8, addend: 0x0, symName: __ZNSt3__16__treeINS_12__value_typeINS_12basic_stringIcNS_11char_traitsIcEENS_9allocatorIcEEEES7_EENS_19__map_value_compareIS7_S8_NS_4lessIS7_EELb1EEENS5_IS8_EEED1Ev, symObjAddr: 0xB4A8, symBinAddr: 0x10000E7C8, symSize: 0x2C }
  - { offset: 0x3BFAF, size: 0x8, addend: 0x0, symName: __ZNSt3__16__treeINS_12__value_typeINS_12basic_stringIcNS_11char_traitsIcEENS_9allocatorIcEEEES7_EENS_19__map_value_compareIS7_S8_NS_4lessIS7_EELb1EEENS5_IS8_EEED2Ev, symObjAddr: 0xB4D4, symBinAddr: 0x10000E7F4, symSize: 0x38 }
  - { offset: 0x3BFDB, size: 0x8, addend: 0x0, symName: __ZNSt3__16__treeINS_12__value_typeINS_12basic_stringIcNS_11char_traitsIcEENS_9allocatorIcEEEES7_EENS_19__map_value_compareIS7_S8_NS_4lessIS7_EELb1EEENS5_IS8_EEE7destroyEPNS_11__tree_nodeIS8_PvEE, symObjAddr: 0xB50C, symBinAddr: 0x10000E82C, symSize: 0xAC }
  - { offset: 0x3C027, size: 0x8, addend: 0x0, symName: __ZNKSt3__16__treeINS_12__value_typeINS_12basic_stringIcNS_11char_traitsIcEENS_9allocatorIcEEEES7_EENS_19__map_value_compareIS7_S8_NS_4lessIS7_EELb1EEENS5_IS8_EEE6__rootB8ne180100Ev, symObjAddr: 0xB5B8, symBinAddr: 0x10000E8D8, symSize: 0x28 }
  - { offset: 0x3C04D, size: 0x8, addend: 0x0, symName: __ZNSt3__16__treeINS_12__value_typeINS_12basic_stringIcNS_11char_traitsIcEENS_9allocatorIcEEEES7_EENS_19__map_value_compareIS7_S8_NS_4lessIS7_EELb1EEENS5_IS8_EEE12__node_allocB8ne180100Ev, symObjAddr: 0xB5E0, symBinAddr: 0x10000E900, symSize: 0x28 }
  - { offset: 0x3C073, size: 0x8, addend: 0x0, symName: __ZNSt3__116allocator_traitsINS_9allocatorINS_11__tree_nodeINS_12__value_typeINS_12basic_stringIcNS_11char_traitsIcEENS1_IcEEEES8_EEPvEEEEE7destroyB8ne180100INS_4pairIKS8_S8_EEvvEEvRSC_PT_, symObjAddr: 0xB608, symBinAddr: 0x10000E928, symSize: 0x28 }
  - { offset: 0x3C0AE, size: 0x8, addend: 0x0, symName: __ZNSt3__122__tree_key_value_typesINS_12__value_typeINS_12basic_stringIcNS_11char_traitsIcEENS_9allocatorIcEEEES7_EEE9__get_ptrB8ne180100ERS8_, symObjAddr: 0xB630, symBinAddr: 0x10000E950, symSize: 0x24 }
  - { offset: 0x3C0D2, size: 0x8, addend: 0x0, symName: __ZNSt3__116allocator_traitsINS_9allocatorINS_11__tree_nodeINS_12__value_typeINS_12basic_stringIcNS_11char_traitsIcEENS1_IcEEEES8_EEPvEEEEE10deallocateB8ne180100ERSC_PSB_m, symObjAddr: 0xB654, symBinAddr: 0x10000E974, symSize: 0x34 }
  - { offset: 0x3C114, size: 0x8, addend: 0x0, symName: __ZNSt3__117__compressed_pairINS_15__tree_end_nodeIPNS_16__tree_node_baseIPvEEEENS_9allocatorINS_11__tree_nodeINS_12__value_typeINS_12basic_stringIcNS_11char_traitsIcEENS7_IcEEEESE_EES3_EEEEE6secondB8ne180100Ev, symObjAddr: 0xB688, symBinAddr: 0x10000E9A8, symSize: 0x24 }
  - { offset: 0x3C13A, size: 0x8, addend: 0x0, symName: __ZNSt3__122__compressed_pair_elemINS_9allocatorINS_11__tree_nodeINS_12__value_typeINS_12basic_stringIcNS_11char_traitsIcEENS1_IcEEEES8_EEPvEEEELi1ELb1EE5__getB8ne180100Ev, symObjAddr: 0xB6AC, symBinAddr: 0x10000E9CC, symSize: 0x14 }
  - { offset: 0x3C160, size: 0x8, addend: 0x0, symName: __ZNSt3__14pairIKNS_12basic_stringIcNS_11char_traitsIcEENS_9allocatorIcEEEES6_ED1Ev, symObjAddr: 0xB6E4, symBinAddr: 0x10000EA04, symSize: 0x2C }
  - { offset: 0x3C18C, size: 0x8, addend: 0x0, symName: __ZNSt3__14pairIKNS_12basic_stringIcNS_11char_traitsIcEENS_9allocatorIcEEEES6_ED2Ev, symObjAddr: 0xB710, symBinAddr: 0x10000EA30, symSize: 0x38 }
  - { offset: 0x3C1B8, size: 0x8, addend: 0x0, symName: __ZNSt3__112__value_typeINS_12basic_stringIcNS_11char_traitsIcEENS_9allocatorIcEEEES6_E11__get_valueB8ne180100Ev, symObjAddr: 0xB748, symBinAddr: 0x10000EA68, symSize: 0x24 }
  - { offset: 0x3C1DE, size: 0x8, addend: 0x0, symName: __ZNSt3__19allocatorINS_11__tree_nodeINS_12__value_typeINS_12basic_stringIcNS_11char_traitsIcEENS0_IcEEEES7_EEPvEEE10deallocateB8ne180100EPSA_m, symObjAddr: 0xB7A4, symBinAddr: 0x10000EAC4, symSize: 0x44 }
  - { offset: 0x3C220, size: 0x8, addend: 0x0, symName: __ZNKSt3__16__treeINS_12__value_typeINS_12basic_stringIcNS_11char_traitsIcEENS_9allocatorIcEEEES7_EENS_19__map_value_compareIS7_S8_NS_4lessIS7_EELb1EEENS5_IS8_EEE10__end_nodeB8ne180100Ev, symObjAddr: 0xB7E8, symBinAddr: 0x10000EB08, symSize: 0x2C }
  - { offset: 0x3C246, size: 0x8, addend: 0x0, symName: __ZNKSt3__117__compressed_pairINS_15__tree_end_nodeIPNS_16__tree_node_baseIPvEEEENS_9allocatorINS_11__tree_nodeINS_12__value_typeINS_12basic_stringIcNS_11char_traitsIcEENS7_IcEEEESE_EES3_EEEEE5firstB8ne180100Ev, symObjAddr: 0xB814, symBinAddr: 0x10000EB34, symSize: 0x24 }
  - { offset: 0x3C26C, size: 0x8, addend: 0x0, symName: __ZN5boost24associative_property_mapINSt3__13mapINS1_12basic_stringIcNS1_11char_traitsIcEENS1_9allocatorIcEEEES8_NS1_4lessIS8_EENS6_INS1_4pairIKS8_S8_EEEEEEEC1ERSF_, symObjAddr: 0xB838, symBinAddr: 0x10000EB58, symSize: 0x34 }
  - { offset: 0x3C2A5, size: 0x8, addend: 0x0, symName: __ZN5boost24associative_property_mapINSt3__13mapINS1_12basic_stringIcNS1_11char_traitsIcEENS1_9allocatorIcEEEES8_NS1_4lessIS8_EENS6_INS1_4pairIKS8_S8_EEEEEEEC2ERSF_, symObjAddr: 0xB86C, symBinAddr: 0x10000EB8C, symSize: 0x20 }
  - { offset: 0x3C30D, size: 0x8, addend: 0x0, symName: __ZN5boost10shared_ptrINS_6detail28dynamic_property_map_adaptorINS_24associative_property_mapINSt3__13mapINS4_12basic_stringIcNS4_11char_traitsIcEENS4_9allocatorIcEEEESB_NS4_4lessISB_EENS9_INS4_4pairIKSB_SB_EEEEEEEEEEED1Ev, symObjAddr: 0xB998, symBinAddr: 0x10000ECB8, symSize: 0x2C }
  - { offset: 0x3C339, size: 0x8, addend: 0x0, symName: __ZNK5boost10shared_ptrINS_6detail28dynamic_property_map_adaptorINS_24associative_property_mapINSt3__13mapINS4_12basic_stringIcNS4_11char_traitsIcEENS4_9allocatorIcEEEESB_NS4_4lessISB_EENS9_INS4_4pairIKSB_SB_EEEEEEEEEEE3getEv, symObjAddr: 0xB9C4, symBinAddr: 0x10000ECE4, symSize: 0x18 }
  - { offset: 0x3C35F, size: 0x8, addend: 0x0, symName: __ZN5boost10shared_ptrINS_20dynamic_property_mapEEC1INS_6detail28dynamic_property_map_adaptorINS_24associative_property_mapINSt3__13mapINS7_12basic_stringIcNS7_11char_traitsIcEENS7_9allocatorIcEEEESE_NS7_4lessISE_EENSC_INS7_4pairIKSE_SE_EEEEEEEEEEEEONS0_IT_EEPS1_, symObjAddr: 0xB9DC, symBinAddr: 0x10000ECFC, symSize: 0x3C }
  - { offset: 0x3C3B0, size: 0x8, addend: 0x0, symName: __ZN5boost10shared_ptrINS_20dynamic_property_mapEEC2INS_6detail28dynamic_property_map_adaptorINS_24associative_property_mapINSt3__13mapINS7_12basic_stringIcNS7_11char_traitsIcEENS7_9allocatorIcEEEESE_NS7_4lessISE_EENSC_INS7_4pairIKSE_SE_EEEEEEEEEEEEONS0_IT_EEPS1_, symObjAddr: 0xBA18, symBinAddr: 0x10000ED38, symSize: 0x5C }
  - { offset: 0x3C401, size: 0x8, addend: 0x0, symName: __ZN5boost10shared_ptrINS_6detail28dynamic_property_map_adaptorINS_24associative_property_mapINSt3__13mapINS4_12basic_stringIcNS4_11char_traitsIcEENS4_9allocatorIcEEEESB_NS4_4lessISB_EENS9_INS4_4pairIKSB_SB_EEEEEEEEEEEC1ISK_NS1_14sp_inplace_tagINS1_13sp_ms_deleterISK_EEEEEEPT_T0_, symObjAddr: 0xBA74, symBinAddr: 0x10000ED94, symSize: 0x34 }
  - { offset: 0x3C45B, size: 0x8, addend: 0x0, symName: __ZNK5boost10shared_ptrINS_6detail28dynamic_property_map_adaptorINS_24associative_property_mapINSt3__13mapINS4_12basic_stringIcNS4_11char_traitsIcEENS4_9allocatorIcEEEESB_NS4_4lessISB_EENS9_INS4_4pairIKSB_SB_EEEEEEEEEEE29_internal_get_untyped_deleterEv, symObjAddr: 0xBAA8, symBinAddr: 0x10000EDC8, symSize: 0x28 }
  - { offset: 0x3C481, size: 0x8, addend: 0x0, symName: __ZN5boost6detail13sp_ms_deleterINS0_28dynamic_property_map_adaptorINS_24associative_property_mapINSt3__13mapINS4_12basic_stringIcNS4_11char_traitsIcEENS4_9allocatorIcEEEESB_NS4_4lessISB_EENS9_INS4_4pairIKSB_SB_EEEEEEEEEEE7addressEv, symObjAddr: 0xBAD0, symBinAddr: 0x10000EDF0, symSize: 0x18 }
  - { offset: 0x3C4A7, size: 0x8, addend: 0x0, symName: __ZN5boost6detail28dynamic_property_map_adaptorINS_24associative_property_mapINSt3__13mapINS3_12basic_stringIcNS3_11char_traitsIcEENS3_9allocatorIcEEEESA_NS3_4lessISA_EENS8_INS3_4pairIKSA_SA_EEEEEEEEEC1ERKSI_, symObjAddr: 0xBAE8, symBinAddr: 0x10000EE08, symSize: 0x34 }
  - { offset: 0x3C4DF, size: 0x8, addend: 0x0, symName: __ZN5boost6detail13sp_ms_deleterINS0_28dynamic_property_map_adaptorINS_24associative_property_mapINSt3__13mapINS4_12basic_stringIcNS4_11char_traitsIcEENS4_9allocatorIcEEEESB_NS4_4lessISB_EENS9_INS4_4pairIKSB_SB_EEEEEEEEEEE15set_initializedEv, symObjAddr: 0xBB1C, symBinAddr: 0x10000EE3C, symSize: 0x1C }
  - { offset: 0x3C505, size: 0x8, addend: 0x0, symName: __ZN5boost10shared_ptrINS_6detail28dynamic_property_map_adaptorINS_24associative_property_mapINSt3__13mapINS4_12basic_stringIcNS4_11char_traitsIcEENS4_9allocatorIcEEEESB_NS4_4lessISB_EENS9_INS4_4pairIKSB_SB_EEEEEEEEEEEC1ISK_EERKNS0_IT_EEPSK_, symObjAddr: 0xBB38, symBinAddr: 0x10000EE58, symSize: 0x3C }
  - { offset: 0x3C556, size: 0x8, addend: 0x0, symName: __ZN5boost10shared_ptrINS_6detail28dynamic_property_map_adaptorINS_24associative_property_mapINSt3__13mapINS4_12basic_stringIcNS4_11char_traitsIcEENS4_9allocatorIcEEEESB_NS4_4lessISB_EENS9_INS4_4pairIKSB_SB_EEEEEEEEEEEC2ISK_NS1_14sp_inplace_tagINS1_13sp_ms_deleterISK_EEEEEEPT_T0_, symObjAddr: 0xBB74, symBinAddr: 0x10000EE94, symSize: 0x74 }
  - { offset: 0x3C5B0, size: 0x8, addend: 0x0, symName: __ZN5boost6detail12shared_countC1IPNS0_28dynamic_property_map_adaptorINS_24associative_property_mapINSt3__13mapINS5_12basic_stringIcNS5_11char_traitsIcEENS5_9allocatorIcEEEESC_NS5_4lessISC_EENSA_INS5_4pairIKSC_SC_EEEEEEEEEENS0_13sp_ms_deleterISL_EEEET_NS0_14sp_inplace_tagIT0_EE, symObjAddr: 0xBBE8, symBinAddr: 0x10000EF08, symSize: 0x34 }
  - { offset: 0x3C604, size: 0x8, addend: 0x0, symName: __ZN5boost6detail12shared_countC2IPNS0_28dynamic_property_map_adaptorINS_24associative_property_mapINSt3__13mapINS5_12basic_stringIcNS5_11char_traitsIcEENS5_9allocatorIcEEEESC_NS5_4lessISC_EENSA_INS5_4pairIKSC_SC_EEEEEEEEEENS0_13sp_ms_deleterISL_EEEET_NS0_14sp_inplace_tagIT0_EE, symObjAddr: 0xBC5C, symBinAddr: 0x10000EF7C, symSize: 0xCC }
  - { offset: 0x3C675, size: 0x8, addend: 0x0, symName: __ZN5boost6detail18sp_counted_impl_pdIPNS0_28dynamic_property_map_adaptorINS_24associative_property_mapINSt3__13mapINS4_12basic_stringIcNS4_11char_traitsIcEENS4_9allocatorIcEEEESB_NS4_4lessISB_EENS9_INS4_4pairIKSB_SB_EEEEEEEEEENS0_13sp_ms_deleterISK_EEEC1ESL_, symObjAddr: 0xBD28, symBinAddr: 0x10000F048, symSize: 0x34 }
  - { offset: 0x3C6AD, size: 0x8, addend: 0x0, symName: __ZN5boost6detail13sp_ms_deleterINS0_28dynamic_property_map_adaptorINS_24associative_property_mapINSt3__13mapINS4_12basic_stringIcNS4_11char_traitsIcEENS4_9allocatorIcEEEESB_NS4_4lessISB_EENS9_INS4_4pairIKSB_SB_EEEEEEEEEEE11operator_fnEPSK_, symObjAddr: 0xBD5C, symBinAddr: 0x10000F07C, symSize: 0x10 }
  - { offset: 0x3C6CC, size: 0x8, addend: 0x0, symName: __ZN5boost6detail18sp_counted_impl_pdIPNS0_28dynamic_property_map_adaptorINS_24associative_property_mapINSt3__13mapINS4_12basic_stringIcNS4_11char_traitsIcEENS4_9allocatorIcEEEESB_NS4_4lessISB_EENS9_INS4_4pairIKSB_SB_EEEEEEEEEENS0_13sp_ms_deleterISK_EEEC2ESL_, symObjAddr: 0xBD6C, symBinAddr: 0x10000F08C, symSize: 0x54 }
  - { offset: 0x3C704, size: 0x8, addend: 0x0, symName: __ZN5boost6detail13sp_ms_deleterINS0_28dynamic_property_map_adaptorINS_24associative_property_mapINSt3__13mapINS4_12basic_stringIcNS4_11char_traitsIcEENS4_9allocatorIcEEEESB_NS4_4lessISB_EENS9_INS4_4pairIKSB_SB_EEEEEEEEEEEC1Ev, symObjAddr: 0xBDC0, symBinAddr: 0x10000F0E0, symSize: 0x2C }
  - { offset: 0x3C72E, size: 0x8, addend: 0x0, symName: __ZN5boost6detail18sp_counted_impl_pdIPNS0_28dynamic_property_map_adaptorINS_24associative_property_mapINSt3__13mapINS4_12basic_stringIcNS4_11char_traitsIcEENS4_9allocatorIcEEEESB_NS4_4lessISB_EENS9_INS4_4pairIKSB_SB_EEEEEEEEEENS0_13sp_ms_deleterISK_EEED1Ev, symObjAddr: 0xBDEC, symBinAddr: 0x10000F10C, symSize: 0x2C }
  - { offset: 0x3C75A, size: 0x8, addend: 0x0, symName: __ZN5boost6detail18sp_counted_impl_pdIPNS0_28dynamic_property_map_adaptorINS_24associative_property_mapINSt3__13mapINS4_12basic_stringIcNS4_11char_traitsIcEENS4_9allocatorIcEEEESB_NS4_4lessISB_EENS9_INS4_4pairIKSB_SB_EEEEEEEEEENS0_13sp_ms_deleterISK_EEED0Ev, symObjAddr: 0xBE18, symBinAddr: 0x10000F138, symSize: 0x30 }
  - { offset: 0x3C786, size: 0x8, addend: 0x0, symName: __ZN5boost6detail18sp_counted_impl_pdIPNS0_28dynamic_property_map_adaptorINS_24associative_property_mapINSt3__13mapINS4_12basic_stringIcNS4_11char_traitsIcEENS4_9allocatorIcEEEESB_NS4_4lessISB_EENS9_INS4_4pairIKSB_SB_EEEEEEEEEENS0_13sp_ms_deleterISK_EEE7disposeEv, symObjAddr: 0xBE48, symBinAddr: 0x10000F168, symSize: 0x2C }
  - { offset: 0x3C7AC, size: 0x8, addend: 0x0, symName: __ZN5boost6detail18sp_counted_impl_pdIPNS0_28dynamic_property_map_adaptorINS_24associative_property_mapINSt3__13mapINS4_12basic_stringIcNS4_11char_traitsIcEENS4_9allocatorIcEEEESB_NS4_4lessISB_EENS9_INS4_4pairIKSB_SB_EEEEEEEEEENS0_13sp_ms_deleterISK_EEE11get_deleterERKSt9type_info, symObjAddr: 0xBE74, symBinAddr: 0x10000F194, symSize: 0x60 }
  - { offset: 0x3C7E0, size: 0x8, addend: 0x0, symName: __ZN5boost6detail18sp_counted_impl_pdIPNS0_28dynamic_property_map_adaptorINS_24associative_property_mapINSt3__13mapINS4_12basic_stringIcNS4_11char_traitsIcEENS4_9allocatorIcEEEESB_NS4_4lessISB_EENS9_INS4_4pairIKSB_SB_EEEEEEEEEENS0_13sp_ms_deleterISK_EEE17get_local_deleterERKSt9type_info, symObjAddr: 0xBED4, symBinAddr: 0x10000F1F4, symSize: 0x68 }
  - { offset: 0x3C814, size: 0x8, addend: 0x0, symName: __ZN5boost6detail18sp_counted_impl_pdIPNS0_28dynamic_property_map_adaptorINS_24associative_property_mapINSt3__13mapINS4_12basic_stringIcNS4_11char_traitsIcEENS4_9allocatorIcEEEESB_NS4_4lessISB_EENS9_INS4_4pairIKSB_SB_EEEEEEEEEENS0_13sp_ms_deleterISK_EEE19get_untyped_deleterEv, symObjAddr: 0xBF3C, symBinAddr: 0x10000F25C, symSize: 0x18 }
  - { offset: 0x3C83A, size: 0x8, addend: 0x0, symName: __ZN5boost6detail13sp_ms_deleterINS0_28dynamic_property_map_adaptorINS_24associative_property_mapINSt3__13mapINS4_12basic_stringIcNS4_11char_traitsIcEENS4_9allocatorIcEEEESB_NS4_4lessISB_EENS9_INS4_4pairIKSB_SB_EEEEEEEEEEEC2Ev, symObjAddr: 0xBF54, symBinAddr: 0x10000F274, symSize: 0x18 }
  - { offset: 0x3C864, size: 0x8, addend: 0x0, symName: __ZN5boost6detail18sp_counted_impl_pdIPNS0_28dynamic_property_map_adaptorINS_24associative_property_mapINSt3__13mapINS4_12basic_stringIcNS4_11char_traitsIcEENS4_9allocatorIcEEEESB_NS4_4lessISB_EENS9_INS4_4pairIKSB_SB_EEEEEEEEEENS0_13sp_ms_deleterISK_EEED2Ev, symObjAddr: 0xBF6C, symBinAddr: 0x10000F28C, symSize: 0x48 }
  - { offset: 0x3C890, size: 0x8, addend: 0x0, symName: __ZN5boost6detail13sp_ms_deleterINS0_28dynamic_property_map_adaptorINS_24associative_property_mapINSt3__13mapINS4_12basic_stringIcNS4_11char_traitsIcEENS4_9allocatorIcEEEESB_NS4_4lessISB_EENS9_INS4_4pairIKSB_SB_EEEEEEEEEEED1Ev, symObjAddr: 0xBFB4, symBinAddr: 0x10000F2D4, symSize: 0x2C }
  - { offset: 0x3C8BA, size: 0x8, addend: 0x0, symName: __ZN5boost6detail13sp_ms_deleterINS0_28dynamic_property_map_adaptorINS_24associative_property_mapINSt3__13mapINS4_12basic_stringIcNS4_11char_traitsIcEENS4_9allocatorIcEEEESB_NS4_4lessISB_EENS9_INS4_4pairIKSB_SB_EEEEEEEEEEED2Ev, symObjAddr: 0xBFE0, symBinAddr: 0x10000F300, symSize: 0x2C }
  - { offset: 0x3C8E4, size: 0x8, addend: 0x0, symName: __ZN5boost6detail13sp_ms_deleterINS0_28dynamic_property_map_adaptorINS_24associative_property_mapINSt3__13mapINS4_12basic_stringIcNS4_11char_traitsIcEENS4_9allocatorIcEEEESB_NS4_4lessISB_EENS9_INS4_4pairIKSB_SB_EEEEEEEEEEE7destroyEv, symObjAddr: 0xC00C, symBinAddr: 0x10000F32C, symSize: 0x58 }
  - { offset: 0x3C926, size: 0x8, addend: 0x0, symName: __ZN5boost6detail13sp_ms_deleterINS0_28dynamic_property_map_adaptorINS_24associative_property_mapINSt3__13mapINS4_12basic_stringIcNS4_11char_traitsIcEENS4_9allocatorIcEEEESB_NS4_4lessISB_EENS9_INS4_4pairIKSB_SB_EEEEEEEEEEEclEPSK_, symObjAddr: 0xC064, symBinAddr: 0x10000F384, symSize: 0x28 }
  - { offset: 0x3C956, size: 0x8, addend: 0x0, symName: __ZN5boost6detail28dynamic_property_map_adaptorINS_24associative_property_mapINSt3__13mapINS3_12basic_stringIcNS3_11char_traitsIcEENS3_9allocatorIcEEEESA_NS3_4lessISA_EENS8_INS3_4pairIKSA_SA_EEEEEEEEEC2ERKSI_, symObjAddr: 0xC0B4, symBinAddr: 0x10000F3D4, symSize: 0x4C }
  - { offset: 0x3C98E, size: 0x8, addend: 0x0, symName: __ZN5boost6detail28dynamic_property_map_adaptorINS_24associative_property_mapINSt3__13mapINS3_12basic_stringIcNS3_11char_traitsIcEENS3_9allocatorIcEEEESA_NS3_4lessISA_EENS8_INS3_4pairIKSA_SA_EEEEEEEEED1Ev, symObjAddr: 0xC100, symBinAddr: 0x10000F420, symSize: 0x2C }
  - { offset: 0x3C9BA, size: 0x8, addend: 0x0, symName: __ZN5boost6detail28dynamic_property_map_adaptorINS_24associative_property_mapINSt3__13mapINS3_12basic_stringIcNS3_11char_traitsIcEENS3_9allocatorIcEEEESA_NS3_4lessISA_EENS8_INS3_4pairIKSA_SA_EEEEEEEEED0Ev, symObjAddr: 0xC12C, symBinAddr: 0x10000F44C, symSize: 0x30 }
  - { offset: 0x3C9E6, size: 0x8, addend: 0x0, symName: __ZN5boost6detail28dynamic_property_map_adaptorINS_24associative_property_mapINSt3__13mapINS3_12basic_stringIcNS3_11char_traitsIcEENS3_9allocatorIcEEEESA_NS3_4lessISA_EENS8_INS3_4pairIKSA_SA_EEEEEEEEE3getERKNS_3anyE, symObjAddr: 0xC15C, symBinAddr: 0x10000F47C, symSize: 0x98 }
  - { offset: 0x3CA1A, size: 0x8, addend: 0x0, symName: __ZN5boost6detail28dynamic_property_map_adaptorINS_24associative_property_mapINSt3__13mapINS3_12basic_stringIcNS3_11char_traitsIcEENS3_9allocatorIcEEEESA_NS3_4lessISA_EENS8_INS3_4pairIKSA_SA_EEEEEEEEE10get_stringERKNS_3anyE, symObjAddr: 0xC1F4, symBinAddr: 0x10000F514, symSize: 0xE8 }
  - { offset: 0x3CA5D, size: 0x8, addend: 0x0, symName: __ZN5boost6detail28dynamic_property_map_adaptorINS_24associative_property_mapINSt3__13mapINS3_12basic_stringIcNS3_11char_traitsIcEENS3_9allocatorIcEEEESA_NS3_4lessISA_EENS8_INS3_4pairIKSA_SA_EEEEEEEEE3putERKNS_3anyESM_, symObjAddr: 0xC2DC, symBinAddr: 0x10000F5FC, symSize: 0x34 }
  - { offset: 0x3CA9F, size: 0x8, addend: 0x0, symName: __ZNK5boost6detail28dynamic_property_map_adaptorINS_24associative_property_mapINSt3__13mapINS3_12basic_stringIcNS3_11char_traitsIcEENS3_9allocatorIcEEEESA_NS3_4lessISA_EENS8_INS3_4pairIKSA_SA_EEEEEEEEE3keyEv, symObjAddr: 0xC310, symBinAddr: 0x10000F630, symSize: 0x18 }
  - { offset: 0x3CAC5, size: 0x8, addend: 0x0, symName: __ZNK5boost6detail28dynamic_property_map_adaptorINS_24associative_property_mapINSt3__13mapINS3_12basic_stringIcNS3_11char_traitsIcEENS3_9allocatorIcEEEESA_NS3_4lessISA_EENS8_INS3_4pairIKSA_SA_EEEEEEEEE5valueEv, symObjAddr: 0xC328, symBinAddr: 0x10000F648, symSize: 0x18 }
  - { offset: 0x3CAEB, size: 0x8, addend: 0x0, symName: __ZN5boost6detail28dynamic_property_map_adaptorINS_24associative_property_mapINSt3__13mapINS3_12basic_stringIcNS3_11char_traitsIcEENS3_9allocatorIcEEEESA_NS3_4lessISA_EENS8_INS3_4pairIKSA_SA_EEEEEEEEED2Ev, symObjAddr: 0xC340, symBinAddr: 0x10000F660, symSize: 0x2C }
  - { offset: 0x3CB17, size: 0x8, addend: 0x0, symName: __ZN5boost3anyC1IRNSt3__112basic_stringIcNS2_11char_traitsIcEENS2_9allocatorIcEEEEEEOT_PNS2_9enable_ifIXntsr3std7is_sameIRS0_SA_EE5valueEvE4typeEPNSC_IXntsr8is_constISA_EE5valueEvE4typeE, symObjAddr: 0xC3D0, symBinAddr: 0x10000F6F0, symSize: 0x44 }
  - { offset: 0x3CB6C, size: 0x8, addend: 0x0, symName: __ZNK5boost24associative_property_mapINSt3__13mapINS1_12basic_stringIcNS1_11char_traitsIcEENS1_9allocatorIcEEEES8_NS1_4lessIS8_EENS6_INS1_4pairIKS8_S8_EEEEEEEixERSC_, symObjAddr: 0xC448, symBinAddr: 0x10000F768, symSize: 0x30 }
  - { offset: 0x3CBA1, size: 0x8, addend: 0x0, symName: __ZNSt3__13mapINS_12basic_stringIcNS_11char_traitsIcEENS_9allocatorIcEEEES6_NS_4lessIS6_EENS4_INS_4pairIKS6_S6_EEEEEixERSA_, symObjAddr: 0xC478, symBinAddr: 0x10000F798, symSize: 0x80 }
  - { offset: 0x3CBF0, size: 0x8, addend: 0x0, symName: __ZNSt3__16__treeINS_12__value_typeINS_12basic_stringIcNS_11char_traitsIcEENS_9allocatorIcEEEES7_EENS_19__map_value_compareIS7_S8_NS_4lessIS7_EELb1EEENS5_IS8_EEE25__emplace_unique_key_argsIS7_JRKNS_21piecewise_construct_tENS_5tupleIJRKS7_EEENSJ_IJEEEEEENS_4pairINS_15__tree_iteratorIS8_PNS_11__tree_nodeIS8_PvEElEEbEERKT_DpOT0_, symObjAddr: 0xC4F8, symBinAddr: 0x10000F818, symSize: 0x100 }
  - { offset: 0x3CCC6, size: 0x8, addend: 0x0, symName: __ZNKSt3__115__tree_iteratorINS_12__value_typeINS_12basic_stringIcNS_11char_traitsIcEENS_9allocatorIcEEEES7_EEPNS_11__tree_nodeIS8_PvEElEptB8ne180100Ev, symObjAddr: 0xC628, symBinAddr: 0x10000F948, symSize: 0x2C }
  - { offset: 0x3CCEC, size: 0x8, addend: 0x0, symName: __ZNSt3__16__treeINS_12__value_typeINS_12basic_stringIcNS_11char_traitsIcEENS_9allocatorIcEEEES7_EENS_19__map_value_compareIS7_S8_NS_4lessIS7_EELb1EEENS5_IS8_EEE12__find_equalIS7_EERPNS_16__tree_node_baseIPvEERPNS_15__tree_end_nodeISJ_EERKT_, symObjAddr: 0xC654, symBinAddr: 0x10000F974, symSize: 0x184 }
  - { offset: 0x3CD59, size: 0x8, addend: 0x0, symName: __ZNSt3__16__treeINS_12__value_typeINS_12basic_stringIcNS_11char_traitsIcEENS_9allocatorIcEEEES7_EENS_19__map_value_compareIS7_S8_NS_4lessIS7_EELb1EEENS5_IS8_EEE16__construct_nodeIJRKNS_21piecewise_construct_tENS_5tupleIJRKS7_EEENSJ_IJEEEEEENS_10unique_ptrINS_11__tree_nodeIS8_PvEENS_22__tree_node_destructorINS5_ISR_EEEEEEDpOT_, symObjAddr: 0xC7D8, symBinAddr: 0x10000FAF8, symSize: 0x120 }
  - { offset: 0x3CDE2, size: 0x8, addend: 0x0, symName: __ZNSt3__16__treeINS_12__value_typeINS_12basic_stringIcNS_11char_traitsIcEENS_9allocatorIcEEEES7_EENS_19__map_value_compareIS7_S8_NS_4lessIS7_EELb1EEENS5_IS8_EEE16__insert_node_atEPNS_15__tree_end_nodeIPNS_16__tree_node_baseIPvEEEERSJ_SJ_, symObjAddr: 0xC8F8, symBinAddr: 0x10000FC18, symSize: 0xCC }
  - { offset: 0x3CE37, size: 0x8, addend: 0x0, symName: __ZNKSt3__110unique_ptrINS_11__tree_nodeINS_12__value_typeINS_12basic_stringIcNS_11char_traitsIcEENS_9allocatorIcEEEES8_EEPvEENS_22__tree_node_destructorINS6_ISB_EEEEE3getB8ne180100Ev, symObjAddr: 0xC9C4, symBinAddr: 0x10000FCE4, symSize: 0x28 }
  - { offset: 0x3CE5D, size: 0x8, addend: 0x0, symName: __ZNSt3__110unique_ptrINS_11__tree_nodeINS_12__value_typeINS_12basic_stringIcNS_11char_traitsIcEENS_9allocatorIcEEEES8_EEPvEENS_22__tree_node_destructorINS6_ISB_EEEEE7releaseB8ne180100Ev, symObjAddr: 0xC9EC, symBinAddr: 0x10000FD0C, symSize: 0x44 }
  - { offset: 0x3CE92, size: 0x8, addend: 0x0, symName: __ZNSt3__110unique_ptrINS_11__tree_nodeINS_12__value_typeINS_12basic_stringIcNS_11char_traitsIcEENS_9allocatorIcEEEES8_EEPvEENS_22__tree_node_destructorINS6_ISB_EEEEED1B8ne180100Ev, symObjAddr: 0xCA30, symBinAddr: 0x10000FD50, symSize: 0x2C }
  - { offset: 0x3CEBC, size: 0x8, addend: 0x0, symName: __ZNSt3__115__tree_iteratorINS_12__value_typeINS_12basic_stringIcNS_11char_traitsIcEENS_9allocatorIcEEEES7_EEPNS_11__tree_nodeIS8_PvEElEC1B8ne180100ESC_, symObjAddr: 0xCA5C, symBinAddr: 0x10000FD7C, symSize: 0x34 }
  - { offset: 0x3CEFB, size: 0x8, addend: 0x0, symName: __ZNSt3__14pairINS_15__tree_iteratorINS_12__value_typeINS_12basic_stringIcNS_11char_traitsIcEENS_9allocatorIcEEEES8_EEPNS_11__tree_nodeIS9_PvEElEEbEC1B8ne180100ISE_RbLi0EEEOT_OT0_, symObjAddr: 0xCA90, symBinAddr: 0x10000FDB0, symSize: 0x3C }
  - { offset: 0x3CF59, size: 0x8, addend: 0x0, symName: __ZNKSt3__16__treeINS_12__value_typeINS_12basic_stringIcNS_11char_traitsIcEENS_9allocatorIcEEEES7_EENS_19__map_value_compareIS7_S8_NS_4lessIS7_EELb1EEENS5_IS8_EEE10__root_ptrB8ne180100Ev, symObjAddr: 0xCACC, symBinAddr: 0x10000FDEC, symSize: 0x24 }
  - { offset: 0x3CF7F, size: 0x8, addend: 0x0, symName: __ZNSt3__16__treeINS_12__value_typeINS_12basic_stringIcNS_11char_traitsIcEENS_9allocatorIcEEEES7_EENS_19__map_value_compareIS7_S8_NS_4lessIS7_EELb1EEENS5_IS8_EEE10value_compB8ne180100Ev, symObjAddr: 0xCAF0, symBinAddr: 0x10000FE10, symSize: 0x28 }
  - { offset: 0x3CFA5, size: 0x8, addend: 0x0, symName: __ZNKSt3__119__map_value_compareINS_12basic_stringIcNS_11char_traitsIcEENS_9allocatorIcEEEENS_12__value_typeIS6_S6_EENS_4lessIS6_EELb1EEclB8ne180100ERKS6_RKS8_, symObjAddr: 0xCB18, symBinAddr: 0x10000FE38, symSize: 0x50 }
  - { offset: 0x3CFE9, size: 0x8, addend: 0x0, symName: __ZNKSt3__119__map_value_compareINS_12basic_stringIcNS_11char_traitsIcEENS_9allocatorIcEEEENS_12__value_typeIS6_S6_EENS_4lessIS6_EELb1EEclB8ne180100ERKS8_RKS6_, symObjAddr: 0xCB68, symBinAddr: 0x10000FE88, symSize: 0x48 }
  - { offset: 0x3D02D, size: 0x8, addend: 0x0, symName: __ZNSt3__117__compressed_pairImNS_19__map_value_compareINS_12basic_stringIcNS_11char_traitsIcEENS_9allocatorIcEEEENS_12__value_typeIS7_S7_EENS_4lessIS7_EELb1EEEE6secondB8ne180100Ev, symObjAddr: 0xCBB0, symBinAddr: 0x10000FED0, symSize: 0x24 }
  - { offset: 0x3D053, size: 0x8, addend: 0x0, symName: __ZNSt3__122__compressed_pair_elemINS_19__map_value_compareINS_12basic_stringIcNS_11char_traitsIcEENS_9allocatorIcEEEENS_12__value_typeIS7_S7_EENS_4lessIS7_EELb1EEELi1ELb1EE5__getB8ne180100Ev, symObjAddr: 0xCBD4, symBinAddr: 0x10000FEF4, symSize: 0x14 }
  - { offset: 0x3D079, size: 0x8, addend: 0x0, symName: __ZNKSt3__112__value_typeINS_12basic_stringIcNS_11char_traitsIcEENS_9allocatorIcEEEES6_E11__get_valueB8ne180100Ev, symObjAddr: 0xCBE8, symBinAddr: 0x10000FF08, symSize: 0x24 }
  - { offset: 0x3D09F, size: 0x8, addend: 0x0, symName: __ZNSt3__116allocator_traitsINS_9allocatorINS_11__tree_nodeINS_12__value_typeINS_12basic_stringIcNS_11char_traitsIcEENS1_IcEEEES8_EEPvEEEEE8allocateB8ne180100ERSC_m, symObjAddr: 0xCC44, symBinAddr: 0x10000FF64, symSize: 0x2C }
  - { offset: 0x3D0D2, size: 0x8, addend: 0x0, symName: __ZNSt3__122__tree_node_destructorINS_9allocatorINS_11__tree_nodeINS_12__value_typeINS_12basic_stringIcNS_11char_traitsIcEENS1_IcEEEES8_EEPvEEEEEC1B8ne180100ERSC_b, symObjAddr: 0xCC70, symBinAddr: 0x10000FF90, symSize: 0x48 }
  - { offset: 0x3D120, size: 0x8, addend: 0x0, symName: __ZNSt3__110unique_ptrINS_11__tree_nodeINS_12__value_typeINS_12basic_stringIcNS_11char_traitsIcEENS_9allocatorIcEEEES8_EEPvEENS_22__tree_node_destructorINS6_ISB_EEEEEC1B8ne180100ILb1EvEEPSB_NS_16__dependent_typeINS_27__unique_ptr_deleter_sfinaeISE_EEXT_EE20__good_rval_ref_typeE, symObjAddr: 0xCCB8, symBinAddr: 0x10000FFD8, symSize: 0x3C }
  - { offset: 0x3D171, size: 0x8, addend: 0x0, symName: __ZNSt3__116allocator_traitsINS_9allocatorINS_11__tree_nodeINS_12__value_typeINS_12basic_stringIcNS_11char_traitsIcEENS1_IcEEEES8_EEPvEEEEE9constructB8ne180100INS_4pairIKS8_S8_EEJRKNS_21piecewise_construct_tENS_5tupleIJRSG_EEENSL_IJEEEEvEEvRSC_PT_DpOT0_, symObjAddr: 0xCCF4, symBinAddr: 0x100010014, symSize: 0x44 }
  - { offset: 0x3D1F0, size: 0x8, addend: 0x0, symName: __ZNKSt3__110unique_ptrINS_11__tree_nodeINS_12__value_typeINS_12basic_stringIcNS_11char_traitsIcEENS_9allocatorIcEEEES8_EEPvEENS_22__tree_node_destructorINS6_ISB_EEEEEptB8ne180100Ev, symObjAddr: 0xCD38, symBinAddr: 0x100010058, symSize: 0x28 }
  - { offset: 0x3D216, size: 0x8, addend: 0x0, symName: __ZNSt3__110unique_ptrINS_11__tree_nodeINS_12__value_typeINS_12basic_stringIcNS_11char_traitsIcEENS_9allocatorIcEEEES8_EEPvEENS_22__tree_node_destructorINS6_ISB_EEEEE11get_deleterB8ne180100Ev, symObjAddr: 0xCD60, symBinAddr: 0x100010080, symSize: 0x24 }
  - { offset: 0x3D23C, size: 0x8, addend: 0x0, symName: __ZNSt3__19allocatorINS_11__tree_nodeINS_12__value_typeINS_12basic_stringIcNS_11char_traitsIcEENS0_IcEEEES7_EEPvEEE8allocateB8ne180100Em, symObjAddr: 0xCD84, symBinAddr: 0x1000100A4, symSize: 0x5C }
  - { offset: 0x3D27B, size: 0x8, addend: 0x0, symName: __ZNSt3__116allocator_traitsINS_9allocatorINS_11__tree_nodeINS_12__value_typeINS_12basic_stringIcNS_11char_traitsIcEENS1_IcEEEES8_EEPvEEEEE8max_sizeB8ne180100ISC_vEEmRKSC_, symObjAddr: 0xCDE0, symBinAddr: 0x100010100, symSize: 0x24 }
  - { offset: 0x3D2A9, size: 0x8, addend: 0x0, symName: __ZNKSt3__19allocatorINS_11__tree_nodeINS_12__value_typeINS_12basic_stringIcNS_11char_traitsIcEENS0_IcEEEES7_EEPvEEE8max_sizeB8ne180100Ev, symObjAddr: 0xCE04, symBinAddr: 0x100010124, symSize: 0x18 }
  - { offset: 0x3D2CF, size: 0x8, addend: 0x0, symName: __ZNSt3__122__tree_node_destructorINS_9allocatorINS_11__tree_nodeINS_12__value_typeINS_12basic_stringIcNS_11char_traitsIcEENS1_IcEEEES8_EEPvEEEEEC2B8ne180100ERSC_b, symObjAddr: 0xCE1C, symBinAddr: 0x10001013C, symSize: 0x38 }
  - { offset: 0x3D317, size: 0x8, addend: 0x0, symName: __ZNSt3__110unique_ptrINS_11__tree_nodeINS_12__value_typeINS_12basic_stringIcNS_11char_traitsIcEENS_9allocatorIcEEEES8_EEPvEENS_22__tree_node_destructorINS6_ISB_EEEEEC2B8ne180100ILb1EvEEPSB_NS_16__dependent_typeINS_27__unique_ptr_deleter_sfinaeISE_EEXT_EE20__good_rval_ref_typeE, symObjAddr: 0xCE54, symBinAddr: 0x100010174, symSize: 0x48 }
  - { offset: 0x3D368, size: 0x8, addend: 0x0, symName: __ZNSt3__117__compressed_pairIPNS_11__tree_nodeINS_12__value_typeINS_12basic_stringIcNS_11char_traitsIcEENS_9allocatorIcEEEES8_EEPvEENS_22__tree_node_destructorINS6_ISB_EEEEEC1B8ne180100IRSC_SF_EEOT_OT0_, symObjAddr: 0xCE9C, symBinAddr: 0x1000101BC, symSize: 0x3C }
  - { offset: 0x3D3C0, size: 0x8, addend: 0x0, symName: __ZNSt3__117__compressed_pairIPNS_11__tree_nodeINS_12__value_typeINS_12basic_stringIcNS_11char_traitsIcEENS_9allocatorIcEEEES8_EEPvEENS_22__tree_node_destructorINS6_ISB_EEEEEC2B8ne180100IRSC_SF_EEOT_OT0_, symObjAddr: 0xCED8, symBinAddr: 0x1000101F8, symSize: 0x48 }
  - { offset: 0x3D418, size: 0x8, addend: 0x0, symName: __ZNSt3__122__compressed_pair_elemIPNS_11__tree_nodeINS_12__value_typeINS_12basic_stringIcNS_11char_traitsIcEENS_9allocatorIcEEEES8_EEPvEELi0ELb0EEC2B8ne180100IRSC_vEEOT_, symObjAddr: 0xCF20, symBinAddr: 0x100010240, symSize: 0x24 }
  - { offset: 0x3D45A, size: 0x8, addend: 0x0, symName: __ZNSt3__122__compressed_pair_elemINS_22__tree_node_destructorINS_9allocatorINS_11__tree_nodeINS_12__value_typeINS_12basic_stringIcNS_11char_traitsIcEENS2_IcEEEES9_EEPvEEEEEELi1ELb0EEC2B8ne180100ISE_vEEOT_, symObjAddr: 0xCF44, symBinAddr: 0x100010264, symSize: 0x24 }
  - { offset: 0x3D49C, size: 0x8, addend: 0x0, symName: __ZNSt3__19allocatorINS_11__tree_nodeINS_12__value_typeINS_12basic_stringIcNS_11char_traitsIcEENS0_IcEEEES7_EEPvEEE9constructB8ne180100INS_4pairIKS7_S7_EEJRKNS_21piecewise_construct_tENS_5tupleIJRSE_EEENSJ_IJEEEEEEvPT_DpOT0_, symObjAddr: 0xCF68, symBinAddr: 0x100010288, symSize: 0x44 }
  - { offset: 0x3D518, size: 0x8, addend: 0x0, symName: __ZNSt3__14pairIKNS_12basic_stringIcNS_11char_traitsIcEENS_9allocatorIcEEEES6_EC1B8ne180100IJRS7_EJEEENS_21piecewise_construct_tENS_5tupleIJDpT_EEENSC_IJDpT0_EEE, symObjAddr: 0xCFAC, symBinAddr: 0x1000102CC, symSize: 0x3C }
  - { offset: 0x3D57F, size: 0x8, addend: 0x0, symName: __ZNSt3__14pairIKNS_12basic_stringIcNS_11char_traitsIcEENS_9allocatorIcEEEES6_EC1B8ne180100IJRS7_EJEJLm0EEJEEENS_21piecewise_construct_tERNS_5tupleIJDpT_EEERNSC_IJDpT0_EEENS_15__tuple_indicesIJXspT1_EEEENSL_IJXspT2_EEEE, symObjAddr: 0xCFE8, symBinAddr: 0x100010308, symSize: 0x3C }
  - { offset: 0x3D60F, size: 0x8, addend: 0x0, symName: __ZNSt3__14pairIKNS_12basic_stringIcNS_11char_traitsIcEENS_9allocatorIcEEEES6_EC2B8ne180100IJRS7_EJEJLm0EEJEEENS_21piecewise_construct_tERNS_5tupleIJDpT_EEERNSC_IJDpT0_EEENS_15__tuple_indicesIJXspT1_EEEENSL_IJXspT2_EEEE, symObjAddr: 0xD024, symBinAddr: 0x100010344, symSize: 0x50 }
  - { offset: 0x3D69F, size: 0x8, addend: 0x0, symName: __ZNSt3__112__tuple_leafILm0ERKNS_12basic_stringIcNS_11char_traitsIcEENS_9allocatorIcEEEELb0EE3getB8ne180100Ev, symObjAddr: 0xD098, symBinAddr: 0x1000103B8, symSize: 0x18 }
  - { offset: 0x3D6C5, size: 0x8, addend: 0x0, symName: __ZNKSt3__117__compressed_pairIPNS_11__tree_nodeINS_12__value_typeINS_12basic_stringIcNS_11char_traitsIcEENS_9allocatorIcEEEES8_EEPvEENS_22__tree_node_destructorINS6_ISB_EEEEE5firstB8ne180100Ev, symObjAddr: 0xD0B0, symBinAddr: 0x1000103D0, symSize: 0x24 }
  - { offset: 0x3D6EB, size: 0x8, addend: 0x0, symName: __ZNKSt3__122__compressed_pair_elemIPNS_11__tree_nodeINS_12__value_typeINS_12basic_stringIcNS_11char_traitsIcEENS_9allocatorIcEEEES8_EEPvEELi0ELb0EE5__getB8ne180100Ev, symObjAddr: 0xD0D4, symBinAddr: 0x1000103F4, symSize: 0x14 }
  - { offset: 0x3D711, size: 0x8, addend: 0x0, symName: __ZNSt3__117__compressed_pairIPNS_11__tree_nodeINS_12__value_typeINS_12basic_stringIcNS_11char_traitsIcEENS_9allocatorIcEEEES8_EEPvEENS_22__tree_node_destructorINS6_ISB_EEEEE6secondB8ne180100Ev, symObjAddr: 0xD0E8, symBinAddr: 0x100010408, symSize: 0x28 }
  - { offset: 0x3D737, size: 0x8, addend: 0x0, symName: __ZNSt3__122__compressed_pair_elemINS_22__tree_node_destructorINS_9allocatorINS_11__tree_nodeINS_12__value_typeINS_12basic_stringIcNS_11char_traitsIcEENS2_IcEEEES9_EEPvEEEEEELi1ELb0EE5__getB8ne180100Ev, symObjAddr: 0xD110, symBinAddr: 0x100010430, symSize: 0x14 }
  - { offset: 0x3D75D, size: 0x8, addend: 0x0, symName: __ZNSt3__16__treeINS_12__value_typeINS_12basic_stringIcNS_11char_traitsIcEENS_9allocatorIcEEEES7_EENS_19__map_value_compareIS7_S8_NS_4lessIS7_EELb1EEENS5_IS8_EEE4sizeB8ne180100Ev, symObjAddr: 0xD124, symBinAddr: 0x100010444, symSize: 0x28 }
  - { offset: 0x3D783, size: 0x8, addend: 0x0, symName: __ZNSt3__117__compressed_pairImNS_19__map_value_compareINS_12basic_stringIcNS_11char_traitsIcEENS_9allocatorIcEEEENS_12__value_typeIS7_S7_EENS_4lessIS7_EELb1EEEE5firstB8ne180100Ev, symObjAddr: 0xD14C, symBinAddr: 0x10001046C, symSize: 0x24 }
  - { offset: 0x3D7A9, size: 0x8, addend: 0x0, symName: __ZNSt3__117__compressed_pairIPNS_11__tree_nodeINS_12__value_typeINS_12basic_stringIcNS_11char_traitsIcEENS_9allocatorIcEEEES8_EEPvEENS_22__tree_node_destructorINS6_ISB_EEEEE5firstB8ne180100Ev, symObjAddr: 0xD170, symBinAddr: 0x100010490, symSize: 0x24 }
  - { offset: 0x3D7CF, size: 0x8, addend: 0x0, symName: __ZNSt3__122__compressed_pair_elemIPNS_11__tree_nodeINS_12__value_typeINS_12basic_stringIcNS_11char_traitsIcEENS_9allocatorIcEEEES8_EEPvEELi0ELb0EE5__getB8ne180100Ev, symObjAddr: 0xD194, symBinAddr: 0x1000104B4, symSize: 0x14 }
  - { offset: 0x3D7F5, size: 0x8, addend: 0x0, symName: __ZNSt3__110unique_ptrINS_11__tree_nodeINS_12__value_typeINS_12basic_stringIcNS_11char_traitsIcEENS_9allocatorIcEEEES8_EEPvEENS_22__tree_node_destructorINS6_ISB_EEEEED2B8ne180100Ev, symObjAddr: 0xD1A8, symBinAddr: 0x1000104C8, symSize: 0x30 }
  - { offset: 0x3D81F, size: 0x8, addend: 0x0, symName: __ZNSt3__110unique_ptrINS_11__tree_nodeINS_12__value_typeINS_12basic_stringIcNS_11char_traitsIcEENS_9allocatorIcEEEES8_EEPvEENS_22__tree_node_destructorINS6_ISB_EEEEE5resetB8ne180100EPSB_, symObjAddr: 0xD1D8, symBinAddr: 0x1000104F8, symSize: 0x78 }
  - { offset: 0x3D863, size: 0x8, addend: 0x0, symName: __ZNSt3__122__tree_node_destructorINS_9allocatorINS_11__tree_nodeINS_12__value_typeINS_12basic_stringIcNS_11char_traitsIcEENS1_IcEEEES8_EEPvEEEEEclB8ne180100EPSB_, symObjAddr: 0xD250, symBinAddr: 0x100010570, symSize: 0x98 }
  - { offset: 0x3D898, size: 0x8, addend: 0x0, symName: __ZNSt3__115__tree_iteratorINS_12__value_typeINS_12basic_stringIcNS_11char_traitsIcEENS_9allocatorIcEEEES7_EEPNS_11__tree_nodeIS8_PvEElEC2B8ne180100ESC_, symObjAddr: 0xD2E8, symBinAddr: 0x100010608, symSize: 0x20 }
  - { offset: 0x3D8D1, size: 0x8, addend: 0x0, symName: __ZNSt3__14pairINS_15__tree_iteratorINS_12__value_typeINS_12basic_stringIcNS_11char_traitsIcEENS_9allocatorIcEEEES8_EEPNS_11__tree_nodeIS9_PvEElEEbEC2B8ne180100ISE_RbLi0EEEOT_OT0_, symObjAddr: 0xD308, symBinAddr: 0x100010628, symSize: 0x38 }
  - { offset: 0x3D92F, size: 0x8, addend: 0x0, symName: __ZNSt3__15tupleIJRKNS_12basic_stringIcNS_11char_traitsIcEENS_9allocatorIcEEEEEEC1B8ne180100INS_4_AndELi0EEES8_, symObjAddr: 0xD340, symBinAddr: 0x100010660, symSize: 0x34 }
  - { offset: 0x3D977, size: 0x8, addend: 0x0, symName: __ZNSt3__15tupleIJRKNS_12basic_stringIcNS_11char_traitsIcEENS_9allocatorIcEEEEEEC2B8ne180100INS_4_AndELi0EEES8_, symObjAddr: 0xD374, symBinAddr: 0x100010694, symSize: 0x34 }
  - { offset: 0x3D9BF, size: 0x8, addend: 0x0, symName: __ZNSt3__112__tuple_implINS_15__tuple_indicesIJLm0EEEEJRKNS_12basic_stringIcNS_11char_traitsIcEENS_9allocatorIcEEEEEEC1B8ne180100IJLm0EEJSA_EJEJEJSA_EEENS1_IJXspT_EEEENS_13__tuple_typesIJDpT0_EEENS1_IJXspT1_EEEENSE_IJDpT2_EEEDpOT3_, symObjAddr: 0xD3A8, symBinAddr: 0x1000106C8, symSize: 0x34 }
  - { offset: 0x3DA54, size: 0x8, addend: 0x0, symName: __ZNSt3__112__tuple_implINS_15__tuple_indicesIJLm0EEEEJRKNS_12basic_stringIcNS_11char_traitsIcEENS_9allocatorIcEEEEEEC2B8ne180100IJLm0EEJSA_EJEJEJSA_EEENS1_IJXspT_EEEENS_13__tuple_typesIJDpT0_EEENS1_IJXspT1_EEEENSE_IJDpT2_EEEDpOT3_, symObjAddr: 0xD3DC, symBinAddr: 0x1000106FC, symSize: 0x34 }
  - { offset: 0x3DAE9, size: 0x8, addend: 0x0, symName: __ZNSt3__112__tuple_leafILm0ERKNS_12basic_stringIcNS_11char_traitsIcEENS_9allocatorIcEEEELb0EEC2B8ne180100IS8_vEEOT_, symObjAddr: 0xD410, symBinAddr: 0x100010730, symSize: 0x20 }
  - { offset: 0x3DB2C, size: 0x8, addend: 0x0, symName: __ZNSt3__114pointer_traitsIPNS_12__value_typeINS_12basic_stringIcNS_11char_traitsIcEENS_9allocatorIcEEEES7_EEE10pointer_toB8ne180100ERS8_, symObjAddr: 0xD430, symBinAddr: 0x100010750, symSize: 0x14 }
  - { offset: 0x3DB4F, size: 0x8, addend: 0x0, symName: __ZNKSt3__115__tree_iteratorINS_12__value_typeINS_12basic_stringIcNS_11char_traitsIcEENS_9allocatorIcEEEES7_EEPNS_11__tree_nodeIS8_PvEElE8__get_npB8ne180100Ev, symObjAddr: 0xD444, symBinAddr: 0x100010764, symSize: 0x18 }
  - { offset: 0x3DB75, size: 0x8, addend: 0x0, symName: __ZN5boost9typeindex14stl_type_index7type_idIKNSt3__112basic_stringIcNS3_11char_traitsIcEENS3_9allocatorIcEEEEEES1_v, symObjAddr: 0xD598, symBinAddr: 0x1000108B8, symSize: 0x2C }
  - { offset: 0x3DB93, size: 0x8, addend: 0x0, symName: __ZN5boost3anyC2IRNSt3__112basic_stringIcNS2_11char_traitsIcEENS2_9allocatorIcEEEEEEOT_PNS2_9enable_ifIXntsr3std7is_sameIRS0_SA_EE5valueEvE4typeEPNSC_IXntsr8is_constISA_EE5valueEvE4typeE, symObjAddr: 0xD5C4, symBinAddr: 0x1000108E4, symSize: 0x78 }
  - { offset: 0x3DBE8, size: 0x8, addend: 0x0, symName: __ZN5boost3any6holderINSt3__112basic_stringIcNS2_11char_traitsIcEENS2_9allocatorIcEEEEEC1ERKS8_, symObjAddr: 0xD63C, symBinAddr: 0x10001095C, symSize: 0x34 }
  - { offset: 0x3DC20, size: 0x8, addend: 0x0, symName: __ZN5boost3any6holderINSt3__112basic_stringIcNS2_11char_traitsIcEENS2_9allocatorIcEEEEEC2ERKS8_, symObjAddr: 0xD670, symBinAddr: 0x100010990, symSize: 0x78 }
  - { offset: 0x3DC58, size: 0x8, addend: 0x0, symName: __ZN5boost3any6holderINSt3__112basic_stringIcNS2_11char_traitsIcEENS2_9allocatorIcEEEEED1Ev, symObjAddr: 0xD6E8, symBinAddr: 0x100010A08, symSize: 0x2C }
  - { offset: 0x3DC84, size: 0x8, addend: 0x0, symName: __ZN5boost3any6holderINSt3__112basic_stringIcNS2_11char_traitsIcEENS2_9allocatorIcEEEEED0Ev, symObjAddr: 0xD714, symBinAddr: 0x100010A34, symSize: 0x30 }
  - { offset: 0x3DCB0, size: 0x8, addend: 0x0, symName: __ZNK5boost3any6holderINSt3__112basic_stringIcNS2_11char_traitsIcEENS2_9allocatorIcEEEEE4typeEv, symObjAddr: 0xD744, symBinAddr: 0x100010A64, symSize: 0x30 }
  - { offset: 0x3DCD6, size: 0x8, addend: 0x0, symName: __ZNK5boost3any6holderINSt3__112basic_stringIcNS2_11char_traitsIcEENS2_9allocatorIcEEEEE5cloneEv, symObjAddr: 0xD774, symBinAddr: 0x100010A94, symSize: 0x68 }
  - { offset: 0x3DCFC, size: 0x8, addend: 0x0, symName: __ZN5boost3any6holderINSt3__112basic_stringIcNS2_11char_traitsIcEENS2_9allocatorIcEEEEED2Ev, symObjAddr: 0xD7DC, symBinAddr: 0x100010AFC, symSize: 0x38 }
  - { offset: 0x3DD28, size: 0x8, addend: 0x0, symName: __ZN5boost9typeindex14stl_type_index7type_idINSt3__112basic_stringIcNS3_11char_traitsIcEENS3_9allocatorIcEEEEEES1_v, symObjAddr: 0xD838, symBinAddr: 0x100010B58, symSize: 0x2C }
  - { offset: 0x3DD46, size: 0x8, addend: 0x0, symName: __ZN5boost6detail28dynamic_property_map_adaptorINS_24associative_property_mapINSt3__13mapINS3_12basic_stringIcNS3_11char_traitsIcEENS3_9allocatorIcEEEESA_NS3_4lessISA_EENS8_INS3_4pairIKSA_SA_EEEEEEEEE6do_putERKNS_3anyESM_N4mpl_5bool_ILb1EEE, symObjAddr: 0xD864, symBinAddr: 0x100010B84, symSize: 0x260 }
  - { offset: 0x3DDBE, size: 0x8, addend: 0x0, symName: __ZNKSt3__112basic_stringIcNS_11char_traitsIcEENS_9allocatorIcEEE5emptyB8ne180100Ev, symObjAddr: 0xDB04, symBinAddr: 0x100010E24, symSize: 0x30 }
  - { offset: 0x3DDE4, size: 0x8, addend: 0x0, symName: __ZN5boost10shared_ptrINS_6detail28dynamic_property_map_adaptorINS_24associative_property_mapINSt3__13mapINS4_12basic_stringIcNS4_11char_traitsIcEENS4_9allocatorIcEEEESB_NS4_4lessISB_EENS9_INS4_4pairIKSB_SB_EEEEEEEEEEEC2ISK_EERKNS0_IT_EEPSK_, symObjAddr: 0xDB6C, symBinAddr: 0x100010E8C, symSize: 0x48 }
  - { offset: 0x3DE35, size: 0x8, addend: 0x0, symName: __ZN5boost10shared_ptrINS_6detail28dynamic_property_map_adaptorINS_24associative_property_mapINSt3__13mapINS4_12basic_stringIcNS4_11char_traitsIcEENS4_9allocatorIcEEEESB_NS4_4lessISB_EENS9_INS4_4pairIKSB_SB_EEEEEEEEEEED2Ev, symObjAddr: 0xDBB4, symBinAddr: 0x100010ED4, symSize: 0x30 }
  - { offset: 0x3DE61, size: 0x8, addend: 0x0, symName: __ZN5boost17mutate_graph_implINS_14adjacency_listINS_4vecSES2_NS_9directedSENS_11no_propertyES4_S4_NS_5listSEEEEC1ERS6_RNS_18dynamic_propertiesE, symObjAddr: 0xDBE4, symBinAddr: 0x100010F04, symSize: 0x3C }
  - { offset: 0x3DEA7, size: 0x8, addend: 0x0, symName: __ZN5boost17mutate_graph_implINS_14adjacency_listINS_4vecSES2_NS_9directedSENS_11no_propertyES4_S4_NS_5listSEEEED1Ev, symObjAddr: 0xDC20, symBinAddr: 0x100010F40, symSize: 0x2C }
  - { offset: 0x3DED3, size: 0x8, addend: 0x0, symName: __ZN5boost17mutate_graph_implINS_14adjacency_listINS_4vecSES2_NS_9directedSENS_11no_propertyES4_S4_NS_5listSEEEEC2ERS6_RNS_18dynamic_propertiesE, symObjAddr: 0xDC4C, symBinAddr: 0x100010F6C, symSize: 0x54 }
  - { offset: 0x3DF19, size: 0x8, addend: 0x0, symName: __ZN5boost12mutate_graphC2Ev, symObjAddr: 0xDCA0, symBinAddr: 0x100010FC0, symSize: 0x24 }
  - { offset: 0x3DF45, size: 0x8, addend: 0x0, symName: __ZN5boost17mutate_graph_implINS_14adjacency_listINS_4vecSES2_NS_9directedSENS_11no_propertyES4_S4_NS_5listSEEEED0Ev, symObjAddr: 0xDCC4, symBinAddr: 0x100010FE4, symSize: 0x30 }
  - { offset: 0x3DF71, size: 0x8, addend: 0x0, symName: __ZNK5boost17mutate_graph_implINS_14adjacency_listINS_4vecSES2_NS_9directedSENS_11no_propertyES4_S4_NS_5listSEEEE11is_directedEv, symObjAddr: 0xDCF4, symBinAddr: 0x100011014, symSize: 0x18 }
  - { offset: 0x3DF97, size: 0x8, addend: 0x0, symName: __ZN5boost17mutate_graph_implINS_14adjacency_listINS_4vecSES2_NS_9directedSENS_11no_propertyES4_S4_NS_5listSEEEE13do_add_vertexEv, symObjAddr: 0xDD0C, symBinAddr: 0x10001102C, symSize: 0x4C }
  - { offset: 0x3DFBD, size: 0x8, addend: 0x0, symName: __ZN5boost17mutate_graph_implINS_14adjacency_listINS_4vecSES2_NS_9directedSENS_11no_propertyES4_S4_NS_5listSEEEE11do_add_edgeENS_3anyES8_, symObjAddr: 0xDD58, symBinAddr: 0x100011078, symSize: 0xD0 }
  - { offset: 0x3E00F, size: 0x8, addend: 0x0, symName: __ZN5boost17mutate_graph_implINS_14adjacency_listINS_4vecSES2_NS_9directedSENS_11no_propertyES4_S4_NS_5listSEEEE18set_graph_propertyERKNSt3__112basic_stringIcNS8_11char_traitsIcEENS8_9allocatorIcEEEESG_SG_, symObjAddr: 0xDE28, symBinAddr: 0x100011148, symSize: 0x338 }
  - { offset: 0x3E079, size: 0x8, addend: 0x0, symName: __ZN5boost17mutate_graph_implINS_14adjacency_listINS_4vecSES2_NS_9directedSENS_11no_propertyES4_S4_NS_5listSEEEE19set_vertex_propertyERKNSt3__112basic_stringIcNS8_11char_traitsIcEENS8_9allocatorIcEEEENS_3anyESG_SG_, symObjAddr: 0xE160, symBinAddr: 0x100011480, symSize: 0x364 }
  - { offset: 0x3E0F2, size: 0x8, addend: 0x0, symName: __ZN5boost17mutate_graph_implINS_14adjacency_listINS_4vecSES2_NS_9directedSENS_11no_propertyES4_S4_NS_5listSEEEE17set_edge_propertyERKNSt3__112basic_stringIcNS8_11char_traitsIcEENS8_9allocatorIcEEEENS_3anyESG_SG_, symObjAddr: 0xE4C4, symBinAddr: 0x1000117E4, symSize: 0x35C }
  - { offset: 0x3E16B, size: 0x8, addend: 0x0, symName: __ZN5boost12mutate_graphD1Ev, symObjAddr: 0xE820, symBinAddr: 0x100011B40, symSize: 0x14 }
  - { offset: 0x3E195, size: 0x8, addend: 0x0, symName: __ZN5boost12mutate_graphD0Ev, symObjAddr: 0xE834, symBinAddr: 0x100011B54, symSize: 0xC }
  - { offset: 0x3E1BF, size: 0x8, addend: 0x0, symName: __ZNKSt3__16vectorIN5boost6detail12adj_list_genINS1_14adjacency_listINS1_4vecSES5_NS1_9directedSENS1_11no_propertyES7_S7_NS1_5listSEEES5_S5_S6_S7_S7_S7_S8_E6config13stored_vertexENS_9allocatorISC_EEE4sizeB8ne180100Ev, symObjAddr: 0xE890, symBinAddr: 0x100011BB0, symSize: 0x28 }
  - { offset: 0x3E1E5, size: 0x8, addend: 0x0, symName: __ZNSt3__16vectorIN5boost6detail12adj_list_genINS1_14adjacency_listINS1_4vecSES5_NS1_9directedSENS1_11no_propertyES7_S7_NS1_5listSEEES5_S5_S6_S7_S7_S7_S8_E6config13stored_vertexENS_9allocatorISC_EEE12emplace_backIJEEERSC_DpOT_, symObjAddr: 0xE8B8, symBinAddr: 0x100011BD8, symSize: 0x8C }
  - { offset: 0x3E221, size: 0x8, addend: 0x0, symName: __ZN5boost5graph17maybe_named_graphINS_14adjacency_listINS_4vecSES3_NS_9directedSENS_11no_propertyES5_S5_NS_5listSEEEmS5_vE12added_vertexEm, symObjAddr: 0xE944, symBinAddr: 0x100011C64, symSize: 0x14 }
  - { offset: 0x3E253, size: 0x8, addend: 0x0, symName: __ZNSt3__16vectorIN5boost6detail12adj_list_genINS1_14adjacency_listINS1_4vecSES5_NS1_9directedSENS1_11no_propertyES7_S7_NS1_5listSEEES5_S5_S6_S7_S7_S7_S8_E6config13stored_vertexENS_9allocatorISC_EEE9__end_capB8ne180100Ev, symObjAddr: 0xE958, symBinAddr: 0x100011C78, symSize: 0x28 }
  - { offset: 0x3E279, size: 0x8, addend: 0x0, symName: __ZNSt3__16vectorIN5boost6detail12adj_list_genINS1_14adjacency_listINS1_4vecSES5_NS1_9directedSENS1_11no_propertyES7_S7_NS1_5listSEEES5_S5_S6_S7_S7_S7_S8_E6config13stored_vertexENS_9allocatorISC_EEE22__construct_one_at_endB8ne180100IJEEEvDpOT_, symObjAddr: 0xE980, symBinAddr: 0x100011CA0, symSize: 0x88 }
  - { offset: 0x3E2B3, size: 0x8, addend: 0x0, symName: __ZNSt3__16vectorIN5boost6detail12adj_list_genINS1_14adjacency_listINS1_4vecSES5_NS1_9directedSENS1_11no_propertyES7_S7_NS1_5listSEEES5_S5_S6_S7_S7_S7_S8_E6config13stored_vertexENS_9allocatorISC_EEE24__emplace_back_slow_pathIJEEEPSC_DpOT_, symObjAddr: 0xEA08, symBinAddr: 0x100011D28, symSize: 0xE0 }
  - { offset: 0x3E2FE, size: 0x8, addend: 0x0, symName: __ZNSt3__117__compressed_pairIPN5boost6detail12adj_list_genINS1_14adjacency_listINS1_4vecSES5_NS1_9directedSENS1_11no_propertyES7_S7_NS1_5listSEEES5_S5_S6_S7_S7_S7_S8_E6config13stored_vertexENS_9allocatorISC_EEE5firstB8ne180100Ev, symObjAddr: 0xEAE8, symBinAddr: 0x100011E08, symSize: 0x24 }
  - { offset: 0x3E324, size: 0x8, addend: 0x0, symName: __ZNSt3__122__compressed_pair_elemIPN5boost6detail12adj_list_genINS1_14adjacency_listINS1_4vecSES5_NS1_9directedSENS1_11no_propertyES7_S7_NS1_5listSEEES5_S5_S6_S7_S7_S7_S8_E6config13stored_vertexELi0ELb0EE5__getB8ne180100Ev, symObjAddr: 0xEB0C, symBinAddr: 0x100011E2C, symSize: 0x14 }
  - { offset: 0x3E366, size: 0x8, addend: 0x0, symName: __ZNSt3__16vectorIN5boost6detail12adj_list_genINS1_14adjacency_listINS1_4vecSES5_NS1_9directedSENS1_11no_propertyES7_S7_NS1_5listSEEES5_S5_S6_S7_S7_S7_S8_E6config13stored_vertexENS_9allocatorISC_EEE21_ConstructTransactionC1B8ne180100ERSF_m, symObjAddr: 0xEB20, symBinAddr: 0x100011E40, symSize: 0x3C }
  - { offset: 0x3E3AE, size: 0x8, addend: 0x0, symName: __ZNSt3__116allocator_traitsINS_9allocatorIN5boost6detail12adj_list_genINS2_14adjacency_listINS2_4vecSES6_NS2_9directedSENS2_11no_propertyES8_S8_NS2_5listSEEES6_S6_S7_S8_S8_S8_S9_E6config13stored_vertexEEEE9constructB8ne180100ISD_JEvEEvRSE_PT_DpOT0_, symObjAddr: 0xEB5C, symBinAddr: 0x100011E7C, symSize: 0x2C }
  - { offset: 0x3E3F0, size: 0x8, addend: 0x0, symName: __ZNSt3__16vectorIN5boost6detail12adj_list_genINS1_14adjacency_listINS1_4vecSES5_NS1_9directedSENS1_11no_propertyES7_S7_NS1_5listSEEES5_S5_S6_S7_S7_S7_S8_E6config13stored_vertexENS_9allocatorISC_EEE21_ConstructTransactionD1B8ne180100Ev, symObjAddr: 0xEB88, symBinAddr: 0x100011EA8, symSize: 0x2C }
  - { offset: 0x3E41A, size: 0x8, addend: 0x0, symName: __ZNSt3__16vectorIN5boost6detail12adj_list_genINS1_14adjacency_listINS1_4vecSES5_NS1_9directedSENS1_11no_propertyES7_S7_NS1_5listSEEES5_S5_S6_S7_S7_S7_S8_E6config13stored_vertexENS_9allocatorISC_EEE21_ConstructTransactionC2B8ne180100ERSF_m, symObjAddr: 0xEBB4, symBinAddr: 0x100011ED4, symSize: 0x44 }
  - { offset: 0x3E462, size: 0x8, addend: 0x0, symName: __ZNSt3__19allocatorIN5boost6detail12adj_list_genINS1_14adjacency_listINS1_4vecSES5_NS1_9directedSENS1_11no_propertyES7_S7_NS1_5listSEEES5_S5_S6_S7_S7_S7_S8_E6config13stored_vertexEE9constructB8ne180100ISC_JEEEvPT_DpOT0_, symObjAddr: 0xEBF8, symBinAddr: 0x100011F18, symSize: 0x28 }
  - { offset: 0x3E4A4, size: 0x8, addend: 0x0, symName: __ZN5boost6detail12adj_list_genINS_14adjacency_listINS_4vecSES3_NS_9directedSENS_11no_propertyES5_S5_NS_5listSEEES3_S3_S4_S5_S5_S5_S6_E6config13stored_vertexC1Ev, symObjAddr: 0xEC20, symBinAddr: 0x100011F40, symSize: 0x2C }
  - { offset: 0x3E4CE, size: 0x8, addend: 0x0, symName: __ZN5boost6detail12adj_list_genINS_14adjacency_listINS_4vecSES3_NS_9directedSENS_11no_propertyES5_S5_NS_5listSEEES3_S3_S4_S5_S5_S5_S6_E6config13stored_vertexC2Ev, symObjAddr: 0xEC4C, symBinAddr: 0x100011F6C, symSize: 0x2C }
  - { offset: 0x3E4F8, size: 0x8, addend: 0x0, symName: __ZN5boost6detail12adj_list_genINS_14adjacency_listINS_4vecSES3_NS_9directedSENS_11no_propertyES5_S5_NS_5listSEEES3_S3_S4_S5_S5_S5_S6_E6config18rand_stored_vertexC2Ev, symObjAddr: 0xEC78, symBinAddr: 0x100011F98, symSize: 0x2C }
  - { offset: 0x3E522, size: 0x8, addend: 0x0, symName: __ZNSt3__16vectorIN5boost6detail20stored_edge_propertyImNS1_11no_propertyEEENS_9allocatorIS5_EEEC1B8ne180100Ev, symObjAddr: 0xECA4, symBinAddr: 0x100011FC4, symSize: 0x2C }
  - { offset: 0x3E54C, size: 0x8, addend: 0x0, symName: __ZNSt3__16vectorIN5boost6detail20stored_edge_propertyImNS1_11no_propertyEEENS_9allocatorIS5_EEEC2B8ne180100Ev, symObjAddr: 0xECD0, symBinAddr: 0x100011FF0, symSize: 0x4C }
  - { offset: 0x3E576, size: 0x8, addend: 0x0, symName: __ZNSt3__117__compressed_pairIPN5boost6detail20stored_edge_propertyImNS1_11no_propertyEEENS_9allocatorIS5_EEEC1B8ne180100IDnNS_18__default_init_tagEEEOT_OT0_, symObjAddr: 0xED1C, symBinAddr: 0x10001203C, symSize: 0x3C }
  - { offset: 0x3E5CE, size: 0x8, addend: 0x0, symName: __ZNSt3__117__compressed_pairIPN5boost6detail20stored_edge_propertyImNS1_11no_propertyEEENS_9allocatorIS5_EEEC2B8ne180100IDnNS_18__default_init_tagEEEOT_OT0_, symObjAddr: 0xED58, symBinAddr: 0x100012078, symSize: 0x40 }
  - { offset: 0x3E626, size: 0x8, addend: 0x0, symName: __ZNSt3__122__compressed_pair_elemIPN5boost6detail20stored_edge_propertyImNS1_11no_propertyEEELi0ELb0EEC2B8ne180100IDnvEEOT_, symObjAddr: 0xED98, symBinAddr: 0x1000120B8, symSize: 0x1C }
  - { offset: 0x3E668, size: 0x8, addend: 0x0, symName: __ZNSt3__122__compressed_pair_elemINS_9allocatorIN5boost6detail20stored_edge_propertyImNS2_11no_propertyEEEEELi1ELb1EEC2B8ne180100ENS_18__default_init_tagE, symObjAddr: 0xEDB4, symBinAddr: 0x1000120D4, symSize: 0x2C }
  - { offset: 0x3E69C, size: 0x8, addend: 0x0, symName: __ZNSt3__19allocatorIN5boost6detail20stored_edge_propertyImNS1_11no_propertyEEEEC2B8ne180100Ev, symObjAddr: 0xEDE0, symBinAddr: 0x100012100, symSize: 0x2C }
  - { offset: 0x3E6C6, size: 0x8, addend: 0x0, symName: __ZNSt3__116__non_trivial_ifILb1ENS_9allocatorIN5boost6detail20stored_edge_propertyImNS2_11no_propertyEEEEEEC2B8ne180100Ev, symObjAddr: 0xEE0C, symBinAddr: 0x10001212C, symSize: 0x14 }
  - { offset: 0x3E6F0, size: 0x8, addend: 0x0, symName: __ZNSt3__16vectorIN5boost6detail12adj_list_genINS1_14adjacency_listINS1_4vecSES5_NS1_9directedSENS1_11no_propertyES7_S7_NS1_5listSEEES5_S5_S6_S7_S7_S7_S8_E6config13stored_vertexENS_9allocatorISC_EEE21_ConstructTransactionD2B8ne180100Ev, symObjAddr: 0xEE20, symBinAddr: 0x100012140, symSize: 0x20 }
  - { offset: 0x3E71A, size: 0x8, addend: 0x0, symName: __ZNKSt3__16vectorIN5boost6detail12adj_list_genINS1_14adjacency_listINS1_4vecSES5_NS1_9directedSENS1_11no_propertyES7_S7_NS1_5listSEEES5_S5_S6_S7_S7_S7_S8_E6config13stored_vertexENS_9allocatorISC_EEE11__recommendB8ne180100Em, symObjAddr: 0xEE40, symBinAddr: 0x100012160, symSize: 0xB4 }
  - { offset: 0x3E76F, size: 0x8, addend: 0x0, symName: __ZNSt3__114__split_bufferIN5boost6detail12adj_list_genINS1_14adjacency_listINS1_4vecSES5_NS1_9directedSENS1_11no_propertyES7_S7_NS1_5listSEEES5_S5_S6_S7_S7_S7_S8_E6config13stored_vertexERNS_9allocatorISC_EEEC1EmmSF_, symObjAddr: 0xEEF4, symBinAddr: 0x100012214, symSize: 0x44 }
  - { offset: 0x3E7C5, size: 0x8, addend: 0x0, symName: __ZNSt3__114__split_bufferIN5boost6detail12adj_list_genINS1_14adjacency_listINS1_4vecSES5_NS1_9directedSENS1_11no_propertyES7_S7_NS1_5listSEEES5_S5_S6_S7_S7_S7_S8_E6config13stored_vertexERNS_9allocatorISC_EEED1Ev, symObjAddr: 0xF048, symBinAddr: 0x100012368, symSize: 0x2C }
  - { offset: 0x3E7F1, size: 0x8, addend: 0x0, symName: __ZNKSt3__16vectorIN5boost6detail12adj_list_genINS1_14adjacency_listINS1_4vecSES5_NS1_9directedSENS1_11no_propertyES7_S7_NS1_5listSEEES5_S5_S6_S7_S7_S7_S8_E6config13stored_vertexENS_9allocatorISC_EEE8max_sizeEv, symObjAddr: 0xF074, symBinAddr: 0x100012394, symSize: 0x60 }
  - { offset: 0x3E819, size: 0x8, addend: 0x0, symName: __ZNKSt3__16vectorIN5boost6detail12adj_list_genINS1_14adjacency_listINS1_4vecSES5_NS1_9directedSENS1_11no_propertyES7_S7_NS1_5listSEEES5_S5_S6_S7_S7_S7_S8_E6config13stored_vertexENS_9allocatorISC_EEE20__throw_length_errorB8ne180100Ev, symObjAddr: 0xF0D4, symBinAddr: 0x1000123F4, symSize: 0x1C }
  - { offset: 0x3E84A, size: 0x8, addend: 0x0, symName: __ZNSt3__116allocator_traitsINS_9allocatorIN5boost6detail12adj_list_genINS2_14adjacency_listINS2_4vecSES6_NS2_9directedSENS2_11no_propertyES8_S8_NS2_5listSEEES6_S6_S7_S8_S8_S8_S9_E6config13stored_vertexEEEE8max_sizeB8ne180100ISE_vEEmRKSE_, symObjAddr: 0xF11C, symBinAddr: 0x10001243C, symSize: 0x24 }
  - { offset: 0x3E878, size: 0x8, addend: 0x0, symName: __ZNKSt3__16vectorIN5boost6detail12adj_list_genINS1_14adjacency_listINS1_4vecSES5_NS1_9directedSENS1_11no_propertyES7_S7_NS1_5listSEEES5_S5_S6_S7_S7_S7_S8_E6config13stored_vertexENS_9allocatorISC_EEE7__allocB8ne180100Ev, symObjAddr: 0xF140, symBinAddr: 0x100012460, symSize: 0x28 }
  - { offset: 0x3E89E, size: 0x8, addend: 0x0, symName: __ZNSt3__114numeric_limitsIlE3maxB8ne180100Ev, symObjAddr: 0xF168, symBinAddr: 0x100012488, symSize: 0x14 }
  - { offset: 0x3E8B2, size: 0x8, addend: 0x0, symName: __ZNKSt3__19allocatorIN5boost6detail12adj_list_genINS1_14adjacency_listINS1_4vecSES5_NS1_9directedSENS1_11no_propertyES7_S7_NS1_5listSEEES5_S5_S6_S7_S7_S7_S8_E6config13stored_vertexEE8max_sizeB8ne180100Ev, symObjAddr: 0xF17C, symBinAddr: 0x10001249C, symSize: 0x14 }
  - { offset: 0x3E8D8, size: 0x8, addend: 0x0, symName: __ZNKSt3__117__compressed_pairIPN5boost6detail12adj_list_genINS1_14adjacency_listINS1_4vecSES5_NS1_9directedSENS1_11no_propertyES7_S7_NS1_5listSEEES5_S5_S6_S7_S7_S7_S8_E6config13stored_vertexENS_9allocatorISC_EEE6secondB8ne180100Ev, symObjAddr: 0xF190, symBinAddr: 0x1000124B0, symSize: 0x24 }
  - { offset: 0x3E8FE, size: 0x8, addend: 0x0, symName: __ZNKSt3__122__compressed_pair_elemINS_9allocatorIN5boost6detail12adj_list_genINS2_14adjacency_listINS2_4vecSES6_NS2_9directedSENS2_11no_propertyES8_S8_NS2_5listSEEES6_S6_S7_S8_S8_S8_S9_E6config13stored_vertexEEELi1ELb1EE5__getB8ne180100Ev, symObjAddr: 0xF1B4, symBinAddr: 0x1000124D4, symSize: 0x14 }
  - { offset: 0x3E924, size: 0x8, addend: 0x0, symName: __ZNSt3__123__libcpp_numeric_limitsIlLb1EE3maxB8ne180100Ev, symObjAddr: 0xF1C8, symBinAddr: 0x1000124E8, symSize: 0x8 }
  - { offset: 0x3E938, size: 0x8, addend: 0x0, symName: __ZNSt12length_errorC1B8ne180100EPKc, symObjAddr: 0xF234, symBinAddr: 0x100012554, symSize: 0x34 }
  - { offset: 0x3E970, size: 0x8, addend: 0x0, symName: __ZNSt12length_errorC2B8ne180100EPKc, symObjAddr: 0xF268, symBinAddr: 0x100012588, symSize: 0x44 }
  - { offset: 0x3E9A8, size: 0x8, addend: 0x0, symName: __ZNSt3__114__split_bufferIN5boost6detail12adj_list_genINS1_14adjacency_listINS1_4vecSES5_NS1_9directedSENS1_11no_propertyES7_S7_NS1_5listSEEES5_S5_S6_S7_S7_S7_S8_E6config13stored_vertexERNS_9allocatorISC_EEEC2EmmSF_, symObjAddr: 0xF300, symBinAddr: 0x100012620, symSize: 0xD4 }
  - { offset: 0x3EA1B, size: 0x8, addend: 0x0, symName: __ZNSt3__117__compressed_pairIPN5boost6detail12adj_list_genINS1_14adjacency_listINS1_4vecSES5_NS1_9directedSENS1_11no_propertyES7_S7_NS1_5listSEEES5_S5_S6_S7_S7_S7_S8_E6config13stored_vertexERNS_9allocatorISC_EEEC1B8ne180100IDnSG_EEOT_OT0_, symObjAddr: 0xF3D4, symBinAddr: 0x1000126F4, symSize: 0x3C }
  - { offset: 0x3EA73, size: 0x8, addend: 0x0, symName: __ZNSt3__114__split_bufferIN5boost6detail12adj_list_genINS1_14adjacency_listINS1_4vecSES5_NS1_9directedSENS1_11no_propertyES7_S7_NS1_5listSEEES5_S5_S6_S7_S7_S7_S8_E6config13stored_vertexERNS_9allocatorISC_EEE7__allocB8ne180100Ev, symObjAddr: 0xF450, symBinAddr: 0x100012770, symSize: 0x28 }
  - { offset: 0x3EA99, size: 0x8, addend: 0x0, symName: __ZNSt3__114__split_bufferIN5boost6detail12adj_list_genINS1_14adjacency_listINS1_4vecSES5_NS1_9directedSENS1_11no_propertyES7_S7_NS1_5listSEEES5_S5_S6_S7_S7_S7_S8_E6config13stored_vertexERNS_9allocatorISC_EEE9__end_capB8ne180100Ev, symObjAddr: 0xF478, symBinAddr: 0x100012798, symSize: 0x28 }
  - { offset: 0x3EABF, size: 0x8, addend: 0x0, symName: __ZNSt3__117__compressed_pairIPN5boost6detail12adj_list_genINS1_14adjacency_listINS1_4vecSES5_NS1_9directedSENS1_11no_propertyES7_S7_NS1_5listSEEES5_S5_S6_S7_S7_S7_S8_E6config13stored_vertexERNS_9allocatorISC_EEEC2B8ne180100IDnSG_EEOT_OT0_, symObjAddr: 0xF4A0, symBinAddr: 0x1000127C0, symSize: 0x48 }
  - { offset: 0x3EB17, size: 0x8, addend: 0x0, symName: __ZNSt3__122__compressed_pair_elemIRNS_9allocatorIN5boost6detail12adj_list_genINS2_14adjacency_listINS2_4vecSES6_NS2_9directedSENS2_11no_propertyES8_S8_NS2_5listSEEES6_S6_S7_S8_S8_S8_S9_E6config13stored_vertexEEELi1ELb0EEC2B8ne180100ISF_vEEOT_, symObjAddr: 0xF4E8, symBinAddr: 0x100012808, symSize: 0x20 }
  - { offset: 0x3EB59, size: 0x8, addend: 0x0, symName: __ZNSt3__19allocatorIN5boost6detail12adj_list_genINS1_14adjacency_listINS1_4vecSES5_NS1_9directedSENS1_11no_propertyES7_S7_NS1_5listSEEES5_S5_S6_S7_S7_S7_S8_E6config13stored_vertexEE8allocateB8ne180100Em, symObjAddr: 0xF508, symBinAddr: 0x100012828, symSize: 0x58 }
  - { offset: 0x3EB8D, size: 0x8, addend: 0x0, symName: __ZNSt3__117__compressed_pairIPN5boost6detail12adj_list_genINS1_14adjacency_listINS1_4vecSES5_NS1_9directedSENS1_11no_propertyES7_S7_NS1_5listSEEES5_S5_S6_S7_S7_S7_S8_E6config13stored_vertexERNS_9allocatorISC_EEE6secondB8ne180100Ev, symObjAddr: 0xF560, symBinAddr: 0x100012880, symSize: 0x28 }
  - { offset: 0x3EBB3, size: 0x8, addend: 0x0, symName: __ZNSt3__122__compressed_pair_elemIRNS_9allocatorIN5boost6detail12adj_list_genINS2_14adjacency_listINS2_4vecSES6_NS2_9directedSENS2_11no_propertyES8_S8_NS2_5listSEEES6_S6_S7_S8_S8_S8_S9_E6config13stored_vertexEEELi1ELb0EE5__getB8ne180100Ev, symObjAddr: 0xF588, symBinAddr: 0x1000128A8, symSize: 0x18 }
  - { offset: 0x3EBD9, size: 0x8, addend: 0x0, symName: __ZNSt3__117__compressed_pairIPN5boost6detail12adj_list_genINS1_14adjacency_listINS1_4vecSES5_NS1_9directedSENS1_11no_propertyES7_S7_NS1_5listSEEES5_S5_S6_S7_S7_S7_S8_E6config13stored_vertexERNS_9allocatorISC_EEE5firstB8ne180100Ev, symObjAddr: 0xF5A0, symBinAddr: 0x1000128C0, symSize: 0x24 }
  - { offset: 0x3EBFF, size: 0x8, addend: 0x0, symName: __ZNSt3__116reverse_iteratorIPN5boost6detail12adj_list_genINS1_14adjacency_listINS1_4vecSES5_NS1_9directedSENS1_11no_propertyES7_S7_NS1_5listSEEES5_S5_S6_S7_S7_S7_S8_E6config13stored_vertexEEC1B8ne180100ESD_, symObjAddr: 0xF6F0, symBinAddr: 0x100012A10, symSize: 0x34 }
  - { offset: 0x3EC37, size: 0x8, addend: 0x0, symName: __ZNKSt3__116reverse_iteratorIPN5boost6detail12adj_list_genINS1_14adjacency_listINS1_4vecSES5_NS1_9directedSENS1_11no_propertyES7_S7_NS1_5listSEEES5_S5_S6_S7_S7_S7_S8_E6config13stored_vertexEE4baseB8ne180100Ev, symObjAddr: 0xF724, symBinAddr: 0x100012A44, symSize: 0x18 }
  - { offset: 0x3EC5D, size: 0x8, addend: 0x0, symName: __ZNKSt3__16vectorIN5boost6detail12adj_list_genINS1_14adjacency_listINS1_4vecSES5_NS1_9directedSENS1_11no_propertyES7_S7_NS1_5listSEEES5_S5_S6_S7_S7_S7_S8_E6config13stored_vertexENS_9allocatorISC_EEE14__annotate_newB8ne180100Em, symObjAddr: 0xF778, symBinAddr: 0x100012A98, symSize: 0x14 }
  - { offset: 0x3EC92, size: 0x8, addend: 0x0, symName: __ZNSt3__129_AllocatorDestroyRangeReverseINS_9allocatorIN5boost6detail12adj_list_genINS2_14adjacency_listINS2_4vecSES6_NS2_9directedSENS2_11no_propertyES8_S8_NS2_5listSEEES6_S6_S7_S8_S8_S8_S9_E6config13stored_vertexEEENS_16reverse_iteratorIPSD_EEEC1B8ne180100ERSE_RSH_SK_, symObjAddr: 0xF7D8, symBinAddr: 0x100012AF8, symSize: 0x44 }
  - { offset: 0x3ECEF, size: 0x8, addend: 0x0, symName: __ZNSt3__116allocator_traitsINS_9allocatorIN5boost6detail12adj_list_genINS2_14adjacency_listINS2_4vecSES6_NS2_9directedSENS2_11no_propertyES8_S8_NS2_5listSEEES6_S6_S7_S8_S8_S8_S9_E6config13stored_vertexEEEE9constructB8ne180100ISD_JSD_EvEEvRSE_PT_DpOT0_, symObjAddr: 0xF864, symBinAddr: 0x100012B84, symSize: 0x34 }
  - { offset: 0x3ED46, size: 0x8, addend: 0x0, symName: __ZNKSt3__116reverse_iteratorIPN5boost6detail12adj_list_genINS1_14adjacency_listINS1_4vecSES5_NS1_9directedSENS1_11no_propertyES7_S7_NS1_5listSEEES5_S5_S6_S7_S7_S7_S8_E6config13stored_vertexEEdeB8ne180100Ev, symObjAddr: 0xF8BC, symBinAddr: 0x100012BDC, symSize: 0x28 }
  - { offset: 0x3ED7A, size: 0x8, addend: 0x0, symName: __ZNSt3__116reverse_iteratorIPN5boost6detail12adj_list_genINS1_14adjacency_listINS1_4vecSES5_NS1_9directedSENS1_11no_propertyES7_S7_NS1_5listSEEES5_S5_S6_S7_S7_S7_S8_E6config13stored_vertexEEppB8ne180100Ev, symObjAddr: 0xF8E4, symBinAddr: 0x100012C04, symSize: 0x20 }
  - { offset: 0x3EDA0, size: 0x8, addend: 0x0, symName: __ZNSt3__128__exception_guard_exceptionsINS_29_AllocatorDestroyRangeReverseINS_9allocatorIN5boost6detail12adj_list_genINS3_14adjacency_listINS3_4vecSES7_NS3_9directedSENS3_11no_propertyES9_S9_NS3_5listSEEES7_S7_S8_S9_S9_S9_SA_E6config13stored_vertexEEENS_16reverse_iteratorIPSE_EEEEE10__completeB8ne180100Ev, symObjAddr: 0xF904, symBinAddr: 0x100012C24, symSize: 0x1C }
  - { offset: 0x3EDC6, size: 0x8, addend: 0x0, symName: __ZNSt3__128__exception_guard_exceptionsINS_29_AllocatorDestroyRangeReverseINS_9allocatorIN5boost6detail12adj_list_genINS3_14adjacency_listINS3_4vecSES7_NS3_9directedSENS3_11no_propertyES9_S9_NS3_5listSEEES7_S7_S8_S9_S9_S9_SA_E6config13stored_vertexEEENS_16reverse_iteratorIPSE_EEEEED1B8ne180100Ev, symObjAddr: 0xF920, symBinAddr: 0x100012C40, symSize: 0x2C }
  - { offset: 0x3EDF0, size: 0x8, addend: 0x0, symName: __ZNSt3__128__exception_guard_exceptionsINS_29_AllocatorDestroyRangeReverseINS_9allocatorIN5boost6detail12adj_list_genINS3_14adjacency_listINS3_4vecSES7_NS3_9directedSENS3_11no_propertyES9_S9_NS3_5listSEEES7_S7_S8_S9_S9_S9_SA_E6config13stored_vertexEEENS_16reverse_iteratorIPSE_EEEEEC1B8ne180100ESJ_, symObjAddr: 0xF94C, symBinAddr: 0x100012C6C, symSize: 0x34 }
  - { offset: 0x3EE29, size: 0x8, addend: 0x0, symName: __ZNSt3__128__exception_guard_exceptionsINS_29_AllocatorDestroyRangeReverseINS_9allocatorIN5boost6detail12adj_list_genINS3_14adjacency_listINS3_4vecSES7_NS3_9directedSENS3_11no_propertyES9_S9_NS3_5listSEEES7_S7_S8_S9_S9_S9_SA_E6config13stored_vertexEEENS_16reverse_iteratorIPSE_EEEEEC2B8ne180100ESJ_, symObjAddr: 0xF980, symBinAddr: 0x100012CA0, symSize: 0x30 }
  - { offset: 0x3EE62, size: 0x8, addend: 0x0, symName: __ZNSt3__129_AllocatorDestroyRangeReverseINS_9allocatorIN5boost6detail12adj_list_genINS2_14adjacency_listINS2_4vecSES6_NS2_9directedSENS2_11no_propertyES8_S8_NS2_5listSEEES6_S6_S7_S8_S8_S8_S9_E6config13stored_vertexEEENS_16reverse_iteratorIPSD_EEEC2B8ne180100ERSE_RSH_SK_, symObjAddr: 0xF9B0, symBinAddr: 0x100012CD0, symSize: 0x38 }
  - { offset: 0x3EEB9, size: 0x8, addend: 0x0, symName: __ZNSt3__19allocatorIN5boost6detail12adj_list_genINS1_14adjacency_listINS1_4vecSES5_NS1_9directedSENS1_11no_propertyES7_S7_NS1_5listSEEES5_S5_S6_S7_S7_S7_S8_E6config13stored_vertexEE9constructB8ne180100ISC_JSC_EEEvPT_DpOT0_, symObjAddr: 0xF9E8, symBinAddr: 0x100012D08, symSize: 0x30 }
  - { offset: 0x3EF0F, size: 0x8, addend: 0x0, symName: __ZN5boost6detail12adj_list_genINS_14adjacency_listINS_4vecSES3_NS_9directedSENS_11no_propertyES5_S5_NS_5listSEEES3_S3_S4_S5_S5_S5_S6_E6config13stored_vertexC1EOSA_, symObjAddr: 0xFA18, symBinAddr: 0x100012D38, symSize: 0x34 }
  - { offset: 0x3EF45, size: 0x8, addend: 0x0, symName: __ZN5boost6detail12adj_list_genINS_14adjacency_listINS_4vecSES3_NS_9directedSENS_11no_propertyES5_S5_NS_5listSEEES3_S3_S4_S5_S5_S5_S6_E6config13stored_vertexC2EOSA_, symObjAddr: 0xFA4C, symBinAddr: 0x100012D6C, symSize: 0x34 }
  - { offset: 0x3EF81, size: 0x8, addend: 0x0, symName: __ZN5boost6detail12adj_list_genINS_14adjacency_listINS_4vecSES3_NS_9directedSENS_11no_propertyES5_S5_NS_5listSEEES3_S3_S4_S5_S5_S5_S6_E6config18rand_stored_vertexC2EOSA_, symObjAddr: 0xFA80, symBinAddr: 0x100012DA0, symSize: 0x34 }
  - { offset: 0x3EFB7, size: 0x8, addend: 0x0, symName: __ZNSt3__16vectorIN5boost6detail20stored_edge_propertyImNS1_11no_propertyEEENS_9allocatorIS5_EEEC1B8ne180100EOS8_, symObjAddr: 0xFAB4, symBinAddr: 0x100012DD4, symSize: 0x34 }
  - { offset: 0x3EFF2, size: 0x8, addend: 0x0, symName: __ZNSt3__16vectorIN5boost6detail20stored_edge_propertyImNS1_11no_propertyEEENS_9allocatorIS5_EEEC2B8ne180100EOS8_, symObjAddr: 0xFAE8, symBinAddr: 0x100012E08, symSize: 0xC4 }
  - { offset: 0x3F033, size: 0x8, addend: 0x0, symName: __ZNSt3__117__compressed_pairIPN5boost6detail20stored_edge_propertyImNS1_11no_propertyEEENS_9allocatorIS5_EEEC1B8ne180100IDnS8_EEOT_OT0_, symObjAddr: 0xFBAC, symBinAddr: 0x100012ECC, symSize: 0x3C }
  - { offset: 0x3F08B, size: 0x8, addend: 0x0, symName: __ZNSt3__16vectorIN5boost6detail20stored_edge_propertyImNS1_11no_propertyEEENS_9allocatorIS5_EEE9__end_capB8ne180100Ev, symObjAddr: 0xFBE8, symBinAddr: 0x100012F08, symSize: 0x28 }
  - { offset: 0x3F0B1, size: 0x8, addend: 0x0, symName: __ZNSt3__117__compressed_pairIPN5boost6detail20stored_edge_propertyImNS1_11no_propertyEEENS_9allocatorIS5_EEEC2B8ne180100IDnS8_EEOT_OT0_, symObjAddr: 0xFC10, symBinAddr: 0x100012F30, symSize: 0x44 }
  - { offset: 0x3F109, size: 0x8, addend: 0x0, symName: __ZNSt3__122__compressed_pair_elemINS_9allocatorIN5boost6detail20stored_edge_propertyImNS2_11no_propertyEEEEELi1ELb1EEC2B8ne180100IS7_vEEOT_, symObjAddr: 0xFC54, symBinAddr: 0x100012F74, symSize: 0x18 }
  - { offset: 0x3F14B, size: 0x8, addend: 0x0, symName: __ZNSt3__117__compressed_pairIPN5boost6detail20stored_edge_propertyImNS1_11no_propertyEEENS_9allocatorIS5_EEE5firstB8ne180100Ev, symObjAddr: 0xFC6C, symBinAddr: 0x100012F8C, symSize: 0x24 }
  - { offset: 0x3F171, size: 0x8, addend: 0x0, symName: __ZNSt3__122__compressed_pair_elemIPN5boost6detail20stored_edge_propertyImNS1_11no_propertyEEELi0ELb0EE5__getB8ne180100Ev, symObjAddr: 0xFC90, symBinAddr: 0x100012FB0, symSize: 0x14 }
  - { offset: 0x3F19D, size: 0x8, addend: 0x0, symName: __ZNSt3__119__to_address_helperINS_16reverse_iteratorIPN5boost6detail12adj_list_genINS2_14adjacency_listINS2_4vecSES6_NS2_9directedSENS2_11no_propertyES8_S8_NS2_5listSEEES6_S6_S7_S8_S8_S8_S9_E6config13stored_vertexEEEvE6__callB8ne180100ERKSF_, symObjAddr: 0xFCA4, symBinAddr: 0x100012FC4, symSize: 0x38 }
  - { offset: 0x3F1C0, size: 0x8, addend: 0x0, symName: __ZNKSt3__116reverse_iteratorIPN5boost6detail12adj_list_genINS1_14adjacency_listINS1_4vecSES5_NS1_9directedSENS1_11no_propertyES7_S7_NS1_5listSEEES5_S5_S6_S7_S7_S7_S8_E6config13stored_vertexEEptB8ne180100Ev, symObjAddr: 0xFCDC, symBinAddr: 0x100012FFC, symSize: 0x24 }
  - { offset: 0x3F1E6, size: 0x8, addend: 0x0, symName: __ZNSt3__128__exception_guard_exceptionsINS_29_AllocatorDestroyRangeReverseINS_9allocatorIN5boost6detail12adj_list_genINS3_14adjacency_listINS3_4vecSES7_NS3_9directedSENS3_11no_propertyES9_S9_NS3_5listSEEES7_S7_S8_S9_S9_S9_SA_E6config13stored_vertexEEENS_16reverse_iteratorIPSE_EEEEED2B8ne180100Ev, symObjAddr: 0xFD00, symBinAddr: 0x100013020, symSize: 0x50 }
  - { offset: 0x3F210, size: 0x8, addend: 0x0, symName: __ZNKSt3__129_AllocatorDestroyRangeReverseINS_9allocatorIN5boost6detail12adj_list_genINS2_14adjacency_listINS2_4vecSES6_NS2_9directedSENS2_11no_propertyES8_S8_NS2_5listSEEES6_S6_S7_S8_S8_S8_S9_E6config13stored_vertexEEENS_16reverse_iteratorIPSD_EEEclB8ne180100Ev, symObjAddr: 0xFD50, symBinAddr: 0x100013070, symSize: 0xB4 }
  - { offset: 0x3F237, size: 0x8, addend: 0x0, symName: __ZNSt3__116reverse_iteratorINS0_IPN5boost6detail12adj_list_genINS1_14adjacency_listINS1_4vecSES5_NS1_9directedSENS1_11no_propertyES7_S7_NS1_5listSEEES5_S5_S6_S7_S7_S7_S8_E6config13stored_vertexEEEEC1B8ne180100ESE_, symObjAddr: 0xFE74, symBinAddr: 0x100013194, symSize: 0x3C }
  - { offset: 0x3F26F, size: 0x8, addend: 0x0, symName: __ZNSt3__116reverse_iteratorINS0_IPN5boost6detail12adj_list_genINS1_14adjacency_listINS1_4vecSES5_NS1_9directedSENS1_11no_propertyES7_S7_NS1_5listSEEES5_S5_S6_S7_S7_S7_S8_E6config13stored_vertexEEEEppB8ne180100Ev, symObjAddr: 0xFF34, symBinAddr: 0x100013254, symSize: 0x30 }
  - { offset: 0x3F295, size: 0x8, addend: 0x0, symName: __ZNKSt3__116reverse_iteratorINS0_IPN5boost6detail12adj_list_genINS1_14adjacency_listINS1_4vecSES5_NS1_9directedSENS1_11no_propertyES7_S7_NS1_5listSEEES5_S5_S6_S7_S7_S7_S8_E6config13stored_vertexEEEE4baseB8ne180100Ev, symObjAddr: 0xFF64, symBinAddr: 0x100013284, symSize: 0x24 }
  - { offset: 0x3F2C1, size: 0x8, addend: 0x0, symName: __ZNSt3__119__to_address_helperINS_16reverse_iteratorINS1_IPN5boost6detail12adj_list_genINS2_14adjacency_listINS2_4vecSES6_NS2_9directedSENS2_11no_propertyES8_S8_NS2_5listSEEES6_S6_S7_S8_S8_S8_S9_E6config13stored_vertexEEEEEvE6__callB8ne180100ERKSG_, symObjAddr: 0xFF88, symBinAddr: 0x1000132A8, symSize: 0x38 }
  - { offset: 0x3F2E4, size: 0x8, addend: 0x0, symName: __ZNKSt3__116reverse_iteratorINS0_IPN5boost6detail12adj_list_genINS1_14adjacency_listINS1_4vecSES5_NS1_9directedSENS1_11no_propertyES7_S7_NS1_5listSEEES5_S5_S6_S7_S7_S7_S8_E6config13stored_vertexEEEEptB8ne180100Ev, symObjAddr: 0xFFC0, symBinAddr: 0x1000132E0, symSize: 0x24 }
  - { offset: 0x3F30A, size: 0x8, addend: 0x0, symName: __ZNKSt3__116reverse_iteratorINS0_IPN5boost6detail12adj_list_genINS1_14adjacency_listINS1_4vecSES5_NS1_9directedSENS1_11no_propertyES7_S7_NS1_5listSEEES5_S5_S6_S7_S7_S7_S8_E6config13stored_vertexEEEEdeB8ne180100Ev, symObjAddr: 0xFFE4, symBinAddr: 0x100013304, symSize: 0x34 }
  - { offset: 0x3F33E, size: 0x8, addend: 0x0, symName: __ZNSt3__116reverse_iteratorIPN5boost6detail12adj_list_genINS1_14adjacency_listINS1_4vecSES5_NS1_9directedSENS1_11no_propertyES7_S7_NS1_5listSEEES5_S5_S6_S7_S7_S7_S8_E6config13stored_vertexEEmmB8ne180100Ev, symObjAddr: 0x10018, symBinAddr: 0x100013338, symSize: 0x20 }
  - { offset: 0x3F364, size: 0x8, addend: 0x0, symName: __ZNSt3__116reverse_iteratorINS0_IPN5boost6detail12adj_list_genINS1_14adjacency_listINS1_4vecSES5_NS1_9directedSENS1_11no_propertyES7_S7_NS1_5listSEEES5_S5_S6_S7_S7_S7_S8_E6config13stored_vertexEEEEC2B8ne180100ESE_, symObjAddr: 0x10038, symBinAddr: 0x100013358, symSize: 0x2C }
  - { offset: 0x3F39C, size: 0x8, addend: 0x0, symName: __ZNSt3__116reverse_iteratorIPN5boost6detail12adj_list_genINS1_14adjacency_listINS1_4vecSES5_NS1_9directedSENS1_11no_propertyES7_S7_NS1_5listSEEES5_S5_S6_S7_S7_S7_S8_E6config13stored_vertexEEC2B8ne180100ESD_, symObjAddr: 0x10064, symBinAddr: 0x100013384, symSize: 0x28 }
  - { offset: 0x3F3D4, size: 0x8, addend: 0x0, symName: __ZNSt3__114__split_bufferIN5boost6detail12adj_list_genINS1_14adjacency_listINS1_4vecSES5_NS1_9directedSENS1_11no_propertyES7_S7_NS1_5listSEEES5_S5_S6_S7_S7_S7_S8_E6config13stored_vertexERNS_9allocatorISC_EEED2Ev, symObjAddr: 0x1008C, symBinAddr: 0x1000133AC, symSize: 0x8C }
  - { offset: 0x3F400, size: 0x8, addend: 0x0, symName: __ZNSt3__114__split_bufferIN5boost6detail12adj_list_genINS1_14adjacency_listINS1_4vecSES5_NS1_9directedSENS1_11no_propertyES7_S7_NS1_5listSEEES5_S5_S6_S7_S7_S7_S8_E6config13stored_vertexERNS_9allocatorISC_EEE5clearB8ne180100Ev, symObjAddr: 0x10118, symBinAddr: 0x100013438, symSize: 0x28 }
  - { offset: 0x3F426, size: 0x8, addend: 0x0, symName: __ZNKSt3__114__split_bufferIN5boost6detail12adj_list_genINS1_14adjacency_listINS1_4vecSES5_NS1_9directedSENS1_11no_propertyES7_S7_NS1_5listSEEES5_S5_S6_S7_S7_S7_S8_E6config13stored_vertexERNS_9allocatorISC_EEE8capacityB8ne180100Ev, symObjAddr: 0x10140, symBinAddr: 0x100013460, symSize: 0x40 }
  - { offset: 0x3F44C, size: 0x8, addend: 0x0, symName: __ZNSt3__114__split_bufferIN5boost6detail12adj_list_genINS1_14adjacency_listINS1_4vecSES5_NS1_9directedSENS1_11no_propertyES7_S7_NS1_5listSEEES5_S5_S6_S7_S7_S7_S8_E6config13stored_vertexERNS_9allocatorISC_EEE17__destruct_at_endB8ne180100EPSC_, symObjAddr: 0x10180, symBinAddr: 0x1000134A0, symSize: 0x2C }
  - { offset: 0x3F480, size: 0x8, addend: 0x0, symName: __ZNSt3__114__split_bufferIN5boost6detail12adj_list_genINS1_14adjacency_listINS1_4vecSES5_NS1_9directedSENS1_11no_propertyES7_S7_NS1_5listSEEES5_S5_S6_S7_S7_S7_S8_E6config13stored_vertexERNS_9allocatorISC_EEE17__destruct_at_endB8ne180100EPSC_NS_17integral_constantIbLb0EEE, symObjAddr: 0x101AC, symBinAddr: 0x1000134CC, symSize: 0x80 }
  - { offset: 0x3F4C0, size: 0x8, addend: 0x0, symName: __ZNKSt3__114__split_bufferIN5boost6detail12adj_list_genINS1_14adjacency_listINS1_4vecSES5_NS1_9directedSENS1_11no_propertyES7_S7_NS1_5listSEEES5_S5_S6_S7_S7_S7_S8_E6config13stored_vertexERNS_9allocatorISC_EEE9__end_capB8ne180100Ev, symObjAddr: 0x1022C, symBinAddr: 0x10001354C, symSize: 0x28 }
  - { offset: 0x3F4E6, size: 0x8, addend: 0x0, symName: __ZNKSt3__117__compressed_pairIPN5boost6detail12adj_list_genINS1_14adjacency_listINS1_4vecSES5_NS1_9directedSENS1_11no_propertyES7_S7_NS1_5listSEEES5_S5_S6_S7_S7_S7_S8_E6config13stored_vertexERNS_9allocatorISC_EEE5firstB8ne180100Ev, symObjAddr: 0x10254, symBinAddr: 0x100013574, symSize: 0x24 }
  - { offset: 0x3F512, size: 0x8, addend: 0x0, symName: __ZN5boost3anyC1IRNS_6detail14edge_desc_implINS_12directed_tagEmEEEEOT_PNSt3__19enable_ifIXntsr3std7is_sameIRS0_S7_EE5valueEvE4typeEPNSA_IXntsr8is_constIS7_EE5valueEvE4typeE, symObjAddr: 0x10374, symBinAddr: 0x100013694, symSize: 0x44 }
  - { offset: 0x3F567, size: 0x8, addend: 0x0, symName: __ZN5boost3anyD1Ev, symObjAddr: 0x103B8, symBinAddr: 0x1000136D8, symSize: 0x2C }
  - { offset: 0x3F591, size: 0x8, addend: 0x0, symName: __ZNSt3__16vectorIN5boost6detail12adj_list_genINS1_14adjacency_listINS1_4vecSES5_NS1_9directedSENS1_11no_propertyES7_S7_NS1_5listSEEES5_S5_S6_S7_S7_S7_S8_E6config13stored_vertexENS_9allocatorISC_EEE6resizeEm, symObjAddr: 0x10488, symBinAddr: 0x1000137A8, symSize: 0x94 }
  - { offset: 0x3F5D7, size: 0x8, addend: 0x0, symName: __ZNSt3__16vectorIN5boost6detail12adj_list_genINS1_14adjacency_listINS1_4vecSES5_NS1_9directedSENS1_11no_propertyES7_S7_NS1_5listSEEES5_S5_S6_S7_S7_S7_S8_E6config13stored_vertexENS_9allocatorISC_EEE8__appendEm, symObjAddr: 0x10634, symBinAddr: 0x100013954, symSize: 0x108 }
  - { offset: 0x3F632, size: 0x8, addend: 0x0, symName: __ZNSt3__16vectorIN5boost6detail12adj_list_genINS1_14adjacency_listINS1_4vecSES5_NS1_9directedSENS1_11no_propertyES7_S7_NS1_5listSEEES5_S5_S6_S7_S7_S7_S8_E6config13stored_vertexENS_9allocatorISC_EEE17__destruct_at_endB8ne180100EPSC_, symObjAddr: 0x1073C, symBinAddr: 0x100013A5C, symSize: 0x4C }
  - { offset: 0x3F676, size: 0x8, addend: 0x0, symName: __ZNSt3__16vectorIN5boost6detail12adj_list_genINS1_14adjacency_listINS1_4vecSES5_NS1_9directedSENS1_11no_propertyES7_S7_NS1_5listSEEES5_S5_S6_S7_S7_S7_S8_E6config13stored_vertexENS_9allocatorISC_EEE18__construct_at_endEm, symObjAddr: 0x10788, symBinAddr: 0x100013AA8, symSize: 0xC8 }
  - { offset: 0x3F6E8, size: 0x8, addend: 0x0, symName: __ZNSt3__114__split_bufferIN5boost6detail12adj_list_genINS1_14adjacency_listINS1_4vecSES5_NS1_9directedSENS1_11no_propertyES7_S7_NS1_5listSEEES5_S5_S6_S7_S7_S7_S8_E6config13stored_vertexERNS_9allocatorISC_EEE18__construct_at_endEm, symObjAddr: 0x10850, symBinAddr: 0x100013B70, symSize: 0xB4 }
  - { offset: 0x3F737, size: 0x8, addend: 0x0, symName: __ZNSt3__114__split_bufferIN5boost6detail12adj_list_genINS1_14adjacency_listINS1_4vecSES5_NS1_9directedSENS1_11no_propertyES7_S7_NS1_5listSEEES5_S5_S6_S7_S7_S7_S8_E6config13stored_vertexERNS_9allocatorISC_EEE21_ConstructTransactionC1B8ne180100EPPSC_m, symObjAddr: 0x10904, symBinAddr: 0x100013C24, symSize: 0x3C }
  - { offset: 0x3F77D, size: 0x8, addend: 0x0, symName: __ZNSt3__114__split_bufferIN5boost6detail12adj_list_genINS1_14adjacency_listINS1_4vecSES5_NS1_9directedSENS1_11no_propertyES7_S7_NS1_5listSEEES5_S5_S6_S7_S7_S7_S8_E6config13stored_vertexERNS_9allocatorISC_EEE21_ConstructTransactionD1B8ne180100Ev, symObjAddr: 0x10940, symBinAddr: 0x100013C60, symSize: 0x2C }
  - { offset: 0x3F7A7, size: 0x8, addend: 0x0, symName: __ZNSt3__114__split_bufferIN5boost6detail12adj_list_genINS1_14adjacency_listINS1_4vecSES5_NS1_9directedSENS1_11no_propertyES7_S7_NS1_5listSEEES5_S5_S6_S7_S7_S7_S8_E6config13stored_vertexERNS_9allocatorISC_EEE21_ConstructTransactionC2B8ne180100EPPSC_m, symObjAddr: 0x1096C, symBinAddr: 0x100013C8C, symSize: 0x44 }
  - { offset: 0x3F7ED, size: 0x8, addend: 0x0, symName: __ZNSt3__114__split_bufferIN5boost6detail12adj_list_genINS1_14adjacency_listINS1_4vecSES5_NS1_9directedSENS1_11no_propertyES7_S7_NS1_5listSEEES5_S5_S6_S7_S7_S7_S8_E6config13stored_vertexERNS_9allocatorISC_EEE21_ConstructTransactionD2B8ne180100Ev, symObjAddr: 0x109B0, symBinAddr: 0x100013CD0, symSize: 0x20 }
  - { offset: 0x3F817, size: 0x8, addend: 0x0, symName: __ZNKSt3__16vectorIN5boost6detail12adj_list_genINS1_14adjacency_listINS1_4vecSES5_NS1_9directedSENS1_11no_propertyES7_S7_NS1_5listSEEES5_S5_S6_S7_S7_S7_S8_E6config13stored_vertexENS_9allocatorISC_EEE17__annotate_shrinkB8ne180100Em, symObjAddr: 0x109D0, symBinAddr: 0x100013CF0, symSize: 0x14 }
  - { offset: 0x3F84C, size: 0x8, addend: 0x0, symName: __ZNSt3__111__wrap_iterIPN5boost6detail20stored_edge_propertyImNS1_11no_propertyEEEEC1B8ne180100Ev, symObjAddr: 0x109E4, symBinAddr: 0x100013D04, symSize: 0x2C }
  - { offset: 0x3F876, size: 0x8, addend: 0x0, symName: __ZN5boost17vec_adj_list_implINS_14adjacency_listINS_4vecSES2_NS_9directedSENS_11no_propertyES4_S4_NS_5listSEEENS_6detail12adj_list_genIS6_S2_S2_S3_S4_S4_S4_S5_E6configENS_21directed_graph_helperISA_EEE13out_edge_listEm, symObjAddr: 0x10A8C, symBinAddr: 0x100013DAC, symSize: 0x30 }
  - { offset: 0x3F8AB, size: 0x8, addend: 0x0, symName: __ZN5boost6detail20stored_edge_propertyImNS_11no_propertyEEC1EmRKS2_, symObjAddr: 0x10ABC, symBinAddr: 0x100013DDC, symSize: 0x3C }
  - { offset: 0x3F977, size: 0x8, addend: 0x0, symName: __ZN5boost6tuples5tupleIRNSt3__111__wrap_iterIPNS_6detail20stored_edge_propertyImNS_11no_propertyEEEEERbNS0_9null_typeESC_SC_SC_SC_SC_SC_SC_EaSIS9_bEERSD_RKNS2_4pairIT_T0_EE, symObjAddr: 0x10B38, symBinAddr: 0x100013E58, symSize: 0x3C }
  - { offset: 0x3F9BE, size: 0x8, addend: 0x0, symName: __ZNKSt3__111__wrap_iterIPN5boost6detail20stored_edge_propertyImNS1_11no_propertyEEEEdeB8ne180100Ev, symObjAddr: 0x10BAC, symBinAddr: 0x100013ECC, symSize: 0x18 }
  - { offset: 0x3F9E4, size: 0x8, addend: 0x0, symName: __ZN5boost6detail20stored_edge_propertyImNS_11no_propertyEE12get_propertyEv, symObjAddr: 0x10BC4, symBinAddr: 0x100013EE4, symSize: 0x28 }
  - { offset: 0x3FA0A, size: 0x8, addend: 0x0, symName: __ZN5boost6detail14edge_desc_implINS_12directed_tagEmEC1EmmPKv, symObjAddr: 0x10BEC, symBinAddr: 0x100013F0C, symSize: 0x44 }
  - { offset: 0x3FA5E, size: 0x8, addend: 0x0, symName: __ZNSt3__111__wrap_iterIPN5boost6detail20stored_edge_propertyImNS1_11no_propertyEEEEC2B8ne180100Ev, symObjAddr: 0x10C30, symBinAddr: 0x100013F50, symSize: 0x18 }
  - { offset: 0x3FA94, size: 0x8, addend: 0x0, symName: __ZN5boost12graph_detail27back_insertion_sequence_tagC1EOS1_, symObjAddr: 0x10CF4, symBinAddr: 0x100014014, symSize: 0x90 }
  - { offset: 0x3FAC9, size: 0x8, addend: 0x0, symName: __ZNSt3__16vectorIN5boost6detail20stored_edge_propertyImNS1_11no_propertyEEENS_9allocatorIS5_EEE9push_backB8ne180100EOS5_, symObjAddr: 0x10D84, symBinAddr: 0x1000140A4, symSize: 0x90 }
  - { offset: 0x3FB0F, size: 0x8, addend: 0x0, symName: __ZNSt3__16vectorIN5boost6detail20stored_edge_propertyImNS1_11no_propertyEEENS_9allocatorIS5_EEE3endB8ne180100Ev, symObjAddr: 0x10E80, symBinAddr: 0x1000141A0, symSize: 0x30 }
  - { offset: 0x3FB3D, size: 0x8, addend: 0x0, symName: __ZNSt3__16vectorIN5boost6detail20stored_edge_propertyImNS1_11no_propertyEEENS_9allocatorIS5_EEE22__construct_one_at_endB8ne180100IJS5_EEEvDpOT_, symObjAddr: 0x10EB0, symBinAddr: 0x1000141D0, symSize: 0x90 }
  - { offset: 0x3FB8C, size: 0x8, addend: 0x0, symName: __ZNSt3__16vectorIN5boost6detail20stored_edge_propertyImNS1_11no_propertyEEENS_9allocatorIS5_EEE21__push_back_slow_pathIS5_EEPS5_OT_, symObjAddr: 0x10F40, symBinAddr: 0x100014260, symSize: 0xE8 }
  - { offset: 0x3FC06, size: 0x8, addend: 0x0, symName: __ZNSt3__16vectorIN5boost6detail20stored_edge_propertyImNS1_11no_propertyEEENS_9allocatorIS5_EEE21_ConstructTransactionC1B8ne180100ERS8_m, symObjAddr: 0x11028, symBinAddr: 0x100014348, symSize: 0x3C }
  - { offset: 0x3FC4E, size: 0x8, addend: 0x0, symName: __ZNSt3__116allocator_traitsINS_9allocatorIN5boost6detail20stored_edge_propertyImNS2_11no_propertyEEEEEE9constructB8ne180100IS6_JS6_EvEEvRS7_PT_DpOT0_, symObjAddr: 0x11064, symBinAddr: 0x100014384, symSize: 0x34 }
  - { offset: 0x3FCA5, size: 0x8, addend: 0x0, symName: __ZNSt3__16vectorIN5boost6detail20stored_edge_propertyImNS1_11no_propertyEEENS_9allocatorIS5_EEE21_ConstructTransactionD1B8ne180100Ev, symObjAddr: 0x11098, symBinAddr: 0x1000143B8, symSize: 0x2C }
  - { offset: 0x3FCCF, size: 0x8, addend: 0x0, symName: __ZNSt3__16vectorIN5boost6detail20stored_edge_propertyImNS1_11no_propertyEEENS_9allocatorIS5_EEE21_ConstructTransactionC2B8ne180100ERS8_m, symObjAddr: 0x110C4, symBinAddr: 0x1000143E4, symSize: 0x44 }
  - { offset: 0x3FD17, size: 0x8, addend: 0x0, symName: __ZNSt3__19allocatorIN5boost6detail20stored_edge_propertyImNS1_11no_propertyEEEE9constructB8ne180100IS5_JS5_EEEvPT_DpOT0_, symObjAddr: 0x11108, symBinAddr: 0x100014428, symSize: 0x30 }
  - { offset: 0x3FD6D, size: 0x8, addend: 0x0, symName: __ZN5boost6detail20stored_edge_propertyImNS_11no_propertyEEC1EOS3_, symObjAddr: 0x11138, symBinAddr: 0x100014458, symSize: 0x34 }
  - { offset: 0x3FDA6, size: 0x8, addend: 0x0, symName: __ZN5boost6detail20stored_edge_propertyImNS_11no_propertyEEC2EOS3_, symObjAddr: 0x1116C, symBinAddr: 0x10001448C, symSize: 0x48 }
  - { offset: 0x3FDDF, size: 0x8, addend: 0x0, symName: __ZNSt3__110unique_ptrIN5boost11no_propertyENS_14default_deleteIS2_EEEC1B8ne180100EOS5_, symObjAddr: 0x111B4, symBinAddr: 0x1000144D4, symSize: 0x34 }
  - { offset: 0x3FE17, size: 0x8, addend: 0x0, symName: __ZNSt3__110unique_ptrIN5boost11no_propertyENS_14default_deleteIS2_EEEC2B8ne180100EOS5_, symObjAddr: 0x111E8, symBinAddr: 0x100014508, symSize: 0x60 }
  - { offset: 0x3FE4F, size: 0x8, addend: 0x0, symName: __ZNSt3__110unique_ptrIN5boost11no_propertyENS_14default_deleteIS2_EEE7releaseB8ne180100Ev, symObjAddr: 0x11248, symBinAddr: 0x100014568, symSize: 0x44 }
  - { offset: 0x3FE84, size: 0x8, addend: 0x0, symName: __ZNSt3__110unique_ptrIN5boost11no_propertyENS_14default_deleteIS2_EEE11get_deleterB8ne180100Ev, symObjAddr: 0x1128C, symBinAddr: 0x1000145AC, symSize: 0x24 }
  - { offset: 0x3FEB6, size: 0x8, addend: 0x0, symName: __ZNSt3__117__compressed_pairIPN5boost11no_propertyENS_14default_deleteIS2_EEEC1B8ne180100IS3_S5_EEOT_OT0_, symObjAddr: 0x112B0, symBinAddr: 0x1000145D0, symSize: 0x3C }
  - { offset: 0x3FF0E, size: 0x8, addend: 0x0, symName: __ZNSt3__117__compressed_pairIPN5boost11no_propertyENS_14default_deleteIS2_EEEC2B8ne180100IS3_S5_EEOT_OT0_, symObjAddr: 0x112EC, symBinAddr: 0x10001460C, symSize: 0x44 }
  - { offset: 0x3FF66, size: 0x8, addend: 0x0, symName: __ZNSt3__122__compressed_pair_elemIPN5boost11no_propertyELi0ELb0EEC2B8ne180100IS3_vEEOT_, symObjAddr: 0x11330, symBinAddr: 0x100014650, symSize: 0x24 }
  - { offset: 0x3FFA8, size: 0x8, addend: 0x0, symName: __ZNSt3__122__compressed_pair_elemINS_14default_deleteIN5boost11no_propertyEEELi1ELb1EEC2B8ne180100IS4_vEEOT_, symObjAddr: 0x11354, symBinAddr: 0x100014674, symSize: 0x18 }
  - { offset: 0x3FFEA, size: 0x8, addend: 0x0, symName: __ZNSt3__16vectorIN5boost6detail20stored_edge_propertyImNS1_11no_propertyEEENS_9allocatorIS5_EEE21_ConstructTransactionD2B8ne180100Ev, symObjAddr: 0x1136C, symBinAddr: 0x10001468C, symSize: 0x20 }
  - { offset: 0x40014, size: 0x8, addend: 0x0, symName: __ZNKSt3__16vectorIN5boost6detail20stored_edge_propertyImNS1_11no_propertyEEENS_9allocatorIS5_EEE11__recommendB8ne180100Em, symObjAddr: 0x1138C, symBinAddr: 0x1000146AC, symSize: 0xB4 }
  - { offset: 0x40069, size: 0x8, addend: 0x0, symName: __ZNKSt3__16vectorIN5boost6detail20stored_edge_propertyImNS1_11no_propertyEEENS_9allocatorIS5_EEE4sizeB8ne180100Ev, symObjAddr: 0x11440, symBinAddr: 0x100014760, symSize: 0x28 }
  - { offset: 0x4008F, size: 0x8, addend: 0x0, symName: __ZNSt3__114__split_bufferIN5boost6detail20stored_edge_propertyImNS1_11no_propertyEEERNS_9allocatorIS5_EEEC1EmmS8_, symObjAddr: 0x11468, symBinAddr: 0x100014788, symSize: 0x44 }
  - { offset: 0x400E5, size: 0x8, addend: 0x0, symName: __ZNSt3__114__split_bufferIN5boost6detail20stored_edge_propertyImNS1_11no_propertyEEERNS_9allocatorIS5_EEED1Ev, symObjAddr: 0x115BC, symBinAddr: 0x1000148DC, symSize: 0x2C }
  - { offset: 0x40111, size: 0x8, addend: 0x0, symName: __ZNKSt3__16vectorIN5boost6detail20stored_edge_propertyImNS1_11no_propertyEEENS_9allocatorIS5_EEE8max_sizeEv, symObjAddr: 0x115E8, symBinAddr: 0x100014908, symSize: 0x60 }
  - { offset: 0x40139, size: 0x8, addend: 0x0, symName: __ZNKSt3__16vectorIN5boost6detail20stored_edge_propertyImNS1_11no_propertyEEENS_9allocatorIS5_EEE20__throw_length_errorB8ne180100Ev, symObjAddr: 0x11648, symBinAddr: 0x100014968, symSize: 0x1C }
  - { offset: 0x4016A, size: 0x8, addend: 0x0, symName: __ZNSt3__116allocator_traitsINS_9allocatorIN5boost6detail20stored_edge_propertyImNS2_11no_propertyEEEEEE8max_sizeB8ne180100IS7_vEEmRKS7_, symObjAddr: 0x11664, symBinAddr: 0x100014984, symSize: 0x24 }
  - { offset: 0x40198, size: 0x8, addend: 0x0, symName: __ZNKSt3__16vectorIN5boost6detail20stored_edge_propertyImNS1_11no_propertyEEENS_9allocatorIS5_EEE7__allocB8ne180100Ev, symObjAddr: 0x11688, symBinAddr: 0x1000149A8, symSize: 0x28 }
  - { offset: 0x401BE, size: 0x8, addend: 0x0, symName: __ZNKSt3__19allocatorIN5boost6detail20stored_edge_propertyImNS1_11no_propertyEEEE8max_sizeB8ne180100Ev, symObjAddr: 0x116B0, symBinAddr: 0x1000149D0, symSize: 0x14 }
  - { offset: 0x401E4, size: 0x8, addend: 0x0, symName: __ZNKSt3__117__compressed_pairIPN5boost6detail20stored_edge_propertyImNS1_11no_propertyEEENS_9allocatorIS5_EEE6secondB8ne180100Ev, symObjAddr: 0x116C4, symBinAddr: 0x1000149E4, symSize: 0x24 }
  - { offset: 0x4020A, size: 0x8, addend: 0x0, symName: __ZNKSt3__122__compressed_pair_elemINS_9allocatorIN5boost6detail20stored_edge_propertyImNS2_11no_propertyEEEEELi1ELb1EE5__getB8ne180100Ev, symObjAddr: 0x116E8, symBinAddr: 0x100014A08, symSize: 0x14 }
  - { offset: 0x40230, size: 0x8, addend: 0x0, symName: __ZNSt3__114__split_bufferIN5boost6detail20stored_edge_propertyImNS1_11no_propertyEEERNS_9allocatorIS5_EEEC2EmmS8_, symObjAddr: 0x116FC, symBinAddr: 0x100014A1C, symSize: 0xD4 }
  - { offset: 0x402A3, size: 0x8, addend: 0x0, symName: __ZNSt3__117__compressed_pairIPN5boost6detail20stored_edge_propertyImNS1_11no_propertyEEERNS_9allocatorIS5_EEEC1B8ne180100IDnS9_EEOT_OT0_, symObjAddr: 0x117D0, symBinAddr: 0x100014AF0, symSize: 0x3C }
  - { offset: 0x402FB, size: 0x8, addend: 0x0, symName: __ZNSt3__114__split_bufferIN5boost6detail20stored_edge_propertyImNS1_11no_propertyEEERNS_9allocatorIS5_EEE7__allocB8ne180100Ev, symObjAddr: 0x1184C, symBinAddr: 0x100014B6C, symSize: 0x28 }
  - { offset: 0x40321, size: 0x8, addend: 0x0, symName: __ZNSt3__114__split_bufferIN5boost6detail20stored_edge_propertyImNS1_11no_propertyEEERNS_9allocatorIS5_EEE9__end_capB8ne180100Ev, symObjAddr: 0x11874, symBinAddr: 0x100014B94, symSize: 0x28 }
  - { offset: 0x40347, size: 0x8, addend: 0x0, symName: __ZNSt3__117__compressed_pairIPN5boost6detail20stored_edge_propertyImNS1_11no_propertyEEERNS_9allocatorIS5_EEEC2B8ne180100IDnS9_EEOT_OT0_, symObjAddr: 0x1189C, symBinAddr: 0x100014BBC, symSize: 0x48 }
  - { offset: 0x4039F, size: 0x8, addend: 0x0, symName: __ZNSt3__122__compressed_pair_elemIRNS_9allocatorIN5boost6detail20stored_edge_propertyImNS2_11no_propertyEEEEELi1ELb0EEC2B8ne180100IS8_vEEOT_, symObjAddr: 0x118E4, symBinAddr: 0x100014C04, symSize: 0x20 }
  - { offset: 0x403E1, size: 0x8, addend: 0x0, symName: __ZNSt3__19allocatorIN5boost6detail20stored_edge_propertyImNS1_11no_propertyEEEE8allocateB8ne180100Em, symObjAddr: 0x11904, symBinAddr: 0x100014C24, symSize: 0x58 }
  - { offset: 0x40415, size: 0x8, addend: 0x0, symName: __ZNSt3__117__compressed_pairIPN5boost6detail20stored_edge_propertyImNS1_11no_propertyEEERNS_9allocatorIS5_EEE6secondB8ne180100Ev, symObjAddr: 0x1195C, symBinAddr: 0x100014C7C, symSize: 0x28 }
  - { offset: 0x4043B, size: 0x8, addend: 0x0, symName: __ZNSt3__122__compressed_pair_elemIRNS_9allocatorIN5boost6detail20stored_edge_propertyImNS2_11no_propertyEEEEELi1ELb0EE5__getB8ne180100Ev, symObjAddr: 0x11984, symBinAddr: 0x100014CA4, symSize: 0x18 }
  - { offset: 0x40461, size: 0x8, addend: 0x0, symName: __ZNSt3__117__compressed_pairIPN5boost6detail20stored_edge_propertyImNS1_11no_propertyEEERNS_9allocatorIS5_EEE5firstB8ne180100Ev, symObjAddr: 0x1199C, symBinAddr: 0x100014CBC, symSize: 0x24 }
  - { offset: 0x40487, size: 0x8, addend: 0x0, symName: __ZNSt3__116reverse_iteratorIPN5boost6detail20stored_edge_propertyImNS1_11no_propertyEEEEC1B8ne180100ES6_, symObjAddr: 0x11AEC, symBinAddr: 0x100014E0C, symSize: 0x34 }
  - { offset: 0x404BF, size: 0x8, addend: 0x0, symName: __ZNKSt3__116reverse_iteratorIPN5boost6detail20stored_edge_propertyImNS1_11no_propertyEEEE4baseB8ne180100Ev, symObjAddr: 0x11B20, symBinAddr: 0x100014E40, symSize: 0x18 }
  - { offset: 0x404E5, size: 0x8, addend: 0x0, symName: __ZNKSt3__16vectorIN5boost6detail20stored_edge_propertyImNS1_11no_propertyEEENS_9allocatorIS5_EEE14__annotate_newB8ne180100Em, symObjAddr: 0x11B74, symBinAddr: 0x100014E94, symSize: 0x14 }
  - { offset: 0x4051A, size: 0x8, addend: 0x0, symName: __ZNSt3__129_AllocatorDestroyRangeReverseINS_9allocatorIN5boost6detail20stored_edge_propertyImNS2_11no_propertyEEEEENS_16reverse_iteratorIPS6_EEEC1B8ne180100ERS7_RSA_SD_, symObjAddr: 0x11BD4, symBinAddr: 0x100014EF4, symSize: 0x44 }
  - { offset: 0x40571, size: 0x8, addend: 0x0, symName: __ZNSt3__116allocator_traitsINS_9allocatorIN5boost6detail20stored_edge_propertyImNS2_11no_propertyEEEEEE9constructB8ne180100IS6_JRKS6_EvEEvRS7_PT_DpOT0_, symObjAddr: 0x11C60, symBinAddr: 0x100014F80, symSize: 0x34 }
  - { offset: 0x405C8, size: 0x8, addend: 0x0, symName: __ZNKSt3__116reverse_iteratorIPN5boost6detail20stored_edge_propertyImNS1_11no_propertyEEEEdeB8ne180100Ev, symObjAddr: 0x11CB8, symBinAddr: 0x100014FD8, symSize: 0x28 }
  - { offset: 0x405FC, size: 0x8, addend: 0x0, symName: __ZNSt3__116reverse_iteratorIPN5boost6detail20stored_edge_propertyImNS1_11no_propertyEEEEppB8ne180100Ev, symObjAddr: 0x11CE0, symBinAddr: 0x100015000, symSize: 0x20 }
  - { offset: 0x40622, size: 0x8, addend: 0x0, symName: __ZNSt3__128__exception_guard_exceptionsINS_29_AllocatorDestroyRangeReverseINS_9allocatorIN5boost6detail20stored_edge_propertyImNS3_11no_propertyEEEEENS_16reverse_iteratorIPS7_EEEEE10__completeB8ne180100Ev, symObjAddr: 0x11D00, symBinAddr: 0x100015020, symSize: 0x1C }
  - { offset: 0x40648, size: 0x8, addend: 0x0, symName: __ZNSt3__128__exception_guard_exceptionsINS_29_AllocatorDestroyRangeReverseINS_9allocatorIN5boost6detail20stored_edge_propertyImNS3_11no_propertyEEEEENS_16reverse_iteratorIPS7_EEEEED1B8ne180100Ev, symObjAddr: 0x11D1C, symBinAddr: 0x10001503C, symSize: 0x2C }
  - { offset: 0x40672, size: 0x8, addend: 0x0, symName: __ZNSt3__128__exception_guard_exceptionsINS_29_AllocatorDestroyRangeReverseINS_9allocatorIN5boost6detail20stored_edge_propertyImNS3_11no_propertyEEEEENS_16reverse_iteratorIPS7_EEEEEC1B8ne180100ESC_, symObjAddr: 0x11D48, symBinAddr: 0x100015068, symSize: 0x34 }
  - { offset: 0x406AB, size: 0x8, addend: 0x0, symName: __ZNSt3__128__exception_guard_exceptionsINS_29_AllocatorDestroyRangeReverseINS_9allocatorIN5boost6detail20stored_edge_propertyImNS3_11no_propertyEEEEENS_16reverse_iteratorIPS7_EEEEEC2B8ne180100ESC_, symObjAddr: 0x11D7C, symBinAddr: 0x10001509C, symSize: 0x30 }
  - { offset: 0x406E4, size: 0x8, addend: 0x0, symName: __ZNSt3__129_AllocatorDestroyRangeReverseINS_9allocatorIN5boost6detail20stored_edge_propertyImNS2_11no_propertyEEEEENS_16reverse_iteratorIPS6_EEEC2B8ne180100ERS7_RSA_SD_, symObjAddr: 0x11DAC, symBinAddr: 0x1000150CC, symSize: 0x38 }
  - { offset: 0x4073B, size: 0x8, addend: 0x0, symName: __ZNSt3__19allocatorIN5boost6detail20stored_edge_propertyImNS1_11no_propertyEEEE9constructB8ne180100IS5_JRKS5_EEEvPT_DpOT0_, symObjAddr: 0x11DE4, symBinAddr: 0x100015104, symSize: 0x30 }
  - { offset: 0x40791, size: 0x8, addend: 0x0, symName: __ZN5boost6detail20stored_edge_propertyImNS_11no_propertyEEC1ERKS3_, symObjAddr: 0x11E14, symBinAddr: 0x100015134, symSize: 0x34 }
  - { offset: 0x407CA, size: 0x8, addend: 0x0, symName: __ZN5boost6detail20stored_edge_propertyImNS_11no_propertyEEC2ERKS3_, symObjAddr: 0x11E48, symBinAddr: 0x100015168, symSize: 0x48 }
  - { offset: 0x40809, size: 0x8, addend: 0x0, symName: __ZNSt3__119__to_address_helperINS_16reverse_iteratorIPN5boost6detail20stored_edge_propertyImNS2_11no_propertyEEEEEvE6__callB8ne180100ERKS8_, symObjAddr: 0x11E90, symBinAddr: 0x1000151B0, symSize: 0x38 }
  - { offset: 0x4082C, size: 0x8, addend: 0x0, symName: __ZNKSt3__116reverse_iteratorIPN5boost6detail20stored_edge_propertyImNS1_11no_propertyEEEEptB8ne180100Ev, symObjAddr: 0x11EC8, symBinAddr: 0x1000151E8, symSize: 0x24 }
  - { offset: 0x40852, size: 0x8, addend: 0x0, symName: __ZNSt3__128__exception_guard_exceptionsINS_29_AllocatorDestroyRangeReverseINS_9allocatorIN5boost6detail20stored_edge_propertyImNS3_11no_propertyEEEEENS_16reverse_iteratorIPS7_EEEEED2B8ne180100Ev, symObjAddr: 0x11EEC, symBinAddr: 0x10001520C, symSize: 0x50 }
  - { offset: 0x4087C, size: 0x8, addend: 0x0, symName: __ZNKSt3__129_AllocatorDestroyRangeReverseINS_9allocatorIN5boost6detail20stored_edge_propertyImNS2_11no_propertyEEEEENS_16reverse_iteratorIPS6_EEEclB8ne180100Ev, symObjAddr: 0x11F3C, symBinAddr: 0x10001525C, symSize: 0xB4 }
  - { offset: 0x408A3, size: 0x8, addend: 0x0, symName: __ZNSt3__116reverse_iteratorINS0_IPN5boost6detail20stored_edge_propertyImNS1_11no_propertyEEEEEEC1B8ne180100ES7_, symObjAddr: 0x12060, symBinAddr: 0x100015380, symSize: 0x3C }
  - { offset: 0x408DB, size: 0x8, addend: 0x0, symName: __ZNSt3__116reverse_iteratorINS0_IPN5boost6detail20stored_edge_propertyImNS1_11no_propertyEEEEEEppB8ne180100Ev, symObjAddr: 0x12120, symBinAddr: 0x100015440, symSize: 0x30 }
  - { offset: 0x40901, size: 0x8, addend: 0x0, symName: __ZNKSt3__116reverse_iteratorINS0_IPN5boost6detail20stored_edge_propertyImNS1_11no_propertyEEEEEE4baseB8ne180100Ev, symObjAddr: 0x12150, symBinAddr: 0x100015470, symSize: 0x24 }
  - { offset: 0x4092D, size: 0x8, addend: 0x0, symName: __ZNSt3__119__to_address_helperINS_16reverse_iteratorINS1_IPN5boost6detail20stored_edge_propertyImNS2_11no_propertyEEEEEEEvE6__callB8ne180100ERKS9_, symObjAddr: 0x12174, symBinAddr: 0x100015494, symSize: 0x38 }
  - { offset: 0x40950, size: 0x8, addend: 0x0, symName: __ZNKSt3__116reverse_iteratorINS0_IPN5boost6detail20stored_edge_propertyImNS1_11no_propertyEEEEEEptB8ne180100Ev, symObjAddr: 0x121AC, symBinAddr: 0x1000154CC, symSize: 0x24 }
  - { offset: 0x40976, size: 0x8, addend: 0x0, symName: __ZNKSt3__116reverse_iteratorINS0_IPN5boost6detail20stored_edge_propertyImNS1_11no_propertyEEEEEEdeB8ne180100Ev, symObjAddr: 0x121D0, symBinAddr: 0x1000154F0, symSize: 0x34 }
  - { offset: 0x409AA, size: 0x8, addend: 0x0, symName: __ZNSt3__116reverse_iteratorIPN5boost6detail20stored_edge_propertyImNS1_11no_propertyEEEEmmB8ne180100Ev, symObjAddr: 0x12204, symBinAddr: 0x100015524, symSize: 0x20 }
  - { offset: 0x409D0, size: 0x8, addend: 0x0, symName: __ZNSt3__116reverse_iteratorINS0_IPN5boost6detail20stored_edge_propertyImNS1_11no_propertyEEEEEEC2B8ne180100ES7_, symObjAddr: 0x12224, symBinAddr: 0x100015544, symSize: 0x2C }
  - { offset: 0x40A08, size: 0x8, addend: 0x0, symName: __ZNSt3__116reverse_iteratorIPN5boost6detail20stored_edge_propertyImNS1_11no_propertyEEEEC2B8ne180100ES6_, symObjAddr: 0x12250, symBinAddr: 0x100015570, symSize: 0x28 }
  - { offset: 0x40A40, size: 0x8, addend: 0x0, symName: __ZNSt3__114__split_bufferIN5boost6detail20stored_edge_propertyImNS1_11no_propertyEEERNS_9allocatorIS5_EEED2Ev, symObjAddr: 0x12278, symBinAddr: 0x100015598, symSize: 0x8C }
  - { offset: 0x40A6C, size: 0x8, addend: 0x0, symName: __ZNSt3__114__split_bufferIN5boost6detail20stored_edge_propertyImNS1_11no_propertyEEERNS_9allocatorIS5_EEE5clearB8ne180100Ev, symObjAddr: 0x12304, symBinAddr: 0x100015624, symSize: 0x28 }
  - { offset: 0x40A92, size: 0x8, addend: 0x0, symName: __ZNKSt3__114__split_bufferIN5boost6detail20stored_edge_propertyImNS1_11no_propertyEEERNS_9allocatorIS5_EEE8capacityB8ne180100Ev, symObjAddr: 0x1232C, symBinAddr: 0x10001564C, symSize: 0x40 }
  - { offset: 0x40AB8, size: 0x8, addend: 0x0, symName: __ZNSt3__114__split_bufferIN5boost6detail20stored_edge_propertyImNS1_11no_propertyEEERNS_9allocatorIS5_EEE17__destruct_at_endB8ne180100EPS5_, symObjAddr: 0x1236C, symBinAddr: 0x10001568C, symSize: 0x2C }
  - { offset: 0x40AEC, size: 0x8, addend: 0x0, symName: __ZNSt3__114__split_bufferIN5boost6detail20stored_edge_propertyImNS1_11no_propertyEEERNS_9allocatorIS5_EEE17__destruct_at_endB8ne180100EPS5_NS_17integral_constantIbLb0EEE, symObjAddr: 0x12398, symBinAddr: 0x1000156B8, symSize: 0x80 }
  - { offset: 0x40B2C, size: 0x8, addend: 0x0, symName: __ZNKSt3__114__split_bufferIN5boost6detail20stored_edge_propertyImNS1_11no_propertyEEERNS_9allocatorIS5_EEE9__end_capB8ne180100Ev, symObjAddr: 0x12418, symBinAddr: 0x100015738, symSize: 0x28 }
  - { offset: 0x40B52, size: 0x8, addend: 0x0, symName: __ZNKSt3__117__compressed_pairIPN5boost6detail20stored_edge_propertyImNS1_11no_propertyEEERNS_9allocatorIS5_EEE5firstB8ne180100Ev, symObjAddr: 0x12440, symBinAddr: 0x100015760, symSize: 0x24 }
  - { offset: 0x40B84, size: 0x8, addend: 0x0, symName: __ZNSt3__14pairINS_11__wrap_iterIPN5boost6detail20stored_edge_propertyImNS2_11no_propertyEEEEEbEC1B8ne180100IS8_bLi0EEEOT_OT0_, symObjAddr: 0x12464, symBinAddr: 0x100015784, symSize: 0x3C }
  - { offset: 0x40BE2, size: 0x8, addend: 0x0, symName: __ZNSt3__14pairINS_11__wrap_iterIPN5boost6detail20stored_edge_propertyImNS2_11no_propertyEEEEEbEC2B8ne180100IS8_bLi0EEEOT_OT0_, symObjAddr: 0x124A0, symBinAddr: 0x1000157C0, symSize: 0x38 }
  - { offset: 0x40C40, size: 0x8, addend: 0x0, symName: __ZNSt3__111__wrap_iterIPN5boost6detail20stored_edge_propertyImNS1_11no_propertyEEEEmmB8ne180100Ev, symObjAddr: 0x124D8, symBinAddr: 0x1000157F8, symSize: 0x20 }
  - { offset: 0x40C66, size: 0x8, addend: 0x0, symName: __ZNSt3__16vectorIN5boost6detail20stored_edge_propertyImNS1_11no_propertyEEENS_9allocatorIS5_EEE11__make_iterB8ne180100EPS5_, symObjAddr: 0x124F8, symBinAddr: 0x100015818, symSize: 0x30 }
  - { offset: 0x40C9B, size: 0x8, addend: 0x0, symName: __ZNSt3__111__wrap_iterIPN5boost6detail20stored_edge_propertyImNS1_11no_propertyEEEEC1B8ne180100ES6_, symObjAddr: 0x12528, symBinAddr: 0x100015848, symSize: 0x34 }
  - { offset: 0x40CD3, size: 0x8, addend: 0x0, symName: __ZNSt3__111__wrap_iterIPN5boost6detail20stored_edge_propertyImNS1_11no_propertyEEEEC2B8ne180100ES6_, symObjAddr: 0x1255C, symBinAddr: 0x10001587C, symSize: 0x20 }
  - { offset: 0x40D11, size: 0x8, addend: 0x0, symName: __ZN5boost12graph_detail10vector_tagC1Ev, symObjAddr: 0x1257C, symBinAddr: 0x10001589C, symSize: 0xBC }
  - { offset: 0x40D43, size: 0x8, addend: 0x0, symName: __ZN5boost12graph_detail21forward_container_tagC2Ev, symObjAddr: 0x12638, symBinAddr: 0x100015958, symSize: 0x24 }
  - { offset: 0x40D82, size: 0x8, addend: 0x0, symName: __ZN5boost12graph_detail24reversible_container_tagC2Ev, symObjAddr: 0x1265C, symBinAddr: 0x10001597C, symSize: 0x34 }
  - { offset: 0x40DC1, size: 0x8, addend: 0x0, symName: __ZN5boost12graph_detail27random_access_container_tagC2Ev, symObjAddr: 0x12690, symBinAddr: 0x1000159B0, symSize: 0x44 }
  - { offset: 0x40E00, size: 0x8, addend: 0x0, symName: __ZN5boost12graph_detail12sequence_tagC2Ev, symObjAddr: 0x126D4, symBinAddr: 0x1000159F4, symSize: 0x34 }
  - { offset: 0x40E39, size: 0x8, addend: 0x0, symName: __ZN5boost12graph_detail27back_insertion_sequence_tagC2Ev, symObjAddr: 0x12708, symBinAddr: 0x100015A28, symSize: 0x44 }
  - { offset: 0x40E78, size: 0x8, addend: 0x0, symName: __ZN5boost12graph_detail21forward_container_tagC2EOS1_, symObjAddr: 0x1274C, symBinAddr: 0x100015A6C, symSize: 0x28 }
  - { offset: 0x40EC0, size: 0x8, addend: 0x0, symName: __ZN5boost12graph_detail12sequence_tagC2EOS1_, symObjAddr: 0x12774, symBinAddr: 0x100015A94, symSize: 0x38 }
  - { offset: 0x40F02, size: 0x8, addend: 0x0, symName: __ZNSt3__16vectorIN5boost6detail12adj_list_genINS1_14adjacency_listINS1_4vecSES5_NS1_9directedSENS1_11no_propertyES7_S7_NS1_5listSEEES5_S5_S6_S7_S7_S7_S8_E6config13stored_vertexENS_9allocatorISC_EEEixB8ne180100Em, symObjAddr: 0x127AC, symBinAddr: 0x100015ACC, symSize: 0x24 }
  - { offset: 0x40F39, size: 0x8, addend: 0x0, symName: __ZN5boost6detail20stored_edge_propertyImNS_11no_propertyEEC2EmRKS2_, symObjAddr: 0x127D0, symBinAddr: 0x100015AF0, symSize: 0x54 }
  - { offset: 0x40F81, size: 0x8, addend: 0x0, symName: __ZN5boost6detail11stored_edgeImEC2EmRKNS_11no_propertyE, symObjAddr: 0x12824, symBinAddr: 0x100015B44, symSize: 0x24 }
  - { offset: 0x40FC3, size: 0x8, addend: 0x0, symName: __ZNSt3__110unique_ptrIN5boost11no_propertyENS_14default_deleteIS2_EEEC1B8ne180100ILb1EvEEPS2_, symObjAddr: 0x12848, symBinAddr: 0x100015B68, symSize: 0x34 }
  - { offset: 0x41006, size: 0x8, addend: 0x0, symName: __ZNSt3__110unique_ptrIN5boost11no_propertyENS_14default_deleteIS2_EEEC2B8ne180100ILb1EvEEPS2_, symObjAddr: 0x1287C, symBinAddr: 0x100015B9C, symSize: 0x44 }
  - { offset: 0x41049, size: 0x8, addend: 0x0, symName: __ZNSt3__117__compressed_pairIPN5boost11no_propertyENS_14default_deleteIS2_EEEC1B8ne180100IRS3_NS_16__value_init_tagEEEOT_OT0_, symObjAddr: 0x128C0, symBinAddr: 0x100015BE0, symSize: 0x3C }
  - { offset: 0x410A1, size: 0x8, addend: 0x0, symName: __ZNSt3__117__compressed_pairIPN5boost11no_propertyENS_14default_deleteIS2_EEEC2B8ne180100IRS3_NS_16__value_init_tagEEEOT_OT0_, symObjAddr: 0x128FC, symBinAddr: 0x100015C1C, symSize: 0x40 }
  - { offset: 0x410F9, size: 0x8, addend: 0x0, symName: __ZNSt3__122__compressed_pair_elemIPN5boost11no_propertyELi0ELb0EEC2B8ne180100IRS3_vEEOT_, symObjAddr: 0x1293C, symBinAddr: 0x100015C5C, symSize: 0x24 }
  - { offset: 0x4113B, size: 0x8, addend: 0x0, symName: __ZNSt3__122__compressed_pair_elemINS_14default_deleteIN5boost11no_propertyEEELi1ELb1EEC2B8ne180100ENS_16__value_init_tagE, symObjAddr: 0x12960, symBinAddr: 0x100015C80, symSize: 0x14 }
  - { offset: 0x4116F, size: 0x8, addend: 0x0, symName: __ZN5boost6tuples5tupleIRNSt3__111__wrap_iterIPNS_6detail20stored_edge_propertyImNS_11no_propertyEEEEERbNS0_9null_typeESC_SC_SC_SC_SC_SC_SC_EC1ESA_SB_, symObjAddr: 0x12974, symBinAddr: 0x100015C94, symSize: 0x3C }
  - { offset: 0x411B7, size: 0x8, addend: 0x0, symName: __ZN5boost6tuples5tupleIRNSt3__111__wrap_iterIPNS_6detail20stored_edge_propertyImNS_11no_propertyEEEEERbNS0_9null_typeESC_SC_SC_SC_SC_SC_SC_EC2ESA_SB_, symObjAddr: 0x129B0, symBinAddr: 0x100015CD0, symSize: 0xA0 }
  - { offset: 0x411FF, size: 0x8, addend: 0x0, symName: __ZN5boost6tuples4consIRNSt3__111__wrap_iterIPNS_6detail20stored_edge_propertyImNS_11no_propertyEEEEENS1_IRbNS0_9null_typeEEEEC2IS9_bKSC_SG_SG_SG_SG_SG_SG_SG_EERT_RT0_RT1_RT2_RT3_RT4_RT5_RT6_RT7_RT8_, symObjAddr: 0x12A54, symBinAddr: 0x100015D74, symSize: 0xF4 }
  - { offset: 0x4131C, size: 0x8, addend: 0x0, symName: __ZN5boost6tuples4consIRbNS0_9null_typeEEC1IbEERT_RKS3_S9_S9_S9_S9_S9_S9_S9_S9_, symObjAddr: 0x12B48, symBinAddr: 0x100015E68, symSize: 0x98 }
  - { offset: 0x413CB, size: 0x8, addend: 0x0, symName: __ZN5boost6tuples4consIRbNS0_9null_typeEEC2IbEERT_RKS3_S9_S9_S9_S9_S9_S9_S9_S9_, symObjAddr: 0x12BE0, symBinAddr: 0x100015F00, symSize: 0x50 }
  - { offset: 0x4149A, size: 0x8, addend: 0x0, symName: __ZNSt3__14pairIN5boost6detail14edge_desc_implINS1_12directed_tagEmEEbEC1B8ne180100IS5_RbLi0EEEOT_OT0_, symObjAddr: 0x12C30, symBinAddr: 0x100015F50, symSize: 0x3C }
  - { offset: 0x414F8, size: 0x8, addend: 0x0, symName: __ZNSt3__14pairIN5boost6detail14edge_desc_implINS1_12directed_tagEmEEbEC2B8ne180100IS5_RbLi0EEEOT_OT0_, symObjAddr: 0x12C6C, symBinAddr: 0x100015F8C, symSize: 0x40 }
  - { offset: 0x41556, size: 0x8, addend: 0x0, symName: __ZNKSt3__110unique_ptrIN5boost11no_propertyENS_14default_deleteIS2_EEEdeB8ne180100Ev, symObjAddr: 0x12CAC, symBinAddr: 0x100015FCC, symSize: 0x28 }
  - { offset: 0x4157C, size: 0x8, addend: 0x0, symName: __ZNKSt3__117__compressed_pairIPN5boost11no_propertyENS_14default_deleteIS2_EEE5firstB8ne180100Ev, symObjAddr: 0x12CD4, symBinAddr: 0x100015FF4, symSize: 0x24 }
  - { offset: 0x415A2, size: 0x8, addend: 0x0, symName: __ZNKSt3__122__compressed_pair_elemIPN5boost11no_propertyELi0ELb0EE5__getB8ne180100Ev, symObjAddr: 0x12CF8, symBinAddr: 0x100016018, symSize: 0x14 }
  - { offset: 0x415C8, size: 0x8, addend: 0x0, symName: __ZN5boost6detail14edge_desc_implINS_12directed_tagEmEC2EmmPKv, symObjAddr: 0x12D0C, symBinAddr: 0x10001602C, symSize: 0x48 }
  - { offset: 0x4161C, size: 0x8, addend: 0x0, symName: __ZN5boost6detail9edge_baseINS_12directed_tagEmEC2Emm, symObjAddr: 0x12D54, symBinAddr: 0x100016074, symSize: 0x2C }
  - { offset: 0x41662, size: 0x8, addend: 0x0, symName: __ZNSt3__14pairIN5boost3anyEbEC1B8ne180100IS2_RbLi0EEEOT_OT0_, symObjAddr: 0x12DFC, symBinAddr: 0x10001611C, symSize: 0x3C }
  - { offset: 0x416C0, size: 0x8, addend: 0x0, symName: __ZNSt3__14pairIN5boost3anyEbEC2B8ne180100IS2_RbLi0EEEOT_OT0_, symObjAddr: 0x12E38, symBinAddr: 0x100016158, symSize: 0x48 }
  - { offset: 0x4171E, size: 0x8, addend: 0x0, symName: __ZN5boost3anyC1EOS0_, symObjAddr: 0x12E80, symBinAddr: 0x1000161A0, symSize: 0x34 }
  - { offset: 0x41756, size: 0x8, addend: 0x0, symName: __ZN5boost3anyC2EOS0_, symObjAddr: 0x12EB4, symBinAddr: 0x1000161D4, symSize: 0x2C }
  - { offset: 0x4178E, size: 0x8, addend: 0x0, symName: __ZN5boost3anyC2IRNS_6detail14edge_desc_implINS_12directed_tagEmEEEEOT_PNSt3__19enable_ifIXntsr3std7is_sameIRS0_S7_EE5valueEvE4typeEPNSA_IXntsr8is_constIS7_EE5valueEvE4typeE, symObjAddr: 0x12EE0, symBinAddr: 0x100016200, symSize: 0x78 }
  - { offset: 0x417E3, size: 0x8, addend: 0x0, symName: __ZN5boost3any6holderINS_6detail14edge_desc_implINS_12directed_tagEmEEEC1ERKS5_, symObjAddr: 0x12F58, symBinAddr: 0x100016278, symSize: 0x34 }
  - { offset: 0x4181B, size: 0x8, addend: 0x0, symName: __ZN5boost3any6holderINS_6detail14edge_desc_implINS_12directed_tagEmEEEC2ERKS5_, symObjAddr: 0x12F8C, symBinAddr: 0x1000162AC, symSize: 0x54 }
  - { offset: 0x41853, size: 0x8, addend: 0x0, symName: __ZN5boost3any6holderINS_6detail14edge_desc_implINS_12directed_tagEmEEED1Ev, symObjAddr: 0x12FE0, symBinAddr: 0x100016300, symSize: 0x2C }
  - { offset: 0x4187F, size: 0x8, addend: 0x0, symName: __ZN5boost3any6holderINS_6detail14edge_desc_implINS_12directed_tagEmEEED0Ev, symObjAddr: 0x1300C, symBinAddr: 0x10001632C, symSize: 0x30 }
  - { offset: 0x418AB, size: 0x8, addend: 0x0, symName: __ZNK5boost3any6holderINS_6detail14edge_desc_implINS_12directed_tagEmEEE4typeEv, symObjAddr: 0x1303C, symBinAddr: 0x10001635C, symSize: 0x30 }
  - { offset: 0x418D1, size: 0x8, addend: 0x0, symName: __ZNK5boost3any6holderINS_6detail14edge_desc_implINS_12directed_tagEmEEE5cloneEv, symObjAddr: 0x1306C, symBinAddr: 0x10001638C, symSize: 0x68 }
  - { offset: 0x418F7, size: 0x8, addend: 0x0, symName: __ZN5boost3any6holderINS_6detail14edge_desc_implINS_12directed_tagEmEEED2Ev, symObjAddr: 0x130D4, symBinAddr: 0x1000163F4, symSize: 0x2C }
  - { offset: 0x41923, size: 0x8, addend: 0x0, symName: __ZN5boost9typeindex14stl_type_index7type_idINS_6detail14edge_desc_implINS_12directed_tagEmEEEES1_v, symObjAddr: 0x13124, symBinAddr: 0x100016444, symSize: 0x2C }
  - { offset: 0x41941, size: 0x8, addend: 0x0, symName: __ZN5boost3anyD2Ev, symObjAddr: 0x13150, symBinAddr: 0x100016470, symSize: 0x58 }
  - { offset: 0x4196B, size: 0x8, addend: 0x0, symName: __ZN5boost17mutate_graph_implINS_14adjacency_listINS_4vecSES2_NS_9directedSENS_11no_propertyES4_S4_NS_5listSEEEE12put_propertyIPS6_NS_3mpl6vectorIbilfdNSt3__112basic_stringIcNSC_11char_traitsIcEENSC_9allocatorIcEEEEN4mpl_2naESK_SK_SK_SK_SK_SK_SK_SK_SK_SK_SK_SK_SK_EEEC1ERKSI_RNS_18dynamic_propertiesERKS9_SO_SO_PPKcRb, symObjAddr: 0x131F8, symBinAddr: 0x100016518, symSize: 0x64 }
  - { offset: 0x419F7, size: 0x8, addend: 0x0, symName: __ZN5boost11parse_errorC1ERKNSt3__112basic_stringIcNS1_11char_traitsIcEENS1_9allocatorIcEEEE, symObjAddr: 0x13350, symBinAddr: 0x100016670, symSize: 0x34 }
  - { offset: 0x41A2F, size: 0x8, addend: 0x0, symName: __ZN5boost11parse_errorD1Ev, symObjAddr: 0x13384, symBinAddr: 0x1000166A4, symSize: 0x2C }
  - { offset: 0x41A8D, size: 0x8, addend: 0x0, symName: __ZN5boost17value_initializedIbEC1Ev, symObjAddr: 0x13498, symBinAddr: 0x1000167B8, symSize: 0x2C }
  - { offset: 0x41AB7, size: 0x8, addend: 0x0, symName: __ZN5boost17mutate_graph_implINS_14adjacency_listINS_4vecSES2_NS_9directedSENS_11no_propertyES4_S4_NS_5listSEEEE12put_propertyIPS6_NS_3mpl6vectorIbilfdNSt3__112basic_stringIcNSC_11char_traitsIcEENSC_9allocatorIcEEEEN4mpl_2naESK_SK_SK_SK_SK_SK_SK_SK_SK_SK_SK_SK_SK_EEEclIbEEvT_, symObjAddr: 0x134DC, symBinAddr: 0x1000167FC, symSize: 0xA8 }
  - { offset: 0x41AF0, size: 0x8, addend: 0x0, symName: __ZN5boost17value_initializedIbEC2Ev, symObjAddr: 0x13634, symBinAddr: 0x100016954, symSize: 0x2C }
  - { offset: 0x41B1A, size: 0x8, addend: 0x0, symName: __ZN5boost11initializedIbEC1Ev, symObjAddr: 0x13660, symBinAddr: 0x100016980, symSize: 0x2C }
  - { offset: 0x41B44, size: 0x8, addend: 0x0, symName: __ZN5boost11initializedIbEC2Ev, symObjAddr: 0x1368C, symBinAddr: 0x1000169AC, symSize: 0x18 }
  - { offset: 0x41B6E, size: 0x8, addend: 0x0, symName: __ZN5boost18dynamic_properties11lower_boundERKNSt3__112basic_stringIcNS1_11char_traitsIcEENS1_9allocatorIcEEEE, symObjAddr: 0x13A80, symBinAddr: 0x100016DA0, symSize: 0x34 }
  - { offset: 0x41BA2, size: 0x8, addend: 0x0, symName: __ZN5boost18dynamic_properties3endEv, symObjAddr: 0x13AE4, symBinAddr: 0x100016E04, symSize: 0x2C }
  - { offset: 0x41BC8, size: 0x8, addend: 0x0, symName: __ZNKSt3__114__map_iteratorINS_15__tree_iteratorINS_12__value_typeINS_12basic_stringIcNS_11char_traitsIcEENS_9allocatorIcEEEEN5boost10shared_ptrINS9_20dynamic_property_mapEEEEEPNS_11__tree_nodeISD_PvEElEEEptB8ne180100Ev, symObjAddr: 0x13C58, symBinAddr: 0x100016F78, symSize: 0x2C }
  - { offset: 0x41BEE, size: 0x8, addend: 0x0, symName: __ZNK5boost10shared_ptrINS_20dynamic_property_mapEEptEv, symObjAddr: 0x13C84, symBinAddr: 0x100016FA4, symSize: 0x70 }
  - { offset: 0x41C14, size: 0x8, addend: 0x0, symName: __ZN5boost3anyC1IPNS_14adjacency_listINS_4vecSES3_NS_9directedSENS_11no_propertyES5_S5_NS_5listSEEEEERKT_, symObjAddr: 0x13CF4, symBinAddr: 0x100017014, symSize: 0x34 }
  - { offset: 0x41C55, size: 0x8, addend: 0x0, symName: __ZN5boost3anyC1IbEERKT_, symObjAddr: 0x13D28, symBinAddr: 0x100017048, symSize: 0x34 }
  - { offset: 0x41C96, size: 0x8, addend: 0x0, symName: __ZNSt3__114__map_iteratorINS_15__tree_iteratorINS_12__value_typeINS_12basic_stringIcNS_11char_traitsIcEENS_9allocatorIcEEEEN5boost10shared_ptrINS9_20dynamic_property_mapEEEEEPNS_11__tree_nodeISD_PvEElEEEppB8ne180100Ev, symObjAddr: 0x13D5C, symBinAddr: 0x10001707C, symSize: 0x2C }
  - { offset: 0x41CBC, size: 0x8, addend: 0x0, symName: __ZN5boost18dynamic_properties8generateIPNS_14adjacency_listINS_4vecSES3_NS_9directedSENS_11no_propertyES5_S5_NS_5listSEEEbEENS_10shared_ptrINS_20dynamic_property_mapEEERKNSt3__112basic_stringIcNSC_11char_traitsIcEENSC_9allocatorIcEEEERKT_RKT0_, symObjAddr: 0x13D88, symBinAddr: 0x1000170A8, symSize: 0x140 }
  - { offset: 0x41D21, size: 0x8, addend: 0x0, symName: __ZNK5boost10shared_ptrINS_20dynamic_property_mapEE3getEv, symObjAddr: 0x13EC8, symBinAddr: 0x1000171E8, symSize: 0x18 }
  - { offset: 0x41D47, size: 0x8, addend: 0x0, symName: __ZN5boost18dynamic_properties6insertERKNSt3__112basic_stringIcNS1_11char_traitsIcEENS1_9allocatorIcEEEENS_10shared_ptrINS_20dynamic_property_mapEEE, symObjAddr: 0x13EE0, symBinAddr: 0x100017200, symSize: 0x84 }
  - { offset: 0x41D8C, size: 0x8, addend: 0x0, symName: __ZNSt3__18multimapINS_12basic_stringIcNS_11char_traitsIcEENS_9allocatorIcEEEEN5boost10shared_ptrINS7_20dynamic_property_mapEEENS_4lessIS6_EENS4_INS_4pairIKS6_SA_EEEEE11lower_boundB8ne180100ERSE_, symObjAddr: 0x13F64, symBinAddr: 0x100017284, symSize: 0x40 }
  - { offset: 0x41DC1, size: 0x8, addend: 0x0, symName: __ZNSt3__16__treeINS_12__value_typeINS_12basic_stringIcNS_11char_traitsIcEENS_9allocatorIcEEEEN5boost10shared_ptrINS8_20dynamic_property_mapEEEEENS_19__map_value_compareIS7_SC_NS_4lessIS7_EELb1EEENS5_ISC_EEE11lower_boundB8ne180100IS7_EENS_15__tree_iteratorISC_PNS_11__tree_nodeISC_PvEElEERKT_, symObjAddr: 0x13FA4, symBinAddr: 0x1000172C4, symSize: 0x60 }
  - { offset: 0x41DFF, size: 0x8, addend: 0x0, symName: __ZNSt3__16__treeINS_12__value_typeINS_12basic_stringIcNS_11char_traitsIcEENS_9allocatorIcEEEEN5boost10shared_ptrINS8_20dynamic_property_mapEEEEENS_19__map_value_compareIS7_SC_NS_4lessIS7_EELb1EEENS5_ISC_EEE13__lower_boundIS7_EENS_15__tree_iteratorISC_PNS_11__tree_nodeISC_PvEElEERKT_SO_PNS_15__tree_end_nodeIPNS_16__tree_node_baseISM_EEEE, symObjAddr: 0x14004, symBinAddr: 0x100017324, symSize: 0xA4 }
  - { offset: 0x41E5D, size: 0x8, addend: 0x0, symName: __ZNKSt3__119__map_value_compareINS_12basic_stringIcNS_11char_traitsIcEENS_9allocatorIcEEEENS_12__value_typeIS6_N5boost10shared_ptrINS8_20dynamic_property_mapEEEEENS_4lessIS6_EELb1EEclB8ne180100ERKSC_RKS6_, symObjAddr: 0x140A8, symBinAddr: 0x1000173C8, symSize: 0x48 }
  - { offset: 0x41EA1, size: 0x8, addend: 0x0, symName: __ZNSt3__115__tree_iteratorINS_12__value_typeINS_12basic_stringIcNS_11char_traitsIcEENS_9allocatorIcEEEEN5boost10shared_ptrINS8_20dynamic_property_mapEEEEEPNS_11__tree_nodeISC_PvEElEC1B8ne180100EPNS_15__tree_end_nodeIPNS_16__tree_node_baseISE_EEEE, symObjAddr: 0x140F0, symBinAddr: 0x100017410, symSize: 0x34 }
  - { offset: 0x41EDA, size: 0x8, addend: 0x0, symName: __ZNSt3__115__tree_iteratorINS_12__value_typeINS_12basic_stringIcNS_11char_traitsIcEENS_9allocatorIcEEEEN5boost10shared_ptrINS8_20dynamic_property_mapEEEEEPNS_11__tree_nodeISC_PvEElEC2B8ne180100EPNS_15__tree_end_nodeIPNS_16__tree_node_baseISE_EEEE, symObjAddr: 0x14124, symBinAddr: 0x100017444, symSize: 0x20 }
  - { offset: 0x41F13, size: 0x8, addend: 0x0, symName: __ZNSt3__18multimapINS_12basic_stringIcNS_11char_traitsIcEENS_9allocatorIcEEEEN5boost10shared_ptrINS7_20dynamic_property_mapEEENS_4lessIS6_EENS4_INS_4pairIKS6_SA_EEEEE3endB8ne180100Ev, symObjAddr: 0x141A8, symBinAddr: 0x1000174C8, symSize: 0x38 }
  - { offset: 0x41F39, size: 0x8, addend: 0x0, symName: __ZNSt3__16__treeINS_12__value_typeINS_12basic_stringIcNS_11char_traitsIcEENS_9allocatorIcEEEEN5boost10shared_ptrINS8_20dynamic_property_mapEEEEENS_19__map_value_compareIS7_SC_NS_4lessIS7_EELb1EEENS5_ISC_EEE3endB8ne180100Ev, symObjAddr: 0x141E0, symBinAddr: 0x100017500, symSize: 0x34 }
  - { offset: 0x41F5F, size: 0x8, addend: 0x0, symName: __ZNSt3__114pointer_traitsIPNS_4pairIKNS_12basic_stringIcNS_11char_traitsIcEENS_9allocatorIcEEEEN5boost10shared_ptrINS9_20dynamic_property_mapEEEEEE10pointer_toB8ne180100ERSD_, symObjAddr: 0x14214, symBinAddr: 0x100017534, symSize: 0x14 }
  - { offset: 0x41F82, size: 0x8, addend: 0x0, symName: __ZNKSt3__115__tree_iteratorINS_12__value_typeINS_12basic_stringIcNS_11char_traitsIcEENS_9allocatorIcEEEEN5boost10shared_ptrINS8_20dynamic_property_mapEEEEEPNS_11__tree_nodeISC_PvEElEptB8ne180100Ev, symObjAddr: 0x14228, symBinAddr: 0x100017548, symSize: 0x2C }
  - { offset: 0x41FA8, size: 0x8, addend: 0x0, symName: __ZNSt3__114pointer_traitsIPNS_12__value_typeINS_12basic_stringIcNS_11char_traitsIcEENS_9allocatorIcEEEEN5boost10shared_ptrINS8_20dynamic_property_mapEEEEEE10pointer_toB8ne180100ERSC_, symObjAddr: 0x14254, symBinAddr: 0x100017574, symSize: 0x14 }
  - { offset: 0x41FCB, size: 0x8, addend: 0x0, symName: __ZNKSt3__115__tree_iteratorINS_12__value_typeINS_12basic_stringIcNS_11char_traitsIcEENS_9allocatorIcEEEEN5boost10shared_ptrINS8_20dynamic_property_mapEEEEEPNS_11__tree_nodeISC_PvEElE8__get_npB8ne180100Ev, symObjAddr: 0x14268, symBinAddr: 0x100017588, symSize: 0x18 }
  - { offset: 0x41FF1, size: 0x8, addend: 0x0, symName: __ZN5boost3anyC2IPNS_14adjacency_listINS_4vecSES3_NS_9directedSENS_11no_propertyES5_S5_NS_5listSEEEEERKT_, symObjAddr: 0x14280, symBinAddr: 0x1000175A0, symSize: 0x70 }
  - { offset: 0x42055, size: 0x8, addend: 0x0, symName: __ZN5boost3any6holderIPNS_14adjacency_listINS_4vecSES3_NS_9directedSENS_11no_propertyES5_S5_NS_5listSEEEEC1ERKS8_, symObjAddr: 0x142F0, symBinAddr: 0x100017610, symSize: 0x34 }
  - { offset: 0x4208D, size: 0x8, addend: 0x0, symName: __ZN5boost3any6holderIPNS_14adjacency_listINS_4vecSES3_NS_9directedSENS_11no_propertyES5_S5_NS_5listSEEEEC2ERKS8_, symObjAddr: 0x14324, symBinAddr: 0x100017644, symSize: 0x4C }
  - { offset: 0x420C5, size: 0x8, addend: 0x0, symName: __ZN5boost3any6holderIPNS_14adjacency_listINS_4vecSES3_NS_9directedSENS_11no_propertyES5_S5_NS_5listSEEEED1Ev, symObjAddr: 0x14370, symBinAddr: 0x100017690, symSize: 0x2C }
  - { offset: 0x420F1, size: 0x8, addend: 0x0, symName: __ZN5boost3any6holderIPNS_14adjacency_listINS_4vecSES3_NS_9directedSENS_11no_propertyES5_S5_NS_5listSEEEED0Ev, symObjAddr: 0x1439C, symBinAddr: 0x1000176BC, symSize: 0x30 }
  - { offset: 0x4211D, size: 0x8, addend: 0x0, symName: __ZNK5boost3any6holderIPNS_14adjacency_listINS_4vecSES3_NS_9directedSENS_11no_propertyES5_S5_NS_5listSEEEE4typeEv, symObjAddr: 0x143CC, symBinAddr: 0x1000176EC, symSize: 0x30 }
  - { offset: 0x42143, size: 0x8, addend: 0x0, symName: __ZNK5boost3any6holderIPNS_14adjacency_listINS_4vecSES3_NS_9directedSENS_11no_propertyES5_S5_NS_5listSEEEE5cloneEv, symObjAddr: 0x143FC, symBinAddr: 0x10001771C, symSize: 0x68 }
  - { offset: 0x42169, size: 0x8, addend: 0x0, symName: __ZN5boost3any6holderIPNS_14adjacency_listINS_4vecSES3_NS_9directedSENS_11no_propertyES5_S5_NS_5listSEEEED2Ev, symObjAddr: 0x14464, symBinAddr: 0x100017784, symSize: 0x2C }
  - { offset: 0x42195, size: 0x8, addend: 0x0, symName: __ZN5boost9typeindex14stl_type_index7type_idIPNS_14adjacency_listINS_4vecSES4_NS_9directedSENS_11no_propertyES6_S6_NS_5listSEEEEES1_v, symObjAddr: 0x144B4, symBinAddr: 0x1000177D4, symSize: 0x2C }
  - { offset: 0x421B3, size: 0x8, addend: 0x0, symName: __ZN5boost3anyC2IbEERKT_, symObjAddr: 0x144E0, symBinAddr: 0x100017800, symSize: 0x70 }
  - { offset: 0x42211, size: 0x8, addend: 0x0, symName: __ZN5boost3any6holderIbEC1ERKb, symObjAddr: 0x14550, symBinAddr: 0x100017870, symSize: 0x34 }
  - { offset: 0x42249, size: 0x8, addend: 0x0, symName: __ZN5boost3any6holderIbEC2ERKb, symObjAddr: 0x14584, symBinAddr: 0x1000178A4, symSize: 0x50 }
  - { offset: 0x42281, size: 0x8, addend: 0x0, symName: __ZN5boost3any6holderIbED1Ev, symObjAddr: 0x145D4, symBinAddr: 0x1000178F4, symSize: 0x2C }
  - { offset: 0x422AD, size: 0x8, addend: 0x0, symName: __ZN5boost3any6holderIbED0Ev, symObjAddr: 0x14600, symBinAddr: 0x100017920, symSize: 0x30 }
  - { offset: 0x422D9, size: 0x8, addend: 0x0, symName: __ZNK5boost3any6holderIbE4typeEv, symObjAddr: 0x14630, symBinAddr: 0x100017950, symSize: 0x30 }
  - { offset: 0x422FF, size: 0x8, addend: 0x0, symName: __ZNK5boost3any6holderIbE5cloneEv, symObjAddr: 0x14660, symBinAddr: 0x100017980, symSize: 0x68 }
  - { offset: 0x42325, size: 0x8, addend: 0x0, symName: __ZN5boost3any6holderIbED2Ev, symObjAddr: 0x146C8, symBinAddr: 0x1000179E8, symSize: 0x2C }
  - { offset: 0x42351, size: 0x8, addend: 0x0, symName: __ZN5boost9typeindex14stl_type_index7type_idIbEES1_v, symObjAddr: 0x14718, symBinAddr: 0x100017A38, symSize: 0x2C }
  - { offset: 0x4236F, size: 0x8, addend: 0x0, symName: __ZNSt3__115__tree_iteratorINS_12__value_typeINS_12basic_stringIcNS_11char_traitsIcEENS_9allocatorIcEEEEN5boost10shared_ptrINS8_20dynamic_property_mapEEEEEPNS_11__tree_nodeISC_PvEElEppB8ne180100Ev, symObjAddr: 0x14744, symBinAddr: 0x100017A64, symSize: 0x38 }
  - { offset: 0x42395, size: 0x8, addend: 0x0, symName: __ZNK5boost10function_nINS_10shared_ptrINS_20dynamic_property_mapEEEJRKNSt3__112basic_stringIcNS4_11char_traitsIcEENS4_9allocatorIcEEEERKNS_3anyESF_EEcvbEv, symObjAddr: 0x1477C, symBinAddr: 0x100017A9C, symSize: 0x2C }
  - { offset: 0x423BB, size: 0x8, addend: 0x0, symName: __ZN5boost18property_not_foundC1ERKNSt3__112basic_stringIcNS1_11char_traitsIcEENS1_9allocatorIcEEEE, symObjAddr: 0x1481C, symBinAddr: 0x100017B3C, symSize: 0x34 }
  - { offset: 0x423F3, size: 0x8, addend: 0x0, symName: __ZN5boost18property_not_foundD1Ev, symObjAddr: 0x14850, symBinAddr: 0x100017B70, symSize: 0x2C }
  - { offset: 0x4241D, size: 0x8, addend: 0x0, symName: __ZNK5boost10function_nINS_10shared_ptrINS_20dynamic_property_mapEEEJRKNSt3__112basic_stringIcNS4_11char_traitsIcEENS4_9allocatorIcEEEERKNS_3anyESF_EEclESC_SF_SF_, symObjAddr: 0x1487C, symBinAddr: 0x100017B9C, symSize: 0xA8 }
  - { offset: 0x42470, size: 0x8, addend: 0x0, symName: __ZNK5boost13function_base5emptyEv, symObjAddr: 0x14924, symBinAddr: 0x100017C44, symSize: 0x24 }
  - { offset: 0x424AD, size: 0x8, addend: 0x0, symName: __ZN5boost10wrapexceptINS_18property_not_foundEEC1ERKS1_RKNS_15source_locationE, symObjAddr: 0x14948, symBinAddr: 0x100017C68, symSize: 0x3C }
  - { offset: 0x424F3, size: 0x8, addend: 0x0, symName: __ZN5boost10wrapexceptINS_18property_not_foundEED1Ev, symObjAddr: 0x14984, symBinAddr: 0x100017CA4, symSize: 0x2C }
  - { offset: 0x4251F, size: 0x8, addend: 0x0, symName: __ZN5boost10wrapexceptINS_18property_not_foundEEC2ERKS1_RKNS_15source_locationE, symObjAddr: 0x149B0, symBinAddr: 0x100017CD0, symSize: 0x188 }
  - { offset: 0x42565, size: 0x8, addend: 0x0, symName: __ZN5boost18property_not_foundC2ERKS0_, symObjAddr: 0x14B38, symBinAddr: 0x100017E58, symSize: 0xB4 }
  - { offset: 0x4259A, size: 0x8, addend: 0x0, symName: __ZN5boost10wrapexceptINS_18property_not_foundEE9copy_fromEPKv, symObjAddr: 0x14BEC, symBinAddr: 0x100017F0C, symSize: 0x14 }
  - { offset: 0x425CA, size: 0x8, addend: 0x0, symName: __ZN5boost18property_not_foundD2Ev, symObjAddr: 0x14CA0, symBinAddr: 0x100017FC0, symSize: 0x54 }
  - { offset: 0x425F4, size: 0x8, addend: 0x0, symName: __ZNK5boost10wrapexceptINS_18property_not_foundEE5cloneEv, symObjAddr: 0x14CF4, symBinAddr: 0x100018014, symSize: 0xE4 }
  - { offset: 0x42636, size: 0x8, addend: 0x0, symName: __ZNK5boost10wrapexceptINS_18property_not_foundEE7rethrowEv, symObjAddr: 0x14DD8, symBinAddr: 0x1000180F8, symSize: 0x6C }
  - { offset: 0x4265C, size: 0x8, addend: 0x0, symName: __ZN5boost10wrapexceptINS_18property_not_foundEED0Ev, symObjAddr: 0x14E44, symBinAddr: 0x100018164, symSize: 0x30 }
  - { offset: 0x42688, size: 0x8, addend: 0x0, symName: __ZThn8_N5boost10wrapexceptINS_18property_not_foundEED1Ev, symObjAddr: 0x14E74, symBinAddr: 0x100018194, symSize: 0x1C }
  - { offset: 0x4269E, size: 0x8, addend: 0x0, symName: __ZThn8_N5boost10wrapexceptINS_18property_not_foundEED0Ev, symObjAddr: 0x14E90, symBinAddr: 0x1000181B0, symSize: 0x18 }
  - { offset: 0x426B4, size: 0x8, addend: 0x0, symName: __ZNK5boost18property_not_found4whatEv, symObjAddr: 0x14EA8, symBinAddr: 0x1000181C8, symSize: 0xB8 }
  - { offset: 0x426DA, size: 0x8, addend: 0x0, symName: __ZThn64_N5boost10wrapexceptINS_18property_not_foundEED1Ev, symObjAddr: 0x14F60, symBinAddr: 0x100018280, symSize: 0x1C }
  - { offset: 0x426F0, size: 0x8, addend: 0x0, symName: __ZThn64_N5boost10wrapexceptINS_18property_not_foundEED0Ev, symObjAddr: 0x14F7C, symBinAddr: 0x10001829C, symSize: 0x18 }
  - { offset: 0x42706, size: 0x8, addend: 0x0, symName: __ZN5boost18property_not_foundD0Ev, symObjAddr: 0x14F94, symBinAddr: 0x1000182B4, symSize: 0x30 }
  - { offset: 0x42736, size: 0x8, addend: 0x0, symName: __ZN5boost10wrapexceptINS_18property_not_foundEEC1ERKS2_, symObjAddr: 0x14FC4, symBinAddr: 0x1000182E4, symSize: 0x34 }
  - { offset: 0x42777, size: 0x8, addend: 0x0, symName: __ZN5boost10wrapexceptINS_18property_not_foundEE7deleterD1Ev, symObjAddr: 0x14FF8, symBinAddr: 0x100018318, symSize: 0x2C }
  - { offset: 0x427A1, size: 0x8, addend: 0x0, symName: __ZN5boost10wrapexceptINS_18property_not_foundEEC2ERKS2_, symObjAddr: 0x15024, symBinAddr: 0x100018344, symSize: 0xC4 }
  - { offset: 0x427D6, size: 0x8, addend: 0x0, symName: __ZN5boost10wrapexceptINS_18property_not_foundEE7deleterD2Ev, symObjAddr: 0x150E8, symBinAddr: 0x100018408, symSize: 0x58 }
  - { offset: 0x42800, size: 0x8, addend: 0x0, symName: __ZNSt3__112basic_stringIcNS_11char_traitsIcEENS_9allocatorIcEEEaSB8ne180100EOS5_, symObjAddr: 0x15140, symBinAddr: 0x100018460, symSize: 0x34 }
  - { offset: 0x42835, size: 0x8, addend: 0x0, symName: __ZNSt3__112basic_stringIcNS_11char_traitsIcEENS_9allocatorIcEEE13__move_assignB8ne180100ERS5_NS_17integral_constantIbLb1EEE, symObjAddr: 0x15174, symBinAddr: 0x100018494, symSize: 0x17C }
  - { offset: 0x42896, size: 0x8, addend: 0x0, symName: __ZNSt3__116allocator_traitsINS_9allocatorIcEEE10deallocateB8ne180100ERS2_Pcm, symObjAddr: 0x152F0, symBinAddr: 0x100018610, symSize: 0x34 }
  - { offset: 0x428D8, size: 0x8, addend: 0x0, symName: __ZNSt3__112basic_stringIcNS_11char_traitsIcEENS_9allocatorIcEEE7__allocB8ne180100Ev, symObjAddr: 0x15324, symBinAddr: 0x100018644, symSize: 0x24 }
  - { offset: 0x428FE, size: 0x8, addend: 0x0, symName: __ZNKSt3__112basic_stringIcNS_11char_traitsIcEENS_9allocatorIcEEE14__get_long_capB8ne180100Ev, symObjAddr: 0x15348, symBinAddr: 0x100018668, symSize: 0x30 }
  - { offset: 0x42924, size: 0x8, addend: 0x0, symName: __ZNSt3__112basic_stringIcNS_11char_traitsIcEENS_9allocatorIcEEE19__move_assign_allocB8ne180100ERS5_, symObjAddr: 0x15378, symBinAddr: 0x100018698, symSize: 0x2C }
  - { offset: 0x42959, size: 0x8, addend: 0x0, symName: __ZNSt3__112basic_stringIcNS_11char_traitsIcEENS_9allocatorIcEEE16__set_short_sizeB8ne180100Em, symObjAddr: 0x153A4, symBinAddr: 0x1000186C4, symSize: 0x78 }
  - { offset: 0x4298E, size: 0x8, addend: 0x0, symName: __ZNSt3__111char_traitsIcE6assignB8ne180100ERcRKc, symObjAddr: 0x1541C, symBinAddr: 0x10001873C, symSize: 0x24 }
  - { offset: 0x429BF, size: 0x8, addend: 0x0, symName: __ZNKSt3__112basic_stringIcNS_11char_traitsIcEENS_9allocatorIcEEE17__annotate_shrinkB8ne180100Em, symObjAddr: 0x15440, symBinAddr: 0x100018760, symSize: 0x14 }
  - { offset: 0x429F4, size: 0x8, addend: 0x0, symName: __ZNSt3__19allocatorIcE10deallocateB8ne180100EPcm, symObjAddr: 0x15454, symBinAddr: 0x100018774, symSize: 0x40 }
  - { offset: 0x42A36, size: 0x8, addend: 0x0, symName: __ZNSt3__117__compressed_pairINS_12basic_stringIcNS_11char_traitsIcEENS_9allocatorIcEEE5__repES5_E6secondB8ne180100Ev, symObjAddr: 0x15494, symBinAddr: 0x1000187B4, symSize: 0x24 }
  - { offset: 0x42A5C, size: 0x8, addend: 0x0, symName: __ZNSt3__122__compressed_pair_elemINS_9allocatorIcEELi1ELb1EE5__getB8ne180100Ev, symObjAddr: 0x154B8, symBinAddr: 0x1000187D8, symSize: 0x14 }
  - { offset: 0x42A82, size: 0x8, addend: 0x0, symName: __ZNSt3__112basic_stringIcNS_11char_traitsIcEENS_9allocatorIcEEE19__move_assign_allocB8ne180100ERS5_NS_17integral_constantIbLb1EEE, symObjAddr: 0x154CC, symBinAddr: 0x1000187EC, symSize: 0x38 }
  - { offset: 0x42AC3, size: 0x8, addend: 0x0, symName: __ZN5boost10wrapexceptINS_18property_not_foundEED2Ev, symObjAddr: 0x15504, symBinAddr: 0x100018824, symSize: 0x44 }
  - { offset: 0x42AEF, size: 0x8, addend: 0x0, symName: __ZN5boost18property_not_foundC2ERKNSt3__112basic_stringIcNS1_11char_traitsIcEENS1_9allocatorIcEEEE, symObjAddr: 0x15548, symBinAddr: 0x100018868, symSize: 0x84 }
  - { offset: 0x42B27, size: 0x8, addend: 0x0, symName: __ZN5boost17bad_function_callC1Ev, symObjAddr: 0x15638, symBinAddr: 0x100018958, symSize: 0x2C }
  - { offset: 0x42B51, size: 0x8, addend: 0x0, symName: __ZN5boost17bad_function_callD1Ev, symObjAddr: 0x15664, symBinAddr: 0x100018984, symSize: 0x2C }
  - { offset: 0x42B7E, size: 0x8, addend: 0x0, symName: __ZN5boost10wrapexceptINS_17bad_function_callEEC1ERKS1_, symObjAddr: 0x15690, symBinAddr: 0x1000189B0, symSize: 0x34 }
  - { offset: 0x42BB6, size: 0x8, addend: 0x0, symName: __ZN5boost10wrapexceptINS_17bad_function_callEED1Ev, symObjAddr: 0x156C4, symBinAddr: 0x1000189E4, symSize: 0x2C }
  - { offset: 0x42BE2, size: 0x8, addend: 0x0, symName: __ZN5boost10wrapexceptINS_17bad_function_callEEC2ERKS1_, symObjAddr: 0x156F0, symBinAddr: 0x100018A10, symSize: 0xCC }
  - { offset: 0x42C1A, size: 0x8, addend: 0x0, symName: __ZN5boost17bad_function_callC2ERKS0_, symObjAddr: 0x157BC, symBinAddr: 0x100018ADC, symSize: 0x44 }
  - { offset: 0x42C50, size: 0x8, addend: 0x0, symName: __ZN5boost10wrapexceptINS_17bad_function_callEE9copy_fromEPKv, symObjAddr: 0x15800, symBinAddr: 0x100018B20, symSize: 0x14 }
  - { offset: 0x42C80, size: 0x8, addend: 0x0, symName: __ZN5boost17bad_function_callD2Ev, symObjAddr: 0x15814, symBinAddr: 0x100018B34, symSize: 0x2C }
  - { offset: 0x42CAD, size: 0x8, addend: 0x0, symName: __ZNK5boost10wrapexceptINS_17bad_function_callEE5cloneEv, symObjAddr: 0x15840, symBinAddr: 0x100018B60, symSize: 0xE4 }
  - { offset: 0x42CEF, size: 0x8, addend: 0x0, symName: __ZNK5boost10wrapexceptINS_17bad_function_callEE7rethrowEv, symObjAddr: 0x15924, symBinAddr: 0x100018C44, symSize: 0x6C }
  - { offset: 0x42D15, size: 0x8, addend: 0x0, symName: __ZN5boost10wrapexceptINS_17bad_function_callEED0Ev, symObjAddr: 0x15990, symBinAddr: 0x100018CB0, symSize: 0x30 }
  - { offset: 0x42D41, size: 0x8, addend: 0x0, symName: __ZThn8_N5boost10wrapexceptINS_17bad_function_callEED1Ev, symObjAddr: 0x159C0, symBinAddr: 0x100018CE0, symSize: 0x1C }
  - { offset: 0x42D57, size: 0x8, addend: 0x0, symName: __ZThn8_N5boost10wrapexceptINS_17bad_function_callEED0Ev, symObjAddr: 0x159DC, symBinAddr: 0x100018CFC, symSize: 0x18 }
  - { offset: 0x42D6D, size: 0x8, addend: 0x0, symName: __ZThn24_N5boost10wrapexceptINS_17bad_function_callEED1Ev, symObjAddr: 0x159F4, symBinAddr: 0x100018D14, symSize: 0x1C }
  - { offset: 0x42D83, size: 0x8, addend: 0x0, symName: __ZThn24_N5boost10wrapexceptINS_17bad_function_callEED0Ev, symObjAddr: 0x15A10, symBinAddr: 0x100018D30, symSize: 0x18 }
  - { offset: 0x42D99, size: 0x8, addend: 0x0, symName: __ZN5boost17bad_function_callD0Ev, symObjAddr: 0x15A28, symBinAddr: 0x100018D48, symSize: 0x30 }
  - { offset: 0x42DCC, size: 0x8, addend: 0x0, symName: __ZN5boost10wrapexceptINS_17bad_function_callEEC1ERKS2_, symObjAddr: 0x15A58, symBinAddr: 0x100018D78, symSize: 0x34 }
  - { offset: 0x42E0D, size: 0x8, addend: 0x0, symName: __ZN5boost10wrapexceptINS_17bad_function_callEE7deleterD1Ev, symObjAddr: 0x15A8C, symBinAddr: 0x100018DAC, symSize: 0x2C }
  - { offset: 0x42E37, size: 0x8, addend: 0x0, symName: __ZN5boost10wrapexceptINS_17bad_function_callEEC2ERKS2_, symObjAddr: 0x15AB8, symBinAddr: 0x100018DD8, symSize: 0xAC }
  - { offset: 0x42E6C, size: 0x8, addend: 0x0, symName: __ZN5boost10wrapexceptINS_17bad_function_callEE7deleterD2Ev, symObjAddr: 0x15B64, symBinAddr: 0x100018E84, symSize: 0x58 }
  - { offset: 0x42E96, size: 0x8, addend: 0x0, symName: __ZN5boost10wrapexceptINS_17bad_function_callEED2Ev, symObjAddr: 0x15BBC, symBinAddr: 0x100018EDC, symSize: 0x44 }
  - { offset: 0x42EC2, size: 0x8, addend: 0x0, symName: __ZN5boost17bad_function_callC2Ev, symObjAddr: 0x15C00, symBinAddr: 0x100018F20, symSize: 0x44 }
  - { offset: 0x42EEC, size: 0x8, addend: 0x0, symName: __ZN5boost6detail22lexical_converter_implIbNSt3__112basic_stringIcNS2_11char_traitsIcEENS2_9allocatorIcEEEEE11try_convertERKS8_Rb, symObjAddr: 0x15CCC, symBinAddr: 0x100018FEC, symSize: 0xD0 }
  - { offset: 0x42F8F, size: 0x8, addend: 0x0, symName: __ZN5boost6detail5lcast20optimized_src_streamIcNSt3__111char_traitsIcEELm2EEC1Ev, symObjAddr: 0x15D9C, symBinAddr: 0x1000190BC, symSize: 0x2C }
  - { offset: 0x42FB9, size: 0x8, addend: 0x0, symName: __ZN5boost6detail5lcast20optimized_src_streamIcNSt3__111char_traitsIcEELm2EE9stream_inIS5_NS3_9allocatorIcEEEEbNS1_5exactINS3_12basic_stringIcT_T0_EEEE, symObjAddr: 0x15DC8, symBinAddr: 0x1000190E8, symSize: 0x60 }
  - { offset: 0x43000, size: 0x8, addend: 0x0, symName: __ZNK5boost6detail5lcast20optimized_src_streamIcNSt3__111char_traitsIcEELm2EE6cbeginEv, symObjAddr: 0x15E28, symBinAddr: 0x100019148, symSize: 0x18 }
  - { offset: 0x43026, size: 0x8, addend: 0x0, symName: __ZNK5boost6detail5lcast20optimized_src_streamIcNSt3__111char_traitsIcEELm2EE4cendEv, symObjAddr: 0x15E40, symBinAddr: 0x100019160, symSize: 0x18 }
  - { offset: 0x4304C, size: 0x8, addend: 0x0, symName: __ZN5boost6detail5lcast16to_target_streamIcNSt3__111char_traitsIcEEEC1EPKcS8_, symObjAddr: 0x15E58, symBinAddr: 0x100019178, symSize: 0x3C }
  - { offset: 0x43094, size: 0x8, addend: 0x0, symName: __ZN5boost6detail5lcast16to_target_streamIcNSt3__111char_traitsIcEEE10stream_outERb, symObjAddr: 0x15E94, symBinAddr: 0x1000191B4, symSize: 0x1EC }
  - { offset: 0x43105, size: 0x8, addend: 0x0, symName: __ZN5boost6detail5lcast20optimized_src_streamIcNSt3__111char_traitsIcEELm2EEC2Ev, symObjAddr: 0x16080, symBinAddr: 0x1000193A0, symSize: 0x24 }
  - { offset: 0x4312F, size: 0x8, addend: 0x0, symName: __ZNKSt3__112basic_stringIcNS_11char_traitsIcEENS_9allocatorIcEEE6lengthB8ne180100Ev, symObjAddr: 0x160A4, symBinAddr: 0x1000193C4, symSize: 0x24 }
  - { offset: 0x43155, size: 0x8, addend: 0x0, symName: __ZN5boost6detail5lcast16to_target_streamIcNSt3__111char_traitsIcEEEC2EPKcS8_, symObjAddr: 0x160C8, symBinAddr: 0x1000193E8, symSize: 0x2C }
  - { offset: 0x4319D, size: 0x8, addend: 0x0, symName: __ZNSt3__111char_traitsIcE2eqEcc, symObjAddr: 0x160F4, symBinAddr: 0x100019414, symSize: 0x28 }
  - { offset: 0x431CE, size: 0x8, addend: 0x0, symName: __ZN5boost16bad_lexical_castC1ERKSt9type_infoS3_, symObjAddr: 0x16188, symBinAddr: 0x1000194A8, symSize: 0x3C }
  - { offset: 0x43214, size: 0x8, addend: 0x0, symName: __ZN5boost16bad_lexical_castD1Ev, symObjAddr: 0x161C4, symBinAddr: 0x1000194E4, symSize: 0x2C }
  - { offset: 0x43240, size: 0x8, addend: 0x0, symName: __ZN5boost10wrapexceptINS_16bad_lexical_castEEC1ERKS1_, symObjAddr: 0x161F0, symBinAddr: 0x100019510, symSize: 0x34 }
  - { offset: 0x43278, size: 0x8, addend: 0x0, symName: __ZN5boost10wrapexceptINS_16bad_lexical_castEED1Ev, symObjAddr: 0x16224, symBinAddr: 0x100019544, symSize: 0x2C }
  - { offset: 0x432A4, size: 0x8, addend: 0x0, symName: __ZN5boost10wrapexceptINS_16bad_lexical_castEEC2ERKS1_, symObjAddr: 0x16250, symBinAddr: 0x100019570, symSize: 0xCC }
  - { offset: 0x432DC, size: 0x8, addend: 0x0, symName: __ZN5boost16bad_lexical_castC2ERKS0_, symObjAddr: 0x1631C, symBinAddr: 0x10001963C, symSize: 0x50 }
  - { offset: 0x43310, size: 0x8, addend: 0x0, symName: __ZN5boost10wrapexceptINS_16bad_lexical_castEE9copy_fromEPKv, symObjAddr: 0x1636C, symBinAddr: 0x10001968C, symSize: 0x14 }
  - { offset: 0x43340, size: 0x8, addend: 0x0, symName: __ZN5boost16bad_lexical_castD2Ev, symObjAddr: 0x16380, symBinAddr: 0x1000196A0, symSize: 0x2C }
  - { offset: 0x4336C, size: 0x8, addend: 0x0, symName: __ZNK5boost10wrapexceptINS_16bad_lexical_castEE5cloneEv, symObjAddr: 0x163AC, symBinAddr: 0x1000196CC, symSize: 0xE4 }
  - { offset: 0x433AE, size: 0x8, addend: 0x0, symName: __ZNK5boost10wrapexceptINS_16bad_lexical_castEE7rethrowEv, symObjAddr: 0x16490, symBinAddr: 0x1000197B0, symSize: 0x6C }
  - { offset: 0x433D4, size: 0x8, addend: 0x0, symName: __ZN5boost10wrapexceptINS_16bad_lexical_castEED0Ev, symObjAddr: 0x164FC, symBinAddr: 0x10001981C, symSize: 0x30 }
  - { offset: 0x43400, size: 0x8, addend: 0x0, symName: __ZThn8_N5boost10wrapexceptINS_16bad_lexical_castEED1Ev, symObjAddr: 0x1652C, symBinAddr: 0x10001984C, symSize: 0x1C }
  - { offset: 0x43416, size: 0x8, addend: 0x0, symName: __ZThn8_N5boost10wrapexceptINS_16bad_lexical_castEED0Ev, symObjAddr: 0x16548, symBinAddr: 0x100019868, symSize: 0x18 }
  - { offset: 0x4342C, size: 0x8, addend: 0x0, symName: __ZNK5boost16bad_lexical_cast4whatEv, symObjAddr: 0x16560, symBinAddr: 0x100019880, symSize: 0x18 }
  - { offset: 0x43452, size: 0x8, addend: 0x0, symName: __ZThn32_N5boost10wrapexceptINS_16bad_lexical_castEED1Ev, symObjAddr: 0x16578, symBinAddr: 0x100019898, symSize: 0x1C }
  - { offset: 0x43468, size: 0x8, addend: 0x0, symName: __ZThn32_N5boost10wrapexceptINS_16bad_lexical_castEED0Ev, symObjAddr: 0x16594, symBinAddr: 0x1000198B4, symSize: 0x18 }
  - { offset: 0x4347E, size: 0x8, addend: 0x0, symName: __ZN5boost16bad_lexical_castD0Ev, symObjAddr: 0x165AC, symBinAddr: 0x1000198CC, symSize: 0x30 }
  - { offset: 0x434B0, size: 0x8, addend: 0x0, symName: __ZN5boost10wrapexceptINS_16bad_lexical_castEEC1ERKS2_, symObjAddr: 0x165DC, symBinAddr: 0x1000198FC, symSize: 0x34 }
  - { offset: 0x434F1, size: 0x8, addend: 0x0, symName: __ZN5boost10wrapexceptINS_16bad_lexical_castEE7deleterD1Ev, symObjAddr: 0x16610, symBinAddr: 0x100019930, symSize: 0x2C }
  - { offset: 0x4351B, size: 0x8, addend: 0x0, symName: __ZN5boost10wrapexceptINS_16bad_lexical_castEEC2ERKS2_, symObjAddr: 0x1663C, symBinAddr: 0x10001995C, symSize: 0xAC }
  - { offset: 0x43550, size: 0x8, addend: 0x0, symName: __ZN5boost10wrapexceptINS_16bad_lexical_castEE7deleterD2Ev, symObjAddr: 0x166E8, symBinAddr: 0x100019A08, symSize: 0x58 }
  - { offset: 0x4357A, size: 0x8, addend: 0x0, symName: __ZN5boost10wrapexceptINS_16bad_lexical_castEED2Ev, symObjAddr: 0x16740, symBinAddr: 0x100019A60, symSize: 0x44 }
  - { offset: 0x435A6, size: 0x8, addend: 0x0, symName: __ZN5boost16bad_lexical_castC2ERKSt9type_infoS3_, symObjAddr: 0x16784, symBinAddr: 0x100019AA4, symSize: 0x54 }
  - { offset: 0x435EC, size: 0x8, addend: 0x0, symName: __ZN5boost17value_initializedIbE4dataEv, symObjAddr: 0x167D8, symBinAddr: 0x100019AF8, symSize: 0x24 }
  - { offset: 0x43612, size: 0x8, addend: 0x0, symName: __ZN5boost11initializedIbE4dataEv, symObjAddr: 0x167FC, symBinAddr: 0x100019B1C, symSize: 0x14 }
  - { offset: 0x4366C, size: 0x8, addend: 0x0, symName: __ZN5boost17value_initializedIiEC1Ev, symObjAddr: 0x16810, symBinAddr: 0x100019B30, symSize: 0x2C }
  - { offset: 0x43696, size: 0x8, addend: 0x0, symName: __ZN5boost17mutate_graph_implINS_14adjacency_listINS_4vecSES2_NS_9directedSENS_11no_propertyES4_S4_NS_5listSEEEE12put_propertyIPS6_NS_3mpl6vectorIbilfdNSt3__112basic_stringIcNSC_11char_traitsIcEENSC_9allocatorIcEEEEN4mpl_2naESK_SK_SK_SK_SK_SK_SK_SK_SK_SK_SK_SK_SK_EEEclIiEEvT_, symObjAddr: 0x1683C, symBinAddr: 0x100019B5C, symSize: 0x94 }
  - { offset: 0x436CF, size: 0x8, addend: 0x0, symName: __ZN5boost17value_initializedIiEC2Ev, symObjAddr: 0x16980, symBinAddr: 0x100019CA0, symSize: 0x2C }
  - { offset: 0x436F9, size: 0x8, addend: 0x0, symName: __ZN5boost11initializedIiEC1Ev, symObjAddr: 0x169AC, symBinAddr: 0x100019CCC, symSize: 0x2C }
  - { offset: 0x43723, size: 0x8, addend: 0x0, symName: __ZN5boost11initializedIiEC2Ev, symObjAddr: 0x169D8, symBinAddr: 0x100019CF8, symSize: 0x18 }
  - { offset: 0x4374D, size: 0x8, addend: 0x0, symName: __ZN5boost3anyC1IiEERKT_, symObjAddr: 0x16D1C, symBinAddr: 0x10001A03C, symSize: 0x34 }
  - { offset: 0x4378E, size: 0x8, addend: 0x0, symName: __ZN5boost18dynamic_properties8generateIPNS_14adjacency_listINS_4vecSES3_NS_9directedSENS_11no_propertyES5_S5_NS_5listSEEEiEENS_10shared_ptrINS_20dynamic_property_mapEEERKNSt3__112basic_stringIcNSC_11char_traitsIcEENSC_9allocatorIcEEEERKT_RKT0_, symObjAddr: 0x16D50, symBinAddr: 0x10001A070, symSize: 0x140 }
  - { offset: 0x437F3, size: 0x8, addend: 0x0, symName: __ZN5boost3anyC2IiEERKT_, symObjAddr: 0x16E90, symBinAddr: 0x10001A1B0, symSize: 0x70 }
  - { offset: 0x43851, size: 0x8, addend: 0x0, symName: __ZN5boost3any6holderIiEC1ERKi, symObjAddr: 0x16F00, symBinAddr: 0x10001A220, symSize: 0x34 }
  - { offset: 0x43889, size: 0x8, addend: 0x0, symName: __ZN5boost3any6holderIiEC2ERKi, symObjAddr: 0x16F34, symBinAddr: 0x10001A254, symSize: 0x4C }
  - { offset: 0x438C1, size: 0x8, addend: 0x0, symName: __ZN5boost3any6holderIiED1Ev, symObjAddr: 0x16F80, symBinAddr: 0x10001A2A0, symSize: 0x2C }
  - { offset: 0x438ED, size: 0x8, addend: 0x0, symName: __ZN5boost3any6holderIiED0Ev, symObjAddr: 0x16FAC, symBinAddr: 0x10001A2CC, symSize: 0x30 }
  - { offset: 0x43919, size: 0x8, addend: 0x0, symName: __ZNK5boost3any6holderIiE4typeEv, symObjAddr: 0x16FDC, symBinAddr: 0x10001A2FC, symSize: 0x30 }
  - { offset: 0x4393F, size: 0x8, addend: 0x0, symName: __ZNK5boost3any6holderIiE5cloneEv, symObjAddr: 0x1700C, symBinAddr: 0x10001A32C, symSize: 0x68 }
  - { offset: 0x43965, size: 0x8, addend: 0x0, symName: __ZN5boost3any6holderIiED2Ev, symObjAddr: 0x17074, symBinAddr: 0x10001A394, symSize: 0x2C }
  - { offset: 0x43991, size: 0x8, addend: 0x0, symName: __ZN5boost9typeindex14stl_type_index7type_idIiEES1_v, symObjAddr: 0x170C4, symBinAddr: 0x10001A3E4, symSize: 0x2C }
  - { offset: 0x439AF, size: 0x8, addend: 0x0, symName: __ZN5boost6detail22lexical_converter_implIiNSt3__112basic_stringIcNS2_11char_traitsIcEENS2_9allocatorIcEEEEE11try_convertERKS8_Ri, symObjAddr: 0x17178, symBinAddr: 0x10001A498, symSize: 0xD0 }
  - { offset: 0x43A00, size: 0x8, addend: 0x0, symName: __ZN5boost6detail5lcast16to_target_streamIcNSt3__111char_traitsIcEEE10stream_outERi, symObjAddr: 0x17248, symBinAddr: 0x10001A568, symSize: 0x30 }
  - { offset: 0x43A52, size: 0x8, addend: 0x0, symName: __ZN5boost6detail18lcast_ret_unsignedINSt3__111char_traitsIcEEjcEC1ERjPKcS8_, symObjAddr: 0x1743C, symBinAddr: 0x10001A75C, symSize: 0x44 }
  - { offset: 0x43AA6, size: 0x8, addend: 0x0, symName: __ZN5boost6detail18lcast_ret_unsignedINSt3__111char_traitsIcEEjcE7convertEv, symObjAddr: 0x17480, symBinAddr: 0x10001A7A0, symSize: 0x3A4 }
  - { offset: 0x43B47, size: 0x8, addend: 0x0, symName: __ZN5boost6detail18lcast_ret_unsignedINSt3__111char_traitsIcEEjcEC2ERjPKcS8_, symObjAddr: 0x17824, symBinAddr: 0x10001AB44, symSize: 0x44 }
  - { offset: 0x43B9B, size: 0x8, addend: 0x0, symName: __ZN5boost6detail18lcast_ret_unsignedINSt3__111char_traitsIcEEjcE17main_convert_loopEv, symObjAddr: 0x17868, symBinAddr: 0x10001AB88, symSize: 0x9C }
  - { offset: 0x43BD2, size: 0x8, addend: 0x0, symName: __ZNKSt3__18numpunctIcE8groupingB8ne180100Ev, symObjAddr: 0x17930, symBinAddr: 0x10001AC50, symSize: 0x34 }
  - { offset: 0x43BF8, size: 0x8, addend: 0x0, symName: __ZNKSt3__112basic_stringIcNS_11char_traitsIcEENS_9allocatorIcEEEixB8ne180100Em, symObjAddr: 0x17964, symBinAddr: 0x10001AC84, symSize: 0x48 }
  - { offset: 0x43C2D, size: 0x8, addend: 0x0, symName: __ZNKSt3__18numpunctIcE13thousands_sepB8ne180100Ev, symObjAddr: 0x179AC, symBinAddr: 0x10001ACCC, symSize: 0x30 }
  - { offset: 0x43C53, size: 0x8, addend: 0x0, symName: __ZN5boost6detail18lcast_ret_unsignedINSt3__111char_traitsIcEEjcE22main_convert_iterationEv, symObjAddr: 0x179DC, symBinAddr: 0x10001ACFC, symSize: 0x190 }
  - { offset: 0x43CB5, size: 0x8, addend: 0x0, symName: __ZNSt3__112basic_stringIcNS_11char_traitsIcEENS_9allocatorIcEEE13__fits_in_ssoB8ne180100Em, symObjAddr: 0x17B6C, symBinAddr: 0x10001AE8C, symSize: 0x20 }
  - { offset: 0x43CD9, size: 0x8, addend: 0x0, symName: __ZN5boost17value_initializedIiE4dataEv, symObjAddr: 0x17B8C, symBinAddr: 0x10001AEAC, symSize: 0x24 }
  - { offset: 0x43CFF, size: 0x8, addend: 0x0, symName: __ZN5boost11initializedIiE4dataEv, symObjAddr: 0x17BB0, symBinAddr: 0x10001AED0, symSize: 0x14 }
  - { offset: 0x43D59, size: 0x8, addend: 0x0, symName: __ZN5boost17value_initializedIlEC1Ev, symObjAddr: 0x17BC4, symBinAddr: 0x10001AEE4, symSize: 0x2C }
  - { offset: 0x43D83, size: 0x8, addend: 0x0, symName: __ZN5boost17mutate_graph_implINS_14adjacency_listINS_4vecSES2_NS_9directedSENS_11no_propertyES4_S4_NS_5listSEEEE12put_propertyIPS6_NS_3mpl6vectorIbilfdNSt3__112basic_stringIcNSC_11char_traitsIcEENSC_9allocatorIcEEEEN4mpl_2naESK_SK_SK_SK_SK_SK_SK_SK_SK_SK_SK_SK_SK_EEEclIlEEvT_, symObjAddr: 0x17BF0, symBinAddr: 0x10001AF10, symSize: 0x94 }
  - { offset: 0x43DBC, size: 0x8, addend: 0x0, symName: __ZN5boost17value_initializedIlEC2Ev, symObjAddr: 0x17D34, symBinAddr: 0x10001B054, symSize: 0x2C }
  - { offset: 0x43DE6, size: 0x8, addend: 0x0, symName: __ZN5boost11initializedIlEC1Ev, symObjAddr: 0x17D60, symBinAddr: 0x10001B080, symSize: 0x2C }
  - { offset: 0x43E10, size: 0x8, addend: 0x0, symName: __ZN5boost11initializedIlEC2Ev, symObjAddr: 0x17D8C, symBinAddr: 0x10001B0AC, symSize: 0x18 }
  - { offset: 0x43E3A, size: 0x8, addend: 0x0, symName: __ZN5boost3anyC1IlEERKT_, symObjAddr: 0x180D0, symBinAddr: 0x10001B3F0, symSize: 0x34 }
  - { offset: 0x43E7B, size: 0x8, addend: 0x0, symName: __ZN5boost18dynamic_properties8generateIPNS_14adjacency_listINS_4vecSES3_NS_9directedSENS_11no_propertyES5_S5_NS_5listSEEElEENS_10shared_ptrINS_20dynamic_property_mapEEERKNSt3__112basic_stringIcNSC_11char_traitsIcEENSC_9allocatorIcEEEERKT_RKT0_, symObjAddr: 0x18104, symBinAddr: 0x10001B424, symSize: 0x140 }
  - { offset: 0x43EE0, size: 0x8, addend: 0x0, symName: __ZN5boost3anyC2IlEERKT_, symObjAddr: 0x18244, symBinAddr: 0x10001B564, symSize: 0x70 }
  - { offset: 0x43F44, size: 0x8, addend: 0x0, symName: __ZN5boost3any6holderIlEC1ERKl, symObjAddr: 0x182B4, symBinAddr: 0x10001B5D4, symSize: 0x34 }
  - { offset: 0x43F7C, size: 0x8, addend: 0x0, symName: __ZN5boost3any6holderIlEC2ERKl, symObjAddr: 0x182E8, symBinAddr: 0x10001B608, symSize: 0x4C }
  - { offset: 0x43FB4, size: 0x8, addend: 0x0, symName: __ZN5boost3any6holderIlED1Ev, symObjAddr: 0x18334, symBinAddr: 0x10001B654, symSize: 0x2C }
  - { offset: 0x43FE0, size: 0x8, addend: 0x0, symName: __ZN5boost3any6holderIlED0Ev, symObjAddr: 0x18360, symBinAddr: 0x10001B680, symSize: 0x30 }
  - { offset: 0x4400C, size: 0x8, addend: 0x0, symName: __ZNK5boost3any6holderIlE4typeEv, symObjAddr: 0x18390, symBinAddr: 0x10001B6B0, symSize: 0x30 }
  - { offset: 0x44032, size: 0x8, addend: 0x0, symName: __ZNK5boost3any6holderIlE5cloneEv, symObjAddr: 0x183C0, symBinAddr: 0x10001B6E0, symSize: 0x68 }
  - { offset: 0x44058, size: 0x8, addend: 0x0, symName: __ZN5boost3any6holderIlED2Ev, symObjAddr: 0x18428, symBinAddr: 0x10001B748, symSize: 0x2C }
  - { offset: 0x44084, size: 0x8, addend: 0x0, symName: __ZN5boost9typeindex14stl_type_index7type_idIlEES1_v, symObjAddr: 0x18478, symBinAddr: 0x10001B798, symSize: 0x2C }
  - { offset: 0x440A2, size: 0x8, addend: 0x0, symName: __ZN5boost6detail22lexical_converter_implIlNSt3__112basic_stringIcNS2_11char_traitsIcEENS2_9allocatorIcEEEEE11try_convertERKS8_Rl, symObjAddr: 0x1852C, symBinAddr: 0x10001B84C, symSize: 0xD0 }
  - { offset: 0x440F3, size: 0x8, addend: 0x0, symName: __ZN5boost6detail5lcast16to_target_streamIcNSt3__111char_traitsIcEEE10stream_outERl, symObjAddr: 0x185FC, symBinAddr: 0x10001B91C, symSize: 0x30 }
  - { offset: 0x4412E, size: 0x8, addend: 0x0, symName: __ZN5boost6detail18lcast_ret_unsignedINSt3__111char_traitsIcEEmcEC1ERmPKcS8_, symObjAddr: 0x187F0, symBinAddr: 0x10001BB10, symSize: 0x44 }
  - { offset: 0x44182, size: 0x8, addend: 0x0, symName: __ZN5boost6detail18lcast_ret_unsignedINSt3__111char_traitsIcEEmcE7convertEv, symObjAddr: 0x18834, symBinAddr: 0x10001BB54, symSize: 0x3AC }
  - { offset: 0x44223, size: 0x8, addend: 0x0, symName: __ZN5boost6detail18lcast_ret_unsignedINSt3__111char_traitsIcEEmcEC2ERmPKcS8_, symObjAddr: 0x18BE0, symBinAddr: 0x10001BF00, symSize: 0x44 }
  - { offset: 0x44277, size: 0x8, addend: 0x0, symName: __ZN5boost6detail18lcast_ret_unsignedINSt3__111char_traitsIcEEmcE17main_convert_loopEv, symObjAddr: 0x18C24, symBinAddr: 0x10001BF44, symSize: 0x9C }
  - { offset: 0x4429D, size: 0x8, addend: 0x0, symName: __ZN5boost6detail18lcast_ret_unsignedINSt3__111char_traitsIcEEmcE22main_convert_iterationEv, symObjAddr: 0x18CC0, symBinAddr: 0x10001BFE0, symSize: 0x198 }
  - { offset: 0x442FF, size: 0x8, addend: 0x0, symName: __ZN5boost17value_initializedIlE4dataEv, symObjAddr: 0x18E58, symBinAddr: 0x10001C178, symSize: 0x24 }
  - { offset: 0x44325, size: 0x8, addend: 0x0, symName: __ZN5boost11initializedIlE4dataEv, symObjAddr: 0x18E7C, symBinAddr: 0x10001C19C, symSize: 0x14 }
  - { offset: 0x44384, size: 0x8, addend: 0x0, symName: __ZN5boost17value_initializedIfEC1Ev, symObjAddr: 0x18E90, symBinAddr: 0x10001C1B0, symSize: 0x2C }
  - { offset: 0x443AE, size: 0x8, addend: 0x0, symName: __ZN5boost17mutate_graph_implINS_14adjacency_listINS_4vecSES2_NS_9directedSENS_11no_propertyES4_S4_NS_5listSEEEE12put_propertyIPS6_NS_3mpl6vectorIbilfdNSt3__112basic_stringIcNSC_11char_traitsIcEENSC_9allocatorIcEEEEN4mpl_2naESK_SK_SK_SK_SK_SK_SK_SK_SK_SK_SK_SK_SK_EEEclIfEEvT_, symObjAddr: 0x18EBC, symBinAddr: 0x10001C1DC, symSize: 0x90 }
  - { offset: 0x443E7, size: 0x8, addend: 0x0, symName: __ZN5boost17value_initializedIfEC2Ev, symObjAddr: 0x18FFC, symBinAddr: 0x10001C31C, symSize: 0x2C }
  - { offset: 0x44411, size: 0x8, addend: 0x0, symName: __ZN5boost11initializedIfEC1Ev, symObjAddr: 0x19028, symBinAddr: 0x10001C348, symSize: 0x2C }
  - { offset: 0x4443B, size: 0x8, addend: 0x0, symName: __ZN5boost11initializedIfEC2Ev, symObjAddr: 0x19054, symBinAddr: 0x10001C374, symSize: 0x1C }
  - { offset: 0x44465, size: 0x8, addend: 0x0, symName: __ZN5boost3anyC1IfEERKT_, symObjAddr: 0x193A0, symBinAddr: 0x10001C6C0, symSize: 0x34 }
  - { offset: 0x444A6, size: 0x8, addend: 0x0, symName: __ZN5boost18dynamic_properties8generateIPNS_14adjacency_listINS_4vecSES3_NS_9directedSENS_11no_propertyES5_S5_NS_5listSEEEfEENS_10shared_ptrINS_20dynamic_property_mapEEERKNSt3__112basic_stringIcNSC_11char_traitsIcEENSC_9allocatorIcEEEERKT_RKT0_, symObjAddr: 0x193D4, symBinAddr: 0x10001C6F4, symSize: 0x140 }
  - { offset: 0x4450B, size: 0x8, addend: 0x0, symName: __ZN5boost3anyC2IfEERKT_, symObjAddr: 0x19514, symBinAddr: 0x10001C834, symSize: 0x70 }
  - { offset: 0x4456F, size: 0x8, addend: 0x0, symName: __ZN5boost3any6holderIfEC1ERKf, symObjAddr: 0x19584, symBinAddr: 0x10001C8A4, symSize: 0x34 }
  - { offset: 0x445A7, size: 0x8, addend: 0x0, symName: __ZN5boost3any6holderIfEC2ERKf, symObjAddr: 0x195B8, symBinAddr: 0x10001C8D8, symSize: 0x4C }
  - { offset: 0x445DF, size: 0x8, addend: 0x0, symName: __ZN5boost3any6holderIfED1Ev, symObjAddr: 0x19604, symBinAddr: 0x10001C924, symSize: 0x2C }
  - { offset: 0x4460B, size: 0x8, addend: 0x0, symName: __ZN5boost3any6holderIfED0Ev, symObjAddr: 0x19630, symBinAddr: 0x10001C950, symSize: 0x30 }
  - { offset: 0x44637, size: 0x8, addend: 0x0, symName: __ZNK5boost3any6holderIfE4typeEv, symObjAddr: 0x19660, symBinAddr: 0x10001C980, symSize: 0x30 }
  - { offset: 0x4465D, size: 0x8, addend: 0x0, symName: __ZNK5boost3any6holderIfE5cloneEv, symObjAddr: 0x19690, symBinAddr: 0x10001C9B0, symSize: 0x68 }
  - { offset: 0x44683, size: 0x8, addend: 0x0, symName: __ZN5boost3any6holderIfED2Ev, symObjAddr: 0x196F8, symBinAddr: 0x10001CA18, symSize: 0x2C }
  - { offset: 0x446AF, size: 0x8, addend: 0x0, symName: __ZN5boost9typeindex14stl_type_index7type_idIfEES1_v, symObjAddr: 0x19748, symBinAddr: 0x10001CA68, symSize: 0x2C }
  - { offset: 0x446CD, size: 0x8, addend: 0x0, symName: __ZN5boost6detail22lexical_converter_implIfNSt3__112basic_stringIcNS2_11char_traitsIcEENS2_9allocatorIcEEEEE11try_convertERKS8_Rf, symObjAddr: 0x197FC, symBinAddr: 0x10001CB1C, symSize: 0xD0 }
  - { offset: 0x4471E, size: 0x8, addend: 0x0, symName: __ZN5boost6detail5lcast16to_target_streamIcNSt3__111char_traitsIcEEE10stream_outERf, symObjAddr: 0x198CC, symBinAddr: 0x10001CBEC, symSize: 0x30 }
  - { offset: 0x44753, size: 0x8, addend: 0x0, symName: __ZN5boost6detail5lcast16to_target_streamIcNSt3__111char_traitsIcEEE30float_types_converter_internalIfEEbRT_, symObjAddr: 0x198FC, symBinAddr: 0x10001CC1C, symSize: 0x138 }
  - { offset: 0x447DC, size: 0x8, addend: 0x0, symName: __ZN5boost6detail5lcast16to_target_streamIcNSt3__111char_traitsIcEEE20shr_using_base_classIfEEbRT_, symObjAddr: 0x19A9C, symBinAddr: 0x10001CDBC, symSize: 0x1F4 }
  - { offset: 0x44852, size: 0x8, addend: 0x0, symName: __ZNSt3__114numeric_limitsIfE9quiet_NaNB8ne180100Ev, symObjAddr: 0x1A05C, symBinAddr: 0x10001D37C, symSize: 0x14 }
  - { offset: 0x44866, size: 0x8, addend: 0x0, symName: __ZNSt3__114numeric_limitsIfE8infinityB8ne180100Ev, symObjAddr: 0x1A09C, symBinAddr: 0x10001D3BC, symSize: 0x14 }
  - { offset: 0x4487A, size: 0x8, addend: 0x0, symName: __ZNSt3__123__libcpp_numeric_limitsIfLb1EE9quiet_NaNB8ne180100Ev, symObjAddr: 0x1A0B0, symBinAddr: 0x10001D3D0, symSize: 0xC }
  - { offset: 0x4488E, size: 0x8, addend: 0x0, symName: __ZNSt3__123__libcpp_numeric_limitsIfLb1EE8infinityB8ne180100Ev, symObjAddr: 0x1A108, symBinAddr: 0x10001D428, symSize: 0xC }
  - { offset: 0x448A8, size: 0x8, addend: 0x0, symName: __ZN5boost6detail5lcast17basic_unlockedbufINSt3__115basic_streambufIcNS3_11char_traitsIcEEEEcEC1Ev, symObjAddr: 0x1A114, symBinAddr: 0x10001D434, symSize: 0x2C }
  - { offset: 0x448D4, size: 0x8, addend: 0x0, symName: __ZN5boost6detail16basic_pointerbufIcNSt3__115basic_streambufIcNS2_11char_traitsIcEEEEE6setbufEPcl, symObjAddr: 0x1A140, symBinAddr: 0x10001D460, symSize: 0x48 }
  - { offset: 0x44917, size: 0x8, addend: 0x0, symName: __ZNSt3__113basic_istreamIcNS_11char_traitsIcEEEC1B8ne180100EPNS_15basic_streambufIcS2_EE, symObjAddr: 0x1A188, symBinAddr: 0x10001D4A8, symSize: 0x90 }
  - { offset: 0x4494F, size: 0x8, addend: 0x0, symName: __ZNSt3__19basic_iosIcNS_11char_traitsIcEEE10exceptionsB8ne180100Ej, symObjAddr: 0x1A218, symBinAddr: 0x10001D538, symSize: 0x2C }
  - { offset: 0x44984, size: 0x8, addend: 0x0, symName: __ZNSt3__18ios_base6unsetfB8ne180100Ej, symObjAddr: 0x1A244, symBinAddr: 0x10001D564, symSize: 0x28 }
  - { offset: 0x449BB, size: 0x8, addend: 0x0, symName: __ZNKSt3__19basic_iosIcNS_11char_traitsIcEEEcvbB8ne180100Ev, symObjAddr: 0x1A298, symBinAddr: 0x10001D5B8, symSize: 0x2C }
  - { offset: 0x449E1, size: 0x8, addend: 0x0, symName: __ZN5boost6detail5lcast17basic_unlockedbufINSt3__115basic_streambufIcNS3_11char_traitsIcEEEEcED1Ev, symObjAddr: 0x1A2C4, symBinAddr: 0x10001D5E4, symSize: 0x2C }
  - { offset: 0x44A0D, size: 0x8, addend: 0x0, symName: __ZN5boost6detail5lcast17basic_unlockedbufINSt3__115basic_streambufIcNS3_11char_traitsIcEEEEcEC2Ev, symObjAddr: 0x1A2F0, symBinAddr: 0x10001D610, symSize: 0x3C }
  - { offset: 0x44A39, size: 0x8, addend: 0x0, symName: __ZN5boost6detail16basic_pointerbufIcNSt3__115basic_streambufIcNS2_11char_traitsIcEEEEEC2Ev, symObjAddr: 0x1A32C, symBinAddr: 0x10001D64C, symSize: 0x74 }
  - { offset: 0x44A63, size: 0x8, addend: 0x0, symName: __ZN5boost6detail5lcast17basic_unlockedbufINSt3__115basic_streambufIcNS3_11char_traitsIcEEEEcED0Ev, symObjAddr: 0x1A3A0, symBinAddr: 0x10001D6C0, symSize: 0x30 }
  - { offset: 0x44A8F, size: 0x8, addend: 0x0, symName: __ZN5boost6detail16basic_pointerbufIcNSt3__115basic_streambufIcNS2_11char_traitsIcEEEEE7seekoffExNS2_8ios_base7seekdirEj, symObjAddr: 0x1A3D0, symBinAddr: 0x10001D6F0, symSize: 0x278 }
  - { offset: 0x44B26, size: 0x8, addend: 0x0, symName: __ZN5boost6detail16basic_pointerbufIcNSt3__115basic_streambufIcNS2_11char_traitsIcEEEEE7seekposENS2_4fposI11__mbstate_tEEj, symObjAddr: 0x1A648, symBinAddr: 0x10001D968, symSize: 0xFC }
  - { offset: 0x44B86, size: 0x8, addend: 0x0, symName: __ZN5boost6detail16basic_pointerbufIcNSt3__115basic_streambufIcNS2_11char_traitsIcEEEEED1Ev, symObjAddr: 0x1A744, symBinAddr: 0x10001DA64, symSize: 0x2C }
  - { offset: 0x44BB2, size: 0x8, addend: 0x0, symName: __ZN5boost6detail16basic_pointerbufIcNSt3__115basic_streambufIcNS2_11char_traitsIcEEEEED0Ev, symObjAddr: 0x1A770, symBinAddr: 0x10001DA90, symSize: 0x30 }
  - { offset: 0x44BDE, size: 0x8, addend: 0x0, symName: __ZN5boost6detail16basic_pointerbufIcNSt3__115basic_streambufIcNS2_11char_traitsIcEEEEED2Ev, symObjAddr: 0x1A7A0, symBinAddr: 0x10001DAC0, symSize: 0x2C }
  - { offset: 0x44C0A, size: 0x8, addend: 0x0, symName: __ZNSt3__14fposI11__mbstate_tEC1B8ne180100Ex, symObjAddr: 0x1A7CC, symBinAddr: 0x10001DAEC, symSize: 0x34 }
  - { offset: 0x44C42, size: 0x8, addend: 0x0, symName: __ZNKSt3__115basic_streambufIcNS_11char_traitsIcEEE5egptrB8ne180100Ev, symObjAddr: 0x1A800, symBinAddr: 0x10001DB20, symSize: 0x18 }
  - { offset: 0x44C68, size: 0x8, addend: 0x0, symName: __ZNKSt3__115basic_streambufIcNS_11char_traitsIcEEE5ebackB8ne180100Ev, symObjAddr: 0x1A818, symBinAddr: 0x10001DB38, symSize: 0x18 }
  - { offset: 0x44C8E, size: 0x8, addend: 0x0, symName: __ZNKSt3__115basic_streambufIcNS_11char_traitsIcEEE4gptrB8ne180100Ev, symObjAddr: 0x1A830, symBinAddr: 0x10001DB50, symSize: 0x18 }
  - { offset: 0x44CB4, size: 0x8, addend: 0x0, symName: __ZNSt3__115basic_streambufIcNS_11char_traitsIcEEE4setgB8ne180100EPcS4_S4_, symObjAddr: 0x1A848, symBinAddr: 0x10001DB68, symSize: 0x38 }
  - { offset: 0x44D04, size: 0x8, addend: 0x0, symName: __ZNSt3__14fposI11__mbstate_tEC2B8ne180100Ex, symObjAddr: 0x1A880, symBinAddr: 0x10001DBA0, symSize: 0x40 }
  - { offset: 0x44D3C, size: 0x8, addend: 0x0, symName: __ZNKSt3__14fposI11__mbstate_tEcvxB8ne180100Ev, symObjAddr: 0x1A8C0, symBinAddr: 0x10001DBE0, symSize: 0x18 }
  - { offset: 0x44D62, size: 0x8, addend: 0x0, symName: __ZNSt3__18ios_base10exceptionsB8ne180100Ej, symObjAddr: 0x1A8D8, symBinAddr: 0x10001DBF8, symSize: 0x34 }
  - { offset: 0x44D99, size: 0x8, addend: 0x0, symName: __ZNSt3__18ios_base9precisionB8ne180100El, symObjAddr: 0x1A90C, symBinAddr: 0x10001DC2C, symSize: 0x2C }
  - { offset: 0x44DDF, size: 0x8, addend: 0x0, symName: __ZN5boost6detail5lcast17basic_unlockedbufINSt3__115basic_streambufIcNS3_11char_traitsIcEEEEcED2Ev, symObjAddr: 0x1A938, symBinAddr: 0x10001DC58, symSize: 0x2C }
  - { offset: 0x44E0B, size: 0x8, addend: 0x0, symName: __ZN5boost17value_initializedIfE4dataEv, symObjAddr: 0x1A964, symBinAddr: 0x10001DC84, symSize: 0x24 }
  - { offset: 0x44E31, size: 0x8, addend: 0x0, symName: __ZN5boost11initializedIfE4dataEv, symObjAddr: 0x1A988, symBinAddr: 0x10001DCA8, symSize: 0x14 }
  - { offset: 0x44E90, size: 0x8, addend: 0x0, symName: __ZN5boost17value_initializedIdEC1Ev, symObjAddr: 0x1A99C, symBinAddr: 0x10001DCBC, symSize: 0x2C }
  - { offset: 0x44EBA, size: 0x8, addend: 0x0, symName: __ZN5boost17mutate_graph_implINS_14adjacency_listINS_4vecSES2_NS_9directedSENS_11no_propertyES4_S4_NS_5listSEEEE12put_propertyIPS6_NS_3mpl6vectorIbilfdNSt3__112basic_stringIcNSC_11char_traitsIcEENSC_9allocatorIcEEEEN4mpl_2naESK_SK_SK_SK_SK_SK_SK_SK_SK_SK_SK_SK_SK_EEEclIdEEvT_, symObjAddr: 0x1A9C8, symBinAddr: 0x10001DCE8, symSize: 0x90 }
  - { offset: 0x44EF3, size: 0x8, addend: 0x0, symName: __ZN5boost17value_initializedIdEC2Ev, symObjAddr: 0x1AB70, symBinAddr: 0x10001DE90, symSize: 0x2C }
  - { offset: 0x44F1D, size: 0x8, addend: 0x0, symName: __ZN5boost11initializedIdEC1Ev, symObjAddr: 0x1AB9C, symBinAddr: 0x10001DEBC, symSize: 0x2C }
  - { offset: 0x44F47, size: 0x8, addend: 0x0, symName: __ZN5boost11initializedIdEC2Ev, symObjAddr: 0x1ABC8, symBinAddr: 0x10001DEE8, symSize: 0x1C }
  - { offset: 0x44F71, size: 0x8, addend: 0x0, symName: __ZN5boost3anyC1IdEERKT_, symObjAddr: 0x1AF14, symBinAddr: 0x10001E234, symSize: 0x34 }
  - { offset: 0x44FB2, size: 0x8, addend: 0x0, symName: __ZN5boost18dynamic_properties8generateIPNS_14adjacency_listINS_4vecSES3_NS_9directedSENS_11no_propertyES5_S5_NS_5listSEEEdEENS_10shared_ptrINS_20dynamic_property_mapEEERKNSt3__112basic_stringIcNSC_11char_traitsIcEENSC_9allocatorIcEEEERKT_RKT0_, symObjAddr: 0x1AF48, symBinAddr: 0x10001E268, symSize: 0x140 }
  - { offset: 0x45017, size: 0x8, addend: 0x0, symName: __ZN5boost3anyC2IdEERKT_, symObjAddr: 0x1B088, symBinAddr: 0x10001E3A8, symSize: 0x70 }
  - { offset: 0x4507B, size: 0x8, addend: 0x0, symName: __ZN5boost3any6holderIdEC1ERKd, symObjAddr: 0x1B0F8, symBinAddr: 0x10001E418, symSize: 0x34 }
  - { offset: 0x450B3, size: 0x8, addend: 0x0, symName: __ZN5boost3any6holderIdEC2ERKd, symObjAddr: 0x1B12C, symBinAddr: 0x10001E44C, symSize: 0x4C }
  - { offset: 0x450EB, size: 0x8, addend: 0x0, symName: __ZN5boost3any6holderIdED1Ev, symObjAddr: 0x1B178, symBinAddr: 0x10001E498, symSize: 0x2C }
  - { offset: 0x45117, size: 0x8, addend: 0x0, symName: __ZN5boost3any6holderIdED0Ev, symObjAddr: 0x1B1A4, symBinAddr: 0x10001E4C4, symSize: 0x30 }
  - { offset: 0x45143, size: 0x8, addend: 0x0, symName: __ZNK5boost3any6holderIdE4typeEv, symObjAddr: 0x1B1D4, symBinAddr: 0x10001E4F4, symSize: 0x30 }
  - { offset: 0x45169, size: 0x8, addend: 0x0, symName: __ZNK5boost3any6holderIdE5cloneEv, symObjAddr: 0x1B204, symBinAddr: 0x10001E524, symSize: 0x68 }
  - { offset: 0x4518F, size: 0x8, addend: 0x0, symName: __ZN5boost3any6holderIdED2Ev, symObjAddr: 0x1B26C, symBinAddr: 0x10001E58C, symSize: 0x2C }
  - { offset: 0x451BB, size: 0x8, addend: 0x0, symName: __ZN5boost9typeindex14stl_type_index7type_idIdEES1_v, symObjAddr: 0x1B2BC, symBinAddr: 0x10001E5DC, symSize: 0x2C }
  - { offset: 0x451D9, size: 0x8, addend: 0x0, symName: __ZN5boost6detail22lexical_converter_implIdNSt3__112basic_stringIcNS2_11char_traitsIcEENS2_9allocatorIcEEEEE11try_convertERKS8_Rd, symObjAddr: 0x1B370, symBinAddr: 0x10001E690, symSize: 0xD0 }
  - { offset: 0x4522A, size: 0x8, addend: 0x0, symName: __ZN5boost6detail5lcast16to_target_streamIcNSt3__111char_traitsIcEEE10stream_outERd, symObjAddr: 0x1B440, symBinAddr: 0x10001E760, symSize: 0x30 }
  - { offset: 0x4525F, size: 0x8, addend: 0x0, symName: __ZN5boost6detail5lcast16to_target_streamIcNSt3__111char_traitsIcEEE30float_types_converter_internalIdEEbRT_, symObjAddr: 0x1B470, symBinAddr: 0x10001E790, symSize: 0x138 }
  - { offset: 0x452E8, size: 0x8, addend: 0x0, symName: __ZN5boost6detail5lcast16to_target_streamIcNSt3__111char_traitsIcEEE20shr_using_base_classIdEEbRT_, symObjAddr: 0x1B610, symBinAddr: 0x10001E930, symSize: 0x1F0 }
  - { offset: 0x4535E, size: 0x8, addend: 0x0, symName: __ZNSt3__114numeric_limitsIdE9quiet_NaNB8ne180100Ev, symObjAddr: 0x1BAFC, symBinAddr: 0x10001EE1C, symSize: 0x14 }
  - { offset: 0x45372, size: 0x8, addend: 0x0, symName: __ZNSt3__114numeric_limitsIdE8infinityB8ne180100Ev, symObjAddr: 0x1BB3C, symBinAddr: 0x10001EE5C, symSize: 0x14 }
  - { offset: 0x45386, size: 0x8, addend: 0x0, symName: __ZNSt3__123__libcpp_numeric_limitsIdLb1EE9quiet_NaNB8ne180100Ev, symObjAddr: 0x1BB50, symBinAddr: 0x10001EE70, symSize: 0xC }
  - { offset: 0x4539A, size: 0x8, addend: 0x0, symName: __ZNSt3__123__libcpp_numeric_limitsIdLb1EE8infinityB8ne180100Ev, symObjAddr: 0x1BBA0, symBinAddr: 0x10001EEC0, symSize: 0xC }
  - { offset: 0x453AE, size: 0x8, addend: 0x0, symName: __ZN5boost17value_initializedIdE4dataEv, symObjAddr: 0x1BBD8, symBinAddr: 0x10001EEF8, symSize: 0x24 }
  - { offset: 0x453D4, size: 0x8, addend: 0x0, symName: __ZN5boost11initializedIdE4dataEv, symObjAddr: 0x1BBFC, symBinAddr: 0x10001EF1C, symSize: 0x14 }
  - { offset: 0x45428, size: 0x8, addend: 0x0, symName: __ZN5boost17value_initializedINSt3__112basic_stringIcNS1_11char_traitsIcEENS1_9allocatorIcEEEEEC1Ev, symObjAddr: 0x1BC10, symBinAddr: 0x10001EF30, symSize: 0x2C }
  - { offset: 0x45452, size: 0x8, addend: 0x0, symName: __ZN5boost17mutate_graph_implINS_14adjacency_listINS_4vecSES2_NS_9directedSENS_11no_propertyES4_S4_NS_5listSEEEE12put_propertyIPS6_NS_3mpl6vectorIbilfdNSt3__112basic_stringIcNSC_11char_traitsIcEENSC_9allocatorIcEEEEN4mpl_2naESK_SK_SK_SK_SK_SK_SK_SK_SK_SK_SK_SK_SK_EEEclISI_EEvT_, symObjAddr: 0x1BC3C, symBinAddr: 0x10001EF5C, symSize: 0xC0 }
  - { offset: 0x4548C, size: 0x8, addend: 0x0, symName: __ZN5boost3mpl3aux13for_each_implILb1EE7executeINS0_6v_iterINS0_6vectorIbilfdNSt3__112basic_stringIcNS7_11char_traitsIcEENS7_9allocatorIcEEEEN4mpl_2naESF_SF_SF_SF_SF_SF_SF_SF_SF_SF_SF_SF_SF_EELl6EEESH_NS0_8identityISF_EENS_17mutate_graph_implINS_14adjacency_listINS_4vecSESM_NS_9directedSENS_11no_propertyESO_SO_NS_5listSEEEE12put_propertyIPSQ_SG_EEEEvPT_PT0_PT1_T2_, symObjAddr: 0x1BD20, symBinAddr: 0x10001F040, symSize: 0x1C }
  - { offset: 0x454EE, size: 0x8, addend: 0x0, symName: __ZN5boost17value_initializedINSt3__112basic_stringIcNS1_11char_traitsIcEENS1_9allocatorIcEEEEED1Ev, symObjAddr: 0x1BD3C, symBinAddr: 0x10001F05C, symSize: 0x2C }
  - { offset: 0x4551A, size: 0x8, addend: 0x0, symName: __ZN5boost17value_initializedINSt3__112basic_stringIcNS1_11char_traitsIcEENS1_9allocatorIcEEEEEC2Ev, symObjAddr: 0x1BD68, symBinAddr: 0x10001F088, symSize: 0x2C }
  - { offset: 0x45544, size: 0x8, addend: 0x0, symName: __ZN5boost11initializedINSt3__112basic_stringIcNS1_11char_traitsIcEENS1_9allocatorIcEEEEEC1Ev, symObjAddr: 0x1BD94, symBinAddr: 0x10001F0B4, symSize: 0x2C }
  - { offset: 0x4556E, size: 0x8, addend: 0x0, symName: __ZN5boost11initializedINSt3__112basic_stringIcNS1_11char_traitsIcEENS1_9allocatorIcEEEEEC2Ev, symObjAddr: 0x1BDC0, symBinAddr: 0x10001F0E0, symSize: 0x2C }
  - { offset: 0x45598, size: 0x8, addend: 0x0, symName: __ZN5boost3anyC1INSt3__112basic_stringIcNS2_11char_traitsIcEENS2_9allocatorIcEEEEEERKT_, symObjAddr: 0x1C194, symBinAddr: 0x10001F4B4, symSize: 0x34 }
  - { offset: 0x455D9, size: 0x8, addend: 0x0, symName: __ZN5boost18dynamic_properties8generateIPNS_14adjacency_listINS_4vecSES3_NS_9directedSENS_11no_propertyES5_S5_NS_5listSEEENSt3__112basic_stringIcNS9_11char_traitsIcEENS9_9allocatorIcEEEEEENS_10shared_ptrINS_20dynamic_property_mapEEERKSF_RKT_RKT0_, symObjAddr: 0x1C1C8, symBinAddr: 0x10001F4E8, symSize: 0x140 }
  - { offset: 0x4563E, size: 0x8, addend: 0x0, symName: __ZN5boost3anyC2INSt3__112basic_stringIcNS2_11char_traitsIcEENS2_9allocatorIcEEEEEERKT_, symObjAddr: 0x1C308, symBinAddr: 0x10001F628, symSize: 0x70 }
  - { offset: 0x4567F, size: 0x8, addend: 0x0, symName: __ZN5boost6detail22lexical_converter_implINSt3__112basic_stringIcNS2_11char_traitsIcEENS2_9allocatorIcEEEES8_E11try_convertERKS8_RS8_, symObjAddr: 0x1C3FC, symBinAddr: 0x10001F71C, symSize: 0xD0 }
  - { offset: 0x456D0, size: 0x8, addend: 0x0, symName: __ZN5boost6detail5lcast16to_target_streamIcNSt3__111char_traitsIcEEE10stream_outIS5_NS3_9allocatorIcEEEEbRNS3_12basic_stringIcT_T0_EE, symObjAddr: 0x1C4CC, symBinAddr: 0x10001F7EC, symSize: 0x3C }
  - { offset: 0x45717, size: 0x8, addend: 0x0, symName: __ZNSt3__112basic_stringIcNS_11char_traitsIcEENS_9allocatorIcEEE6assignIPKcLi0EEERS5_T_SA_, symObjAddr: 0x1C508, symBinAddr: 0x10001F828, symSize: 0x58 }
  - { offset: 0x45789, size: 0x8, addend: 0x0, symName: __ZNSt3__112basic_stringIcNS_11char_traitsIcEENS_9allocatorIcEEE16__assign_trivialB8ne180100IPKcS8_EEvT_T0_m, symObjAddr: 0x1C58C, symBinAddr: 0x10001F8AC, symSize: 0x174 }
  - { offset: 0x4583A, size: 0x8, addend: 0x0, symName: __ZNKSt3__112basic_stringIcNS_11char_traitsIcEENS_9allocatorIcEEE8capacityB8ne180100Ev, symObjAddr: 0x1C720, symBinAddr: 0x10001FA40, symSize: 0x54 }
  - { offset: 0x45860, size: 0x8, addend: 0x0, symName: __ZNSt3__112basic_stringIcNS_11char_traitsIcEENS_9allocatorIcEEE25__grow_by_without_replaceB8ne180100Emmmmmm, symObjAddr: 0x1C774, symBinAddr: 0x10001FA94, symSize: 0x90 }
  - { offset: 0x458E2, size: 0x8, addend: 0x0, symName: __ZNKSt3__112basic_stringIcNS_11char_traitsIcEENS_9allocatorIcEEE19__annotate_increaseB8ne180100Em, symObjAddr: 0x1C804, symBinAddr: 0x10001FB24, symSize: 0x14 }
  - { offset: 0x45917, size: 0x8, addend: 0x0, symName: __ZNSt3__112basic_stringIcNS_11char_traitsIcEENS_9allocatorIcEEE10__set_sizeB8ne180100Em, symObjAddr: 0x1C818, symBinAddr: 0x10001FB38, symSize: 0x54 }
  - { offset: 0x4594C, size: 0x8, addend: 0x0, symName: __ZNSt3__112basic_stringIcNS_11char_traitsIcEENS_9allocatorIcEEE15__set_long_sizeB8ne180100Em, symObjAddr: 0x1C86C, symBinAddr: 0x10001FB8C, symSize: 0x38 }
  - { offset: 0x45981, size: 0x8, addend: 0x0, symName: __ZN5boost17value_initializedINSt3__112basic_stringIcNS1_11char_traitsIcEENS1_9allocatorIcEEEEE4dataEv, symObjAddr: 0x1C8A4, symBinAddr: 0x10001FBC4, symSize: 0x24 }
  - { offset: 0x459A7, size: 0x8, addend: 0x0, symName: __ZN5boost11initializedINSt3__112basic_stringIcNS1_11char_traitsIcEENS1_9allocatorIcEEEEE4dataEv, symObjAddr: 0x1C8C8, symBinAddr: 0x10001FBE8, symSize: 0x14 }
  - { offset: 0x459CD, size: 0x8, addend: 0x0, symName: __ZN5boost17value_initializedINSt3__112basic_stringIcNS1_11char_traitsIcEENS1_9allocatorIcEEEEED2Ev, symObjAddr: 0x1C8DC, symBinAddr: 0x10001FBFC, symSize: 0x2C }
  - { offset: 0x459F9, size: 0x8, addend: 0x0, symName: __ZN5boost11initializedINSt3__112basic_stringIcNS1_11char_traitsIcEENS1_9allocatorIcEEEEED1Ev, symObjAddr: 0x1C908, symBinAddr: 0x10001FC28, symSize: 0x2C }
  - { offset: 0x45A25, size: 0x8, addend: 0x0, symName: __ZN5boost11initializedINSt3__112basic_stringIcNS1_11char_traitsIcEENS1_9allocatorIcEEEEED2Ev, symObjAddr: 0x1C934, symBinAddr: 0x10001FC54, symSize: 0x2C }
  - { offset: 0x45A51, size: 0x8, addend: 0x0, symName: __ZN5boost17mutate_graph_implINS_14adjacency_listINS_4vecSES2_NS_9directedSENS_11no_propertyES4_S4_NS_5listSEEEE12put_propertyIPS6_NS_3mpl6vectorIbilfdNSt3__112basic_stringIcNSC_11char_traitsIcEENSC_9allocatorIcEEEEN4mpl_2naESK_SK_SK_SK_SK_SK_SK_SK_SK_SK_SK_SK_SK_EEEC2ERKSI_RNS_18dynamic_propertiesERKS9_SO_SO_PPKcRb, symObjAddr: 0x1C960, symBinAddr: 0x10001FC80, symSize: 0x68 }
  - { offset: 0x45AF4, size: 0x8, addend: 0x0, symName: __ZN5boost10wrapexceptINS_11parse_errorEEC1ERKS1_RKNS_15source_locationE, symObjAddr: 0x1C9C8, symBinAddr: 0x10001FCE8, symSize: 0x3C }
  - { offset: 0x45B3A, size: 0x8, addend: 0x0, symName: __ZN5boost10wrapexceptINS_11parse_errorEED1Ev, symObjAddr: 0x1CA04, symBinAddr: 0x10001FD24, symSize: 0x2C }
  - { offset: 0x45B66, size: 0x8, addend: 0x0, symName: __ZN5boost10wrapexceptINS_11parse_errorEEC2ERKS1_RKNS_15source_locationE, symObjAddr: 0x1CA30, symBinAddr: 0x10001FD50, symSize: 0x188 }
  - { offset: 0x45BAC, size: 0x8, addend: 0x0, symName: __ZN5boost11parse_errorC2ERKS0_, symObjAddr: 0x1CBB8, symBinAddr: 0x10001FED8, symSize: 0xB4 }
  - { offset: 0x45BE1, size: 0x8, addend: 0x0, symName: __ZN5boost10wrapexceptINS_11parse_errorEE9copy_fromEPKv, symObjAddr: 0x1CC6C, symBinAddr: 0x10001FF8C, symSize: 0x14 }
  - { offset: 0x45C11, size: 0x8, addend: 0x0, symName: __ZN5boost11parse_errorD2Ev, symObjAddr: 0x1CD20, symBinAddr: 0x100020040, symSize: 0x54 }
  - { offset: 0x45C3B, size: 0x8, addend: 0x0, symName: __ZNK5boost10wrapexceptINS_11parse_errorEE5cloneEv, symObjAddr: 0x1CD74, symBinAddr: 0x100020094, symSize: 0xE4 }
  - { offset: 0x45C7D, size: 0x8, addend: 0x0, symName: __ZNK5boost10wrapexceptINS_11parse_errorEE7rethrowEv, symObjAddr: 0x1CE58, symBinAddr: 0x100020178, symSize: 0x6C }
  - { offset: 0x45CA3, size: 0x8, addend: 0x0, symName: __ZN5boost10wrapexceptINS_11parse_errorEED0Ev, symObjAddr: 0x1CEC4, symBinAddr: 0x1000201E4, symSize: 0x30 }
  - { offset: 0x45CCF, size: 0x8, addend: 0x0, symName: __ZThn8_N5boost10wrapexceptINS_11parse_errorEED1Ev, symObjAddr: 0x1CEF4, symBinAddr: 0x100020214, symSize: 0x1C }
  - { offset: 0x45CE5, size: 0x8, addend: 0x0, symName: __ZThn8_N5boost10wrapexceptINS_11parse_errorEED0Ev, symObjAddr: 0x1CF10, symBinAddr: 0x100020230, symSize: 0x18 }
  - { offset: 0x45CFB, size: 0x8, addend: 0x0, symName: __ZNK5boost11parse_error4whatEv, symObjAddr: 0x1CF28, symBinAddr: 0x100020248, symSize: 0x28 }
  - { offset: 0x45D21, size: 0x8, addend: 0x0, symName: __ZThn64_N5boost10wrapexceptINS_11parse_errorEED1Ev, symObjAddr: 0x1CF50, symBinAddr: 0x100020270, symSize: 0x1C }
  - { offset: 0x45D37, size: 0x8, addend: 0x0, symName: __ZThn64_N5boost10wrapexceptINS_11parse_errorEED0Ev, symObjAddr: 0x1CF6C, symBinAddr: 0x10002028C, symSize: 0x18 }
  - { offset: 0x45D53, size: 0x8, addend: 0x0, symName: __ZN5boost15graph_exceptionC2ERKS0_, symObjAddr: 0x1CF84, symBinAddr: 0x1000202A4, symSize: 0x44 }
  - { offset: 0x45D88, size: 0x8, addend: 0x0, symName: __ZN5boost15graph_exceptionD2Ev, symObjAddr: 0x1CFC8, symBinAddr: 0x1000202E8, symSize: 0x2C }
  - { offset: 0x45DB2, size: 0x8, addend: 0x0, symName: __ZN5boost11parse_errorD0Ev, symObjAddr: 0x1CFF4, symBinAddr: 0x100020314, symSize: 0x30 }
  - { offset: 0x45DDC, size: 0x8, addend: 0x0, symName: __ZN5boost15graph_exceptionD1Ev, symObjAddr: 0x1D024, symBinAddr: 0x100020344, symSize: 0x14 }
  - { offset: 0x45E06, size: 0x8, addend: 0x0, symName: __ZN5boost15graph_exceptionD0Ev, symObjAddr: 0x1D038, symBinAddr: 0x100020358, symSize: 0xC }
  - { offset: 0x45E36, size: 0x8, addend: 0x0, symName: __ZN5boost10wrapexceptINS_11parse_errorEEC1ERKS2_, symObjAddr: 0x1D044, symBinAddr: 0x100020364, symSize: 0x34 }
  - { offset: 0x45E77, size: 0x8, addend: 0x0, symName: __ZN5boost10wrapexceptINS_11parse_errorEE7deleterD1Ev, symObjAddr: 0x1D078, symBinAddr: 0x100020398, symSize: 0x2C }
  - { offset: 0x45EA1, size: 0x8, addend: 0x0, symName: __ZN5boost10wrapexceptINS_11parse_errorEEC2ERKS2_, symObjAddr: 0x1D0A4, symBinAddr: 0x1000203C4, symSize: 0xC4 }
  - { offset: 0x45ED6, size: 0x8, addend: 0x0, symName: __ZN5boost10wrapexceptINS_11parse_errorEE7deleterD2Ev, symObjAddr: 0x1D168, symBinAddr: 0x100020488, symSize: 0x58 }
  - { offset: 0x45F00, size: 0x8, addend: 0x0, symName: __ZN5boost10wrapexceptINS_11parse_errorEED2Ev, symObjAddr: 0x1D1C0, symBinAddr: 0x1000204E0, symSize: 0x44 }
  - { offset: 0x45F2C, size: 0x8, addend: 0x0, symName: __ZNSt3__112basic_stringIcNS_11char_traitsIcEENS_9allocatorIcEEE6appendB8ne180100ERKS5_, symObjAddr: 0x1D204, symBinAddr: 0x100020524, symSize: 0x4C }
  - { offset: 0x45F61, size: 0x8, addend: 0x0, symName: __ZN5boost11parse_errorC2ERKNSt3__112basic_stringIcNS1_11char_traitsIcEENS1_9allocatorIcEEEE, symObjAddr: 0x1D250, symBinAddr: 0x100020570, symSize: 0xDC }
  - { offset: 0x45F99, size: 0x8, addend: 0x0, symName: __ZN5boost15graph_exceptionC2Ev, symObjAddr: 0x1D32C, symBinAddr: 0x10002064C, symSize: 0x3C }
  - { offset: 0x45FC5, size: 0x8, addend: 0x0, symName: __ZN5boost17mutate_graph_implINS_14adjacency_listINS_4vecSES2_NS_9directedSENS_11no_propertyES4_S4_NS_5listSEEEE12put_propertyImNS_3mpl6vectorIbilfdNSt3__112basic_stringIcNSB_11char_traitsIcEENSB_9allocatorIcEEEEN4mpl_2naESJ_SJ_SJ_SJ_SJ_SJ_SJ_SJ_SJ_SJ_SJ_SJ_SJ_EEEC1ERKSH_RNS_18dynamic_propertiesERKmSN_SN_PPKcRb, symObjAddr: 0x1D3B8, symBinAddr: 0x1000206D8, symSize: 0x64 }
  - { offset: 0x46051, size: 0x8, addend: 0x0, symName: __ZN5boost17mutate_graph_implINS_14adjacency_listINS_4vecSES2_NS_9directedSENS_11no_propertyES4_S4_NS_5listSEEEE12put_propertyImNS_3mpl6vectorIbilfdNSt3__112basic_stringIcNSB_11char_traitsIcEENSB_9allocatorIcEEEEN4mpl_2naESJ_SJ_SJ_SJ_SJ_SJ_SJ_SJ_SJ_SJ_SJ_SJ_SJ_EEEclIbEEvT_, symObjAddr: 0x1D51C, symBinAddr: 0x10002083C, symSize: 0xA8 }
  - { offset: 0x4608A, size: 0x8, addend: 0x0, symName: __ZN5boost3anyC1ImEERKT_, symObjAddr: 0x1D93C, symBinAddr: 0x100020C5C, symSize: 0x34 }
  - { offset: 0x460CB, size: 0x8, addend: 0x0, symName: __ZN5boost18dynamic_properties8generateImbEENS_10shared_ptrINS_20dynamic_property_mapEEERKNSt3__112basic_stringIcNS5_11char_traitsIcEENS5_9allocatorIcEEEERKT_RKT0_, symObjAddr: 0x1D970, symBinAddr: 0x100020C90, symSize: 0x140 }
  - { offset: 0x46130, size: 0x8, addend: 0x0, symName: __ZN5boost3anyC2ImEERKT_, symObjAddr: 0x1DAB0, symBinAddr: 0x100020DD0, symSize: 0x70 }
  - { offset: 0x46171, size: 0x8, addend: 0x0, symName: __ZN5boost17mutate_graph_implINS_14adjacency_listINS_4vecSES2_NS_9directedSENS_11no_propertyES4_S4_NS_5listSEEEE12put_propertyImNS_3mpl6vectorIbilfdNSt3__112basic_stringIcNSB_11char_traitsIcEENSB_9allocatorIcEEEEN4mpl_2naESJ_SJ_SJ_SJ_SJ_SJ_SJ_SJ_SJ_SJ_SJ_SJ_SJ_EEEclIiEEvT_, symObjAddr: 0x1DB20, symBinAddr: 0x100020E40, symSize: 0x94 }
  - { offset: 0x461AA, size: 0x8, addend: 0x0, symName: __ZN5boost18dynamic_properties8generateImiEENS_10shared_ptrINS_20dynamic_property_mapEEERKNSt3__112basic_stringIcNS5_11char_traitsIcEENS5_9allocatorIcEEEERKT_RKT0_, symObjAddr: 0x1DF2C, symBinAddr: 0x10002124C, symSize: 0x140 }
  - { offset: 0x4620F, size: 0x8, addend: 0x0, symName: __ZN5boost17mutate_graph_implINS_14adjacency_listINS_4vecSES2_NS_9directedSENS_11no_propertyES4_S4_NS_5listSEEEE12put_propertyImNS_3mpl6vectorIbilfdNSt3__112basic_stringIcNSB_11char_traitsIcEENSB_9allocatorIcEEEEN4mpl_2naESJ_SJ_SJ_SJ_SJ_SJ_SJ_SJ_SJ_SJ_SJ_SJ_SJ_EEEclIlEEvT_, symObjAddr: 0x1E06C, symBinAddr: 0x10002138C, symSize: 0x94 }
  - { offset: 0x46248, size: 0x8, addend: 0x0, symName: __ZN5boost18dynamic_properties8generateImlEENS_10shared_ptrINS_20dynamic_property_mapEEERKNSt3__112basic_stringIcNS5_11char_traitsIcEENS5_9allocatorIcEEEERKT_RKT0_, symObjAddr: 0x1E478, symBinAddr: 0x100021798, symSize: 0x140 }
  - { offset: 0x462AD, size: 0x8, addend: 0x0, symName: __ZN5boost17mutate_graph_implINS_14adjacency_listINS_4vecSES2_NS_9directedSENS_11no_propertyES4_S4_NS_5listSEEEE12put_propertyImNS_3mpl6vectorIbilfdNSt3__112basic_stringIcNSB_11char_traitsIcEENSB_9allocatorIcEEEEN4mpl_2naESJ_SJ_SJ_SJ_SJ_SJ_SJ_SJ_SJ_SJ_SJ_SJ_SJ_EEEclIfEEvT_, symObjAddr: 0x1E5B8, symBinAddr: 0x1000218D8, symSize: 0x90 }
  - { offset: 0x462E6, size: 0x8, addend: 0x0, symName: __ZN5boost18dynamic_properties8generateImfEENS_10shared_ptrINS_20dynamic_property_mapEEERKNSt3__112basic_stringIcNS5_11char_traitsIcEENS5_9allocatorIcEEEERKT_RKT0_, symObjAddr: 0x1E9C0, symBinAddr: 0x100021CE0, symSize: 0x140 }
  - { offset: 0x4634B, size: 0x8, addend: 0x0, symName: __ZN5boost17mutate_graph_implINS_14adjacency_listINS_4vecSES2_NS_9directedSENS_11no_propertyES4_S4_NS_5listSEEEE12put_propertyImNS_3mpl6vectorIbilfdNSt3__112basic_stringIcNSB_11char_traitsIcEENSB_9allocatorIcEEEEN4mpl_2naESJ_SJ_SJ_SJ_SJ_SJ_SJ_SJ_SJ_SJ_SJ_SJ_SJ_EEEclIdEEvT_, symObjAddr: 0x1EB00, symBinAddr: 0x100021E20, symSize: 0x90 }
  - { offset: 0x46384, size: 0x8, addend: 0x0, symName: __ZN5boost18dynamic_properties8generateImdEENS_10shared_ptrINS_20dynamic_property_mapEEERKNSt3__112basic_stringIcNS5_11char_traitsIcEENS5_9allocatorIcEEEERKT_RKT0_, symObjAddr: 0x1EF70, symBinAddr: 0x100022290, symSize: 0x140 }
  - { offset: 0x463E9, size: 0x8, addend: 0x0, symName: __ZN5boost17mutate_graph_implINS_14adjacency_listINS_4vecSES2_NS_9directedSENS_11no_propertyES4_S4_NS_5listSEEEE12put_propertyImNS_3mpl6vectorIbilfdNSt3__112basic_stringIcNSB_11char_traitsIcEENSB_9allocatorIcEEEEN4mpl_2naESJ_SJ_SJ_SJ_SJ_SJ_SJ_SJ_SJ_SJ_SJ_SJ_SJ_EEEclISH_EEvT_, symObjAddr: 0x1F0B0, symBinAddr: 0x1000223D0, symSize: 0xC0 }
  - { offset: 0x46423, size: 0x8, addend: 0x0, symName: __ZN5boost3mpl3aux13for_each_implILb1EE7executeINS0_6v_iterINS0_6vectorIbilfdNSt3__112basic_stringIcNS7_11char_traitsIcEENS7_9allocatorIcEEEEN4mpl_2naESF_SF_SF_SF_SF_SF_SF_SF_SF_SF_SF_SF_SF_EELl6EEESH_NS0_8identityISF_EENS_17mutate_graph_implINS_14adjacency_listINS_4vecSESM_NS_9directedSENS_11no_propertyESO_SO_NS_5listSEEEE12put_propertyImSG_EEEEvPT_PT0_PT1_T2_, symObjAddr: 0x1F170, symBinAddr: 0x100022490, symSize: 0x1C }
  - { offset: 0x46485, size: 0x8, addend: 0x0, symName: __ZN5boost18dynamic_properties8generateImNSt3__112basic_stringIcNS2_11char_traitsIcEENS2_9allocatorIcEEEEEENS_10shared_ptrINS_20dynamic_property_mapEEERKS8_RKT_RKT0_, symObjAddr: 0x1F478, symBinAddr: 0x100022798, symSize: 0x140 }
  - { offset: 0x464EA, size: 0x8, addend: 0x0, symName: __ZN5boost17mutate_graph_implINS_14adjacency_listINS_4vecSES2_NS_9directedSENS_11no_propertyES4_S4_NS_5listSEEEE12put_propertyImNS_3mpl6vectorIbilfdNSt3__112basic_stringIcNSB_11char_traitsIcEENSB_9allocatorIcEEEEN4mpl_2naESJ_SJ_SJ_SJ_SJ_SJ_SJ_SJ_SJ_SJ_SJ_SJ_SJ_EEEC2ERKSH_RNS_18dynamic_propertiesERKmSN_SN_PPKcRb, symObjAddr: 0x1F5B8, symBinAddr: 0x1000228D8, symSize: 0x68 }
  - { offset: 0x46576, size: 0x8, addend: 0x0, symName: __ZN5boost17mutate_graph_implINS_14adjacency_listINS_4vecSES2_NS_9directedSENS_11no_propertyES4_S4_NS_5listSEEEE12put_propertyINS_6detail14edge_desc_implINS_12directed_tagEmEENS_3mpl6vectorIbilfdNSt3__112basic_stringIcNSF_11char_traitsIcEENSF_9allocatorIcEEEEN4mpl_2naESN_SN_SN_SN_SN_SN_SN_SN_SN_SN_SN_SN_SN_EEEC1ERKSL_RNS_18dynamic_propertiesERKSC_SR_SR_PPKcRb, symObjAddr: 0x1F708, symBinAddr: 0x100022A28, symSize: 0x64 }
  - { offset: 0x46602, size: 0x8, addend: 0x0, symName: __ZN5boost17mutate_graph_implINS_14adjacency_listINS_4vecSES2_NS_9directedSENS_11no_propertyES4_S4_NS_5listSEEEE12put_propertyINS_6detail14edge_desc_implINS_12directed_tagEmEENS_3mpl6vectorIbilfdNSt3__112basic_stringIcNSF_11char_traitsIcEENSF_9allocatorIcEEEEN4mpl_2naESN_SN_SN_SN_SN_SN_SN_SN_SN_SN_SN_SN_SN_EEEclIbEEvT_, symObjAddr: 0x1F86C, symBinAddr: 0x100022B8C, symSize: 0xA8 }
  - { offset: 0x4663B, size: 0x8, addend: 0x0, symName: __ZN5boost3anyC1INS_6detail14edge_desc_implINS_12directed_tagEmEEEERKT_, symObjAddr: 0x1FC8C, symBinAddr: 0x100022FAC, symSize: 0x34 }
  - { offset: 0x4667C, size: 0x8, addend: 0x0, symName: __ZN5boost18dynamic_properties8generateINS_6detail14edge_desc_implINS_12directed_tagEmEEbEENS_10shared_ptrINS_20dynamic_property_mapEEERKNSt3__112basic_stringIcNS9_11char_traitsIcEENS9_9allocatorIcEEEERKT_RKT0_, symObjAddr: 0x1FCC0, symBinAddr: 0x100022FE0, symSize: 0x140 }
  - { offset: 0x466E1, size: 0x8, addend: 0x0, symName: __ZN5boost3anyC2INS_6detail14edge_desc_implINS_12directed_tagEmEEEERKT_, symObjAddr: 0x1FE00, symBinAddr: 0x100023120, symSize: 0x70 }
  - { offset: 0x46722, size: 0x8, addend: 0x0, symName: __ZN5boost17mutate_graph_implINS_14adjacency_listINS_4vecSES2_NS_9directedSENS_11no_propertyES4_S4_NS_5listSEEEE12put_propertyINS_6detail14edge_desc_implINS_12directed_tagEmEENS_3mpl6vectorIbilfdNSt3__112basic_stringIcNSF_11char_traitsIcEENSF_9allocatorIcEEEEN4mpl_2naESN_SN_SN_SN_SN_SN_SN_SN_SN_SN_SN_SN_SN_EEEclIiEEvT_, symObjAddr: 0x1FE70, symBinAddr: 0x100023190, symSize: 0x94 }
  - { offset: 0x4675B, size: 0x8, addend: 0x0, symName: __ZN5boost18dynamic_properties8generateINS_6detail14edge_desc_implINS_12directed_tagEmEEiEENS_10shared_ptrINS_20dynamic_property_mapEEERKNSt3__112basic_stringIcNS9_11char_traitsIcEENS9_9allocatorIcEEEERKT_RKT0_, symObjAddr: 0x2027C, symBinAddr: 0x10002359C, symSize: 0x140 }
  - { offset: 0x467C0, size: 0x8, addend: 0x0, symName: __ZN5boost17mutate_graph_implINS_14adjacency_listINS_4vecSES2_NS_9directedSENS_11no_propertyES4_S4_NS_5listSEEEE12put_propertyINS_6detail14edge_desc_implINS_12directed_tagEmEENS_3mpl6vectorIbilfdNSt3__112basic_stringIcNSF_11char_traitsIcEENSF_9allocatorIcEEEEN4mpl_2naESN_SN_SN_SN_SN_SN_SN_SN_SN_SN_SN_SN_SN_EEEclIlEEvT_, symObjAddr: 0x203BC, symBinAddr: 0x1000236DC, symSize: 0x94 }
  - { offset: 0x467F9, size: 0x8, addend: 0x0, symName: __ZN5boost18dynamic_properties8generateINS_6detail14edge_desc_implINS_12directed_tagEmEElEENS_10shared_ptrINS_20dynamic_property_mapEEERKNSt3__112basic_stringIcNS9_11char_traitsIcEENS9_9allocatorIcEEEERKT_RKT0_, symObjAddr: 0x207C8, symBinAddr: 0x100023AE8, symSize: 0x140 }
  - { offset: 0x4685E, size: 0x8, addend: 0x0, symName: __ZN5boost17mutate_graph_implINS_14adjacency_listINS_4vecSES2_NS_9directedSENS_11no_propertyES4_S4_NS_5listSEEEE12put_propertyINS_6detail14edge_desc_implINS_12directed_tagEmEENS_3mpl6vectorIbilfdNSt3__112basic_stringIcNSF_11char_traitsIcEENSF_9allocatorIcEEEEN4mpl_2naESN_SN_SN_SN_SN_SN_SN_SN_SN_SN_SN_SN_SN_EEEclIfEEvT_, symObjAddr: 0x20908, symBinAddr: 0x100023C28, symSize: 0x90 }
  - { offset: 0x46897, size: 0x8, addend: 0x0, symName: __ZN5boost18dynamic_properties8generateINS_6detail14edge_desc_implINS_12directed_tagEmEEfEENS_10shared_ptrINS_20dynamic_property_mapEEERKNSt3__112basic_stringIcNS9_11char_traitsIcEENS9_9allocatorIcEEEERKT_RKT0_, symObjAddr: 0x20D10, symBinAddr: 0x100024030, symSize: 0x140 }
  - { offset: 0x468FC, size: 0x8, addend: 0x0, symName: __ZN5boost17mutate_graph_implINS_14adjacency_listINS_4vecSES2_NS_9directedSENS_11no_propertyES4_S4_NS_5listSEEEE12put_propertyINS_6detail14edge_desc_implINS_12directed_tagEmEENS_3mpl6vectorIbilfdNSt3__112basic_stringIcNSF_11char_traitsIcEENSF_9allocatorIcEEEEN4mpl_2naESN_SN_SN_SN_SN_SN_SN_SN_SN_SN_SN_SN_SN_EEEclIdEEvT_, symObjAddr: 0x20E50, symBinAddr: 0x100024170, symSize: 0x90 }
  - { offset: 0x46935, size: 0x8, addend: 0x0, symName: __ZN5boost18dynamic_properties8generateINS_6detail14edge_desc_implINS_12directed_tagEmEEdEENS_10shared_ptrINS_20dynamic_property_mapEEERKNSt3__112basic_stringIcNS9_11char_traitsIcEENS9_9allocatorIcEEEERKT_RKT0_, symObjAddr: 0x212C0, symBinAddr: 0x1000245E0, symSize: 0x140 }
  - { offset: 0x4699A, size: 0x8, addend: 0x0, symName: __ZN5boost17mutate_graph_implINS_14adjacency_listINS_4vecSES2_NS_9directedSENS_11no_propertyES4_S4_NS_5listSEEEE12put_propertyINS_6detail14edge_desc_implINS_12directed_tagEmEENS_3mpl6vectorIbilfdNSt3__112basic_stringIcNSF_11char_traitsIcEENSF_9allocatorIcEEEEN4mpl_2naESN_SN_SN_SN_SN_SN_SN_SN_SN_SN_SN_SN_SN_EEEclISL_EEvT_, symObjAddr: 0x21400, symBinAddr: 0x100024720, symSize: 0xC0 }
  - { offset: 0x469D4, size: 0x8, addend: 0x0, symName: __ZN5boost3mpl3aux13for_each_implILb1EE7executeINS0_6v_iterINS0_6vectorIbilfdNSt3__112basic_stringIcNS7_11char_traitsIcEENS7_9allocatorIcEEEEN4mpl_2naESF_SF_SF_SF_SF_SF_SF_SF_SF_SF_SF_SF_SF_EELl6EEESH_NS0_8identityISF_EENS_17mutate_graph_implINS_14adjacency_listINS_4vecSESM_NS_9directedSENS_11no_propertyESO_SO_NS_5listSEEEE12put_propertyINS_6detail14edge_desc_implINS_12directed_tagEmEESG_EEEEvPT_PT0_PT1_T2_, symObjAddr: 0x214C0, symBinAddr: 0x1000247E0, symSize: 0x1C }
  - { offset: 0x46A36, size: 0x8, addend: 0x0, symName: __ZN5boost18dynamic_properties8generateINS_6detail14edge_desc_implINS_12directed_tagEmEENSt3__112basic_stringIcNS6_11char_traitsIcEENS6_9allocatorIcEEEEEENS_10shared_ptrINS_20dynamic_property_mapEEERKSC_RKT_RKT0_, symObjAddr: 0x217C8, symBinAddr: 0x100024AE8, symSize: 0x140 }
  - { offset: 0x46A9B, size: 0x8, addend: 0x0, symName: __ZN5boost17mutate_graph_implINS_14adjacency_listINS_4vecSES2_NS_9directedSENS_11no_propertyES4_S4_NS_5listSEEEE12put_propertyINS_6detail14edge_desc_implINS_12directed_tagEmEENS_3mpl6vectorIbilfdNSt3__112basic_stringIcNSF_11char_traitsIcEENSF_9allocatorIcEEEEN4mpl_2naESN_SN_SN_SN_SN_SN_SN_SN_SN_SN_SN_SN_SN_EEEC2ERKSL_RNS_18dynamic_propertiesERKSC_SR_SR_PPKcRb, symObjAddr: 0x219A0, symBinAddr: 0x100024CC0, symSize: 0x68 }
  - { offset: 0x46B27, size: 0x8, addend: 0x0, symName: __ZN5boost17mutate_graph_implINS_14adjacency_listINS_4vecSES2_NS_9directedSENS_11no_propertyES4_S4_NS_5listSEEEED2Ev, symObjAddr: 0x21A08, symBinAddr: 0x100024D28, symSize: 0x2C }
  - { offset: 0x46B53, size: 0x8, addend: 0x0, symName: __ZN5boost12mutate_graphD2Ev, symObjAddr: 0x21A34, symBinAddr: 0x100024D54, symSize: 0x14 }
  - { offset: 0x46B7D, size: 0x8, addend: 0x0, symName: __ZNK5boost17vec_adj_list_implINS_14adjacency_listINS_4vecSES2_NS_9directedSENS_11no_propertyES4_S4_NS_5listSEEENS_6detail12adj_list_genIS6_S2_S2_S3_S4_S4_S4_S5_E6configENS_21directed_graph_helperISA_EEE10vertex_setEv, symObjAddr: 0x21A48, symBinAddr: 0x100024D68, symSize: 0x40 }
  - { offset: 0x46BA3, size: 0x8, addend: 0x0, symName: __ZNK5boost21iterator_range_detail19iterator_range_baseINS_12range_detail16integer_iteratorImEENS_9iterators27random_access_traversal_tagEE4sizeEv, symObjAddr: 0x21A88, symBinAddr: 0x100024DA8, symSize: 0x2C }
  - { offset: 0x46BC9, size: 0x8, addend: 0x0, symName: __ZN5boost13integer_rangeImEC1Emm, symObjAddr: 0x21AB4, symBinAddr: 0x100024DD4, symSize: 0x3C }
  - { offset: 0x46C0F, size: 0x8, addend: 0x0, symName: __ZN5boost13integer_rangeImEC2Emm, symObjAddr: 0x21AF0, symBinAddr: 0x100024E10, symSize: 0x58 }
  - { offset: 0x46C55, size: 0x8, addend: 0x0, symName: __ZN5boost12range_detail16integer_iteratorImEC1Em, symObjAddr: 0x21B48, symBinAddr: 0x100024E68, symSize: 0x34 }
  - { offset: 0x46C8D, size: 0x8, addend: 0x0, symName: __ZN5boost14iterator_rangeINS_12range_detail16integer_iteratorImEEEC2IS3_EET_S6_, symObjAddr: 0x21B7C, symBinAddr: 0x100024E9C, symSize: 0x4C }
  - { offset: 0x46CDE, size: 0x8, addend: 0x0, symName: __ZN5boost12range_detail16integer_iteratorImEC2Em, symObjAddr: 0x21BC8, symBinAddr: 0x100024EE8, symSize: 0x20 }
  - { offset: 0x46D16, size: 0x8, addend: 0x0, symName: __ZN5boost21iterator_range_detail19iterator_range_baseINS_12range_detail16integer_iteratorImEENS_9iterators27random_access_traversal_tagEEC2IS4_EET_S9_, symObjAddr: 0x21BE8, symBinAddr: 0x100024F08, symSize: 0x4C }
  - { offset: 0x46D67, size: 0x8, addend: 0x0, symName: __ZN5boost21iterator_range_detail19iterator_range_baseINS_12range_detail16integer_iteratorImEENS_9iterators27bidirectional_traversal_tagEEC2IS4_EET_S9_, symObjAddr: 0x21C34, symBinAddr: 0x100024F54, symSize: 0x4C }
  - { offset: 0x46DB8, size: 0x8, addend: 0x0, symName: __ZN5boost21iterator_range_detail19iterator_range_baseINS_12range_detail16integer_iteratorImEENS_9iterators27incrementable_traversal_tagEEC2IS4_EET_S9_, symObjAddr: 0x21C80, symBinAddr: 0x100024FA0, symSize: 0x2C }
  - { offset: 0x46E0D, size: 0x8, addend: 0x0, symName: __ZN5boost9iterators20iterator_core_access13distance_fromINS_12range_detail16integer_iteratorImEES5_EENT_15difference_typeERKS6_RKT0_NSt3__117integral_constantIbLb1EEE, symObjAddr: 0x21CD8, symBinAddr: 0x100024FF8, symSize: 0x34 }
  - { offset: 0x46E5E, size: 0x8, addend: 0x0, symName: __ZNK5boost12range_detail16integer_iteratorImE11distance_toERKS2_, symObjAddr: 0x21D0C, symBinAddr: 0x10002502C, symSize: 0x7C }
  - { offset: 0x46E92, size: 0x8, addend: 0x0, symName: __ZN5boost12range_detail16integer_iteratorImEC1Ev, symObjAddr: 0x21D88, symBinAddr: 0x1000250A8, symSize: 0x2C }
  - { offset: 0x46F2A, size: 0x8, addend: 0x0, symName: __ZN5boost6tuples5tupleIRNS_12range_detail16integer_iteratorImEES5_NS0_9null_typeES6_S6_S6_S6_S6_S6_S6_EaSIS4_S4_EERS7_RKNSt3__14pairIT_T0_EE, symObjAddr: 0x21DF4, symBinAddr: 0x100025114, symSize: 0x38 }
  - { offset: 0x46F71, size: 0x8, addend: 0x0, symName: __ZN5boost12range_detail16integer_iteratorImEC2Ev, symObjAddr: 0x21E64, symBinAddr: 0x100025184, symSize: 0x18 }
  - { offset: 0x46F9B, size: 0x8, addend: 0x0, symName: __ZN5boost6tuples5tupleIRNS_12range_detail16integer_iteratorImEES5_NS0_9null_typeES6_S6_S6_S6_S6_S6_S6_EC1ES5_S5_, symObjAddr: 0x21E7C, symBinAddr: 0x10002519C, symSize: 0x3C }
  - { offset: 0x46FE3, size: 0x8, addend: 0x0, symName: __ZN5boost6tuples5tupleIRNS_12range_detail16integer_iteratorImEES5_NS0_9null_typeES6_S6_S6_S6_S6_S6_S6_EC2ES5_S5_, symObjAddr: 0x21EB8, symBinAddr: 0x1000251D8, symSize: 0xA0 }
  - { offset: 0x4702B, size: 0x8, addend: 0x0, symName: __ZN5boost6tuples4consIRNS_12range_detail16integer_iteratorImEENS1_IS5_NS0_9null_typeEEEEC2IS4_S4_KS6_SA_SA_SA_SA_SA_SA_SA_EERT_RT0_RT1_RT2_RT3_RT4_RT5_RT6_RT7_RT8_, symObjAddr: 0x21F58, symBinAddr: 0x100025278, symSize: 0xF4 }
  - { offset: 0x47148, size: 0x8, addend: 0x0, symName: __ZN5boost6tuples4consIRNS_12range_detail16integer_iteratorImEENS0_9null_typeEEC1IS4_EERT_RKS6_SC_SC_SC_SC_SC_SC_SC_SC_, symObjAddr: 0x2204C, symBinAddr: 0x10002536C, symSize: 0x98 }
  - { offset: 0x471F7, size: 0x8, addend: 0x0, symName: __ZN5boost6tuples4consIRNS_12range_detail16integer_iteratorImEENS0_9null_typeEEC2IS4_EERT_RKS6_SC_SC_SC_SC_SC_SC_SC_SC_, symObjAddr: 0x220E4, symBinAddr: 0x100025404, symSize: 0x50 }
  - { offset: 0x472A9, size: 0x8, addend: 0x0, symName: __ZNK5boost17vec_adj_list_implINS_14adjacency_listINS_4vecSES2_NS_9directedSENS_11no_propertyES4_S4_NS_5listSEEENS_6detail12adj_list_genIS6_S2_S2_S3_S4_S4_S4_S5_E6configENS_21directed_graph_helperISA_EEE13out_edge_listEm, symObjAddr: 0x22134, symBinAddr: 0x100025454, symSize: 0x30 }
  - { offset: 0x472DE, size: 0x8, addend: 0x0, symName: __ZNKSt3__16vectorIN5boost6detail12adj_list_genINS1_14adjacency_listINS1_4vecSES5_NS1_9directedSENS1_11no_propertyES7_S7_NS1_5listSEEES5_S5_S6_S7_S7_S7_S8_E6config13stored_vertexENS_9allocatorISC_EEEixB8ne180100Em, symObjAddr: 0x22164, symBinAddr: 0x100025484, symSize: 0x24 }
  - { offset: 0x4731B, size: 0x8, addend: 0x0, symName: __ZNSt3__14pairIN5boost12range_detail16integer_iteratorImEES4_EC1B8ne180100IS4_S4_Li0EEEOT_OT0_, symObjAddr: 0x221C0, symBinAddr: 0x1000254E0, symSize: 0x3C }
  - { offset: 0x47379, size: 0x8, addend: 0x0, symName: __ZNSt3__14pairIN5boost12range_detail16integer_iteratorImEES4_EC2B8ne180100IS4_S4_Li0EEEOT_OT0_, symObjAddr: 0x221FC, symBinAddr: 0x10002551C, symSize: 0x34 }
  - { offset: 0x473D7, size: 0x8, addend: 0x0, symName: __ZN5boost14iterator_rangeINS_12range_detail16integer_iteratorImEEEC1INSt3__14pairIS3_S3_EEEERKT_NS_21iterator_range_detail15const_range_tagE, symObjAddr: 0x22230, symBinAddr: 0x100025550, symSize: 0x34 }
  - { offset: 0x47425, size: 0x8, addend: 0x0, symName: __ZN5boost14iterator_rangeINS_12range_detail16integer_iteratorImEEEC2INSt3__14pairIS3_S3_EEEERKT_NS_21iterator_range_detail15const_range_tagE, symObjAddr: 0x22264, symBinAddr: 0x100025584, symSize: 0x58 }
  - { offset: 0x47473, size: 0x8, addend: 0x0, symName: __ZN5boost21iterator_range_detail19iterator_range_implINS_12range_detail16integer_iteratorImEEE9adl_beginIKNSt3__14pairIS4_S4_EEEES4_RT_, symObjAddr: 0x222BC, symBinAddr: 0x1000255DC, symSize: 0x2C }
  - { offset: 0x4749F, size: 0x8, addend: 0x0, symName: __ZN5boost21iterator_range_detail19iterator_range_implINS_12range_detail16integer_iteratorImEEE7adl_endIKNSt3__14pairIS4_S4_EEEES4_RT_, symObjAddr: 0x222E8, symBinAddr: 0x100025608, symSize: 0x2C }
  - { offset: 0x474CB, size: 0x8, addend: 0x0, symName: __ZN5boost9iterators20iterator_core_access5equalINS_12range_detail16integer_iteratorImEES5_EEbRKT_RKT0_NSt3__117integral_constantIbLb1EEE, symObjAddr: 0x223AC, symBinAddr: 0x1000256CC, symSize: 0x30 }
  - { offset: 0x4751C, size: 0x8, addend: 0x0, symName: __ZNK5boost12range_detail16integer_iteratorImE5equalERKS2_, symObjAddr: 0x223DC, symBinAddr: 0x1000256FC, symSize: 0x30 }
  - { offset: 0x47550, size: 0x8, addend: 0x0, symName: __ZN5boost9iterators20iterator_core_access9incrementINS_12range_detail16integer_iteratorImEEEEvRT_, symObjAddr: 0x2240C, symBinAddr: 0x10002572C, symSize: 0x24 }
  - { offset: 0x4757D, size: 0x8, addend: 0x0, symName: __ZN5boost9iterators6detail20iterator_facade_baseINS_12range_detail16integer_iteratorImEEmNS0_27random_access_traversal_tagEmlLb0ELb0EE7derivedEv, symObjAddr: 0x22430, symBinAddr: 0x100025750, symSize: 0x14 }
  - { offset: 0x475A3, size: 0x8, addend: 0x0, symName: __ZN5boost12range_detail16integer_iteratorImE9incrementEv, symObjAddr: 0x22444, symBinAddr: 0x100025764, symSize: 0x20 }
  - { offset: 0x475C9, size: 0x8, addend: 0x0, symName: __ZN5boost9iterators20iterator_core_access11dereferenceINS_12range_detail16integer_iteratorImEEEENT_9referenceERKS6_, symObjAddr: 0x22464, symBinAddr: 0x100025784, symSize: 0x24 }
  - { offset: 0x475F6, size: 0x8, addend: 0x0, symName: __ZNK5boost9iterators6detail20iterator_facade_baseINS_12range_detail16integer_iteratorImEEmNS0_27random_access_traversal_tagEmlLb0ELb0EE7derivedEv, symObjAddr: 0x22488, symBinAddr: 0x1000257A8, symSize: 0x14 }
  - { offset: 0x4761C, size: 0x8, addend: 0x0, symName: __ZNK5boost12range_detail16integer_iteratorImE11dereferenceEv, symObjAddr: 0x2249C, symBinAddr: 0x1000257BC, symSize: 0x18 }
  - { offset: 0x47642, size: 0x8, addend: 0x0, symName: __ZN5boost6detail22adj_list_edge_iteratorINS_12range_detail16integer_iteratorImEENS0_13out_edge_iterINSt3__111__wrap_iterIPNS0_20stored_edge_propertyImNS_11no_propertyEEEEEmNS0_14edge_desc_implINS_12directed_tagEmEElEENS_14adjacency_listINS_4vecSESI_NS_9directedSES9_S9_S9_NS_5listSEEEEC1ISL_EES4_S4_S4_RKT_, symObjAddr: 0x224F4, symBinAddr: 0x100025814, symSize: 0x4C }
  - { offset: 0x476B3, size: 0x8, addend: 0x0, symName: __ZNSt3__14pairIN5boost6detail22adj_list_edge_iteratorINS1_12range_detail16integer_iteratorImEENS2_13out_edge_iterINS_11__wrap_iterIPNS2_20stored_edge_propertyImNS1_11no_propertyEEEEEmNS2_14edge_desc_implINS1_12directed_tagEmEElEENS1_14adjacency_listINS1_4vecSESJ_NS1_9directedSESA_SA_SA_NS1_5listSEEEEESN_EC1B8ne180100ISN_SN_Li0EEEOT_OT0_, symObjAddr: 0x22540, symBinAddr: 0x100025860, symSize: 0x3C }
  - { offset: 0x47711, size: 0x8, addend: 0x0, symName: __ZNSt3__14pairIN5boost6detail22adj_list_edge_iteratorINS1_12range_detail16integer_iteratorImEENS2_13out_edge_iterINS_11__wrap_iterIPNS2_20stored_edge_propertyImNS1_11no_propertyEEEEEmNS2_14edge_desc_implINS1_12directed_tagEmEElEENS1_14adjacency_listINS1_4vecSESJ_NS1_9directedSESA_SA_SA_NS1_5listSEEEEESN_EC2B8ne180100ISN_SN_Li0EEEOT_OT0_, symObjAddr: 0x2257C, symBinAddr: 0x10002589C, symSize: 0x70 }
  - { offset: 0x4776F, size: 0x8, addend: 0x0, symName: __ZN5boost6detail22adj_list_edge_iteratorINS_12range_detail16integer_iteratorImEENS0_13out_edge_iterINSt3__111__wrap_iterIPNS0_20stored_edge_propertyImNS_11no_propertyEEEEEmNS0_14edge_desc_implINS_12directed_tagEmEElEENS_14adjacency_listINS_4vecSESI_NS_9directedSES9_S9_S9_NS_5listSEEEEC1ERKSM_, symObjAddr: 0x225EC, symBinAddr: 0x10002590C, symSize: 0x34 }
  - { offset: 0x477A7, size: 0x8, addend: 0x0, symName: __ZN5boost6detail22adj_list_edge_iteratorINS_12range_detail16integer_iteratorImEENS0_13out_edge_iterINSt3__111__wrap_iterIPNS0_20stored_edge_propertyImNS_11no_propertyEEEEEmNS0_14edge_desc_implINS_12directed_tagEmEElEENS_14adjacency_listINS_4vecSESI_NS_9directedSES9_S9_S9_NS_5listSEEEEC2ERKSM_, symObjAddr: 0x22620, symBinAddr: 0x100025940, symSize: 0x6C }
  - { offset: 0x477DF, size: 0x8, addend: 0x0, symName: __ZN5boost8optionalINSt3__14pairINS_6detail13out_edge_iterINS1_11__wrap_iterIPNS3_20stored_edge_propertyImNS_11no_propertyEEEEEmNS3_14edge_desc_implINS_12directed_tagEmEElEESE_EEEC1ERKSG_, symObjAddr: 0x2268C, symBinAddr: 0x1000259AC, symSize: 0x34 }
  - { offset: 0x47815, size: 0x8, addend: 0x0, symName: __ZN5boost8optionalINSt3__14pairINS_6detail13out_edge_iterINS1_11__wrap_iterIPNS3_20stored_edge_propertyImNS_11no_propertyEEEEEmNS3_14edge_desc_implINS_12directed_tagEmEElEESE_EEEC2ERKSG_, symObjAddr: 0x226C0, symBinAddr: 0x1000259E0, symSize: 0x34 }
  - { offset: 0x4784B, size: 0x8, addend: 0x0, symName: __ZN5boost15optional_detail13optional_baseINSt3__14pairINS_6detail13out_edge_iterINS2_11__wrap_iterIPNS4_20stored_edge_propertyImNS_11no_propertyEEEEEmNS4_14edge_desc_implINS_12directed_tagEmEElEESF_EEEC2ERKSH_, symObjAddr: 0x226F4, symBinAddr: 0x100025A14, symSize: 0x60 }
  - { offset: 0x47883, size: 0x8, addend: 0x0, symName: __ZNK5boost15optional_detail13optional_baseINSt3__14pairINS_6detail13out_edge_iterINS2_11__wrap_iterIPNS4_20stored_edge_propertyImNS_11no_propertyEEEEEmNS4_14edge_desc_implINS_12directed_tagEmEElEESF_EEE14is_initializedEv, symObjAddr: 0x22754, symBinAddr: 0x100025A74, symSize: 0x1C }
  - { offset: 0x478A9, size: 0x8, addend: 0x0, symName: __ZN5boost15optional_detail13optional_baseINSt3__14pairINS_6detail13out_edge_iterINS2_11__wrap_iterIPNS4_20stored_edge_propertyImNS_11no_propertyEEEEEmNS4_14edge_desc_implINS_12directed_tagEmEElEESF_EEE9constructERKSG_, symObjAddr: 0x22770, symBinAddr: 0x100025A90, symSize: 0x50 }
  - { offset: 0x478DE, size: 0x8, addend: 0x0, symName: __ZNK5boost15optional_detail13optional_baseINSt3__14pairINS_6detail13out_edge_iterINS2_11__wrap_iterIPNS4_20stored_edge_propertyImNS_11no_propertyEEEEEmNS4_14edge_desc_implINS_12directed_tagEmEElEESF_EEE8get_implEv, symObjAddr: 0x227C0, symBinAddr: 0x100025AE0, symSize: 0x28 }
  - { offset: 0x47904, size: 0x8, addend: 0x0, symName: __ZNK5boost15optional_detail15aligned_storageINSt3__14pairINS_6detail13out_edge_iterINS2_11__wrap_iterIPNS4_20stored_edge_propertyImNS_11no_propertyEEEEEmNS4_14edge_desc_implINS_12directed_tagEmEElEESF_EEE3refEv, symObjAddr: 0x227E8, symBinAddr: 0x100025B08, symSize: 0x28 }
  - { offset: 0x4792A, size: 0x8, addend: 0x0, symName: __ZNK5boost15optional_detail15aligned_storageINSt3__14pairINS_6detail13out_edge_iterINS2_11__wrap_iterIPNS4_20stored_edge_propertyImNS_11no_propertyEEEEEmNS4_14edge_desc_implINS_12directed_tagEmEElEESF_EEE7ptr_refEv, symObjAddr: 0x22824, symBinAddr: 0x100025B44, symSize: 0x2C }
  - { offset: 0x4797D, size: 0x8, addend: 0x0, symName: __ZNK5boost15optional_detail15aligned_storageINSt3__14pairINS_6detail13out_edge_iterINS2_11__wrap_iterIPNS4_20stored_edge_propertyImNS_11no_propertyEEEEEmNS4_14edge_desc_implINS_12directed_tagEmEElEESF_EEE7addressEv, symObjAddr: 0x22850, symBinAddr: 0x100025B70, symSize: 0x14 }
  - { offset: 0x479A3, size: 0x8, addend: 0x0, symName: __ZN5boost6detail22adj_list_edge_iteratorINS_12range_detail16integer_iteratorImEENS0_13out_edge_iterINSt3__111__wrap_iterIPNS0_20stored_edge_propertyImNS_11no_propertyEEEEEmNS0_14edge_desc_implINS_12directed_tagEmEElEENS_14adjacency_listINS_4vecSESI_NS_9directedSES9_S9_S9_NS_5listSEEEEC2ISL_EES4_S4_S4_RKT_, symObjAddr: 0x22864, symBinAddr: 0x100025B84, symSize: 0x1AC }
  - { offset: 0x47A0E, size: 0x8, addend: 0x0, symName: __ZN5boost8optionalINSt3__14pairINS_6detail13out_edge_iterINS1_11__wrap_iterIPNS3_20stored_edge_propertyImNS_11no_propertyEEEEEmNS3_14edge_desc_implINS_12directed_tagEmEElEESE_EEEC1Ev, symObjAddr: 0x22A10, symBinAddr: 0x100025D30, symSize: 0x2C }
  - { offset: 0x47A38, size: 0x8, addend: 0x0, symName: __ZN5boost8optionalINSt3__14pairINS_6detail13out_edge_iterINS1_11__wrap_iterIPNS3_20stored_edge_propertyImNS_11no_propertyEEEEEmNS3_14edge_desc_implINS_12directed_tagEmEElEESE_EEEaSISF_EENS_9enable_ifINS_7is_sameISF_NS_5decayIT_E4typeEEERSG_E4typeEOSL_, symObjAddr: 0x22AD8, symBinAddr: 0x100025DF8, symSize: 0x40 }
  - { offset: 0x47A76, size: 0x8, addend: 0x0, symName: __ZN5boost8optionalINSt3__14pairINS_6detail13out_edge_iterINS1_11__wrap_iterIPNS3_20stored_edge_propertyImNS_11no_propertyEEEEEmNS3_14edge_desc_implINS_12directed_tagEmEElEESE_EEEC2Ev, symObjAddr: 0x22B18, symBinAddr: 0x100025E38, symSize: 0x34 }
  - { offset: 0x47AA0, size: 0x8, addend: 0x0, symName: __ZN5boost15optional_detail13optional_baseINSt3__14pairINS_6detail13out_edge_iterINS2_11__wrap_iterIPNS4_20stored_edge_propertyImNS_11no_propertyEEEEEmNS4_14edge_desc_implINS_12directed_tagEmEElEESF_EEEC2Ev, symObjAddr: 0x22B4C, symBinAddr: 0x100025E6C, symSize: 0x18 }
  - { offset: 0x47ACA, size: 0x8, addend: 0x0, symName: __ZNSt3__16vectorIN5boost6detail20stored_edge_propertyImNS1_11no_propertyEEENS_9allocatorIS5_EEE5beginB8ne180100Ev, symObjAddr: 0x22B9C, symBinAddr: 0x100025EBC, symSize: 0x30 }
  - { offset: 0x47AF2, size: 0x8, addend: 0x0, symName: __ZN5boost6detail13out_edge_iterINSt3__111__wrap_iterIPNS0_20stored_edge_propertyImNS_11no_propertyEEEEEmNS0_14edge_desc_implINS_12directed_tagEmEElEC1ERKS8_RKm, symObjAddr: 0x22BCC, symBinAddr: 0x100025EEC, symSize: 0x3C }
  - { offset: 0x47B3E, size: 0x8, addend: 0x0, symName: __ZNSt3__14pairIN5boost6detail13out_edge_iterINS_11__wrap_iterIPNS2_20stored_edge_propertyImNS1_11no_propertyEEEEEmNS2_14edge_desc_implINS1_12directed_tagEmEElEESD_EC1B8ne180100ISD_SD_Li0EEEOT_OT0_, symObjAddr: 0x22C08, symBinAddr: 0x100025F28, symSize: 0x3C }
  - { offset: 0x47B9C, size: 0x8, addend: 0x0, symName: __ZNSt3__14pairIN5boost6detail13out_edge_iterINS_11__wrap_iterIPNS2_20stored_edge_propertyImNS1_11no_propertyEEEEEmNS2_14edge_desc_implINS1_12directed_tagEmEElEESD_EC2B8ne180100ISD_SD_Li0EEEOT_OT0_, symObjAddr: 0x22C44, symBinAddr: 0x100025F64, symSize: 0x34 }
  - { offset: 0x47BFA, size: 0x8, addend: 0x0, symName: __ZN5boost6detail13out_edge_iterINSt3__111__wrap_iterIPNS0_20stored_edge_propertyImNS_11no_propertyEEEEEmNS0_14edge_desc_implINS_12directed_tagEmEElEC2ERKS8_RKm, symObjAddr: 0x22C78, symBinAddr: 0x100025F98, symSize: 0x44 }
  - { offset: 0x47C40, size: 0x8, addend: 0x0, symName: __ZN5boost9iterators16iterator_adaptorINS_6detail13out_edge_iterINSt3__111__wrap_iterIPNS2_20stored_edge_propertyImNS_11no_propertyEEEEEmNS2_14edge_desc_implINS_12directed_tagEmEElEESA_SD_NS_11use_defaultESD_lEC2ERKSA_, symObjAddr: 0x22CBC, symBinAddr: 0x100025FDC, symSize: 0x24 }
  - { offset: 0x47C78, size: 0x8, addend: 0x0, symName: __ZN5boost15optional_detail13optional_baseINSt3__14pairINS_6detail13out_edge_iterINS2_11__wrap_iterIPNS4_20stored_edge_propertyImNS_11no_propertyEEEEEmNS4_14edge_desc_implINS_12directed_tagEmEElEESF_EEE6assignEOSG_, symObjAddr: 0x22CE0, symBinAddr: 0x100026000, symSize: 0x64 }
  - { offset: 0x47CAD, size: 0x8, addend: 0x0, symName: __ZN5boost15optional_detail13optional_baseINSt3__14pairINS_6detail13out_edge_iterINS2_11__wrap_iterIPNS4_20stored_edge_propertyImNS_11no_propertyEEEEEmNS4_14edge_desc_implINS_12directed_tagEmEElEESF_EEE12assign_valueEOSG_, symObjAddr: 0x22D58, symBinAddr: 0x100026078, symSize: 0x38 }
  - { offset: 0x47CE2, size: 0x8, addend: 0x0, symName: __ZN5boost15optional_detail13optional_baseINSt3__14pairINS_6detail13out_edge_iterINS2_11__wrap_iterIPNS4_20stored_edge_propertyImNS_11no_propertyEEEEEmNS4_14edge_desc_implINS_12directed_tagEmEElEESF_EEE9constructEOSG_, symObjAddr: 0x22DA4, symBinAddr: 0x1000260C4, symSize: 0x60 }
  - { offset: 0x47D17, size: 0x8, addend: 0x0, symName: __ZN5boost15optional_detail13optional_baseINSt3__14pairINS_6detail13out_edge_iterINS2_11__wrap_iterIPNS4_20stored_edge_propertyImNS_11no_propertyEEEEEmNS4_14edge_desc_implINS_12directed_tagEmEElEESF_EEE8get_implEv, symObjAddr: 0x22E04, symBinAddr: 0x100026124, symSize: 0x28 }
  - { offset: 0x47D3D, size: 0x8, addend: 0x0, symName: __ZNSt3__14pairIN5boost6detail13out_edge_iterINS_11__wrap_iterIPNS2_20stored_edge_propertyImNS1_11no_propertyEEEEEmNS2_14edge_desc_implINS1_12directed_tagEmEElEESD_EaSB8ne180100EOSE_, symObjAddr: 0x22E2C, symBinAddr: 0x10002614C, symSize: 0x30 }
  - { offset: 0x47D72, size: 0x8, addend: 0x0, symName: __ZN5boost14iterator_rangeINS_6detail22adj_list_edge_iteratorINS_12range_detail16integer_iteratorImEENS1_13out_edge_iterINSt3__111__wrap_iterIPNS1_20stored_edge_propertyImNS_11no_propertyEEEEEmNS1_14edge_desc_implINS_12directed_tagEmEElEENS_14adjacency_listINS_4vecSESJ_NS_9directedSESA_SA_SA_NS_5listSEEEEEEC1INS7_4pairISN_SN_EEEERKT_NS_21iterator_range_detail15const_range_tagE, symObjAddr: 0x22E5C, symBinAddr: 0x10002617C, symSize: 0x34 }
  - { offset: 0x47DC0, size: 0x8, addend: 0x0, symName: __ZN5boost14iterator_rangeINS_6detail22adj_list_edge_iteratorINS_12range_detail16integer_iteratorImEENS1_13out_edge_iterINSt3__111__wrap_iterIPNS1_20stored_edge_propertyImNS_11no_propertyEEEEEmNS1_14edge_desc_implINS_12directed_tagEmEElEENS_14adjacency_listINS_4vecSESJ_NS_9directedSESA_SA_SA_NS_5listSEEEEEEC2INS7_4pairISN_SN_EEEERKT_NS_21iterator_range_detail15const_range_tagE, symObjAddr: 0x22E90, symBinAddr: 0x1000261B0, symSize: 0xF4 }
  - { offset: 0x47E0E, size: 0x8, addend: 0x0, symName: __ZN5boost21iterator_range_detail19iterator_range_implINS_6detail22adj_list_edge_iteratorINS_12range_detail16integer_iteratorImEENS2_13out_edge_iterINSt3__111__wrap_iterIPNS2_20stored_edge_propertyImNS_11no_propertyEEEEEmNS2_14edge_desc_implINS_12directed_tagEmEElEENS_14adjacency_listINS_4vecSESK_NS_9directedSESB_SB_SB_NS_5listSEEEEEE9adl_beginIKNS8_4pairISO_SO_EEEESO_RT_, symObjAddr: 0x22F84, symBinAddr: 0x1000262A4, symSize: 0x2C }
  - { offset: 0x47E3A, size: 0x8, addend: 0x0, symName: __ZN5boost21iterator_range_detail19iterator_range_implINS_6detail22adj_list_edge_iteratorINS_12range_detail16integer_iteratorImEENS2_13out_edge_iterINSt3__111__wrap_iterIPNS2_20stored_edge_propertyImNS_11no_propertyEEEEEmNS2_14edge_desc_implINS_12directed_tagEmEElEENS_14adjacency_listINS_4vecSESK_NS_9directedSESB_SB_SB_NS_5listSEEEEEE7adl_endIKNS8_4pairISO_SO_EEEESO_RT_, symObjAddr: 0x22FB0, symBinAddr: 0x1000262D0, symSize: 0x2C }
  - { offset: 0x47E66, size: 0x8, addend: 0x0, symName: __ZN5boost21iterator_range_detail19iterator_range_baseINS_6detail22adj_list_edge_iteratorINS_12range_detail16integer_iteratorImEENS2_13out_edge_iterINSt3__111__wrap_iterIPNS2_20stored_edge_propertyImNS_11no_propertyEEEEEmNS2_14edge_desc_implINS_12directed_tagEmEElEENS_14adjacency_listINS_4vecSESK_NS_9directedSESB_SB_SB_NS_5listSEEEEENS_9iterators27incrementable_traversal_tagEEC2ISO_EET_ST_, symObjAddr: 0x22FDC, symBinAddr: 0x1000262FC, symSize: 0x74 }
  - { offset: 0x47EB7, size: 0x8, addend: 0x0, symName: __ZNK5boost8optionalINSt3__14pairINS_6detail13out_edge_iterINS1_11__wrap_iterIPNS3_20stored_edge_propertyImNS_11no_propertyEEEEEmNS3_14edge_desc_implINS_12directed_tagEmEElEESE_EEEptEv, symObjAddr: 0x23150, symBinAddr: 0x100026470, symSize: 0x5C }
  - { offset: 0x47EDD, size: 0x8, addend: 0x0, symName: __ZN5boost9iterators20iterator_core_access5equalINS_6detail13out_edge_iterINSt3__111__wrap_iterIPNS3_20stored_edge_propertyImNS_11no_propertyEEEEEmNS3_14edge_desc_implINS_12directed_tagEmEElEESF_EEbRKT_RKT0_NS5_17integral_constantIbLb1EEE, symObjAddr: 0x231AC, symBinAddr: 0x1000264CC, symSize: 0x30 }
  - { offset: 0x47F34, size: 0x8, addend: 0x0, symName: __ZNK5boost9iterators16iterator_adaptorINS_6detail13out_edge_iterINSt3__111__wrap_iterIPNS2_20stored_edge_propertyImNS_11no_propertyEEEEEmNS2_14edge_desc_implINS_12directed_tagEmEElEESA_SD_NS_11use_defaultESD_lE5equalISE_SA_SD_SF_SD_lEEbRKNS1_IT_T0_T1_T2_T3_T4_EE, symObjAddr: 0x231DC, symBinAddr: 0x1000264FC, symSize: 0x40 }
  - { offset: 0x47F9E, size: 0x8, addend: 0x0, symName: __ZNK5boost9iterators16iterator_adaptorINS_6detail13out_edge_iterINSt3__111__wrap_iterIPNS2_20stored_edge_propertyImNS_11no_propertyEEEEEmNS2_14edge_desc_implINS_12directed_tagEmEElEESA_SD_NS_11use_defaultESD_lE4baseEv, symObjAddr: 0x23264, symBinAddr: 0x100026584, symSize: 0x14 }
  - { offset: 0x47FC4, size: 0x8, addend: 0x0, symName: __ZNKSt3__111__wrap_iterIPN5boost6detail20stored_edge_propertyImNS1_11no_propertyEEEE4baseB8ne180100Ev, symObjAddr: 0x23278, symBinAddr: 0x100026598, symSize: 0x18 }
  - { offset: 0x47FEA, size: 0x8, addend: 0x0, symName: __ZNK5boost15optional_detail13optional_baseINSt3__14pairINS_6detail13out_edge_iterINS2_11__wrap_iterIPNS4_20stored_edge_propertyImNS_11no_propertyEEEEEmNS4_14edge_desc_implINS_12directed_tagEmEElEESF_EEE12get_ptr_implEv, symObjAddr: 0x23290, symBinAddr: 0x1000265B0, symSize: 0x28 }
  - { offset: 0x48010, size: 0x8, addend: 0x0, symName: __ZN5boost8optionalINSt3__14pairINS_6detail13out_edge_iterINS1_11__wrap_iterIPNS3_20stored_edge_propertyImNS_11no_propertyEEEEEmNS3_14edge_desc_implINS_12directed_tagEmEElEESE_EEEptEv, symObjAddr: 0x232B8, symBinAddr: 0x1000265D8, symSize: 0x5C }
  - { offset: 0x48036, size: 0x8, addend: 0x0, symName: __ZN5boost9iterators6detail20iterator_facade_baseINS_6detail13out_edge_iterINSt3__111__wrap_iterIPNS3_20stored_edge_propertyImNS_11no_propertyEEEEEmNS3_14edge_desc_implINS_12directed_tagEmEElEESE_NS0_27random_access_traversal_tagESE_lLb0ELb0EEppEv, symObjAddr: 0x23314, symBinAddr: 0x100026634, symSize: 0x34 }
  - { offset: 0x4805C, size: 0x8, addend: 0x0, symName: __ZN5boost15optional_detail13optional_baseINSt3__14pairINS_6detail13out_edge_iterINS2_11__wrap_iterIPNS4_20stored_edge_propertyImNS_11no_propertyEEEEEmNS4_14edge_desc_implINS_12directed_tagEmEElEESF_EEE12get_ptr_implEv, symObjAddr: 0x23378, symBinAddr: 0x100026698, symSize: 0x28 }
  - { offset: 0x48082, size: 0x8, addend: 0x0, symName: __ZN5boost9iterators20iterator_core_access9incrementINS_6detail13out_edge_iterINSt3__111__wrap_iterIPNS3_20stored_edge_propertyImNS_11no_propertyEEEEEmNS3_14edge_desc_implINS_12directed_tagEmEElEEEEvRT_, symObjAddr: 0x233A0, symBinAddr: 0x1000266C0, symSize: 0x24 }
  - { offset: 0x480AF, size: 0x8, addend: 0x0, symName: __ZN5boost9iterators6detail20iterator_facade_baseINS_6detail13out_edge_iterINSt3__111__wrap_iterIPNS3_20stored_edge_propertyImNS_11no_propertyEEEEEmNS3_14edge_desc_implINS_12directed_tagEmEElEESE_NS0_27random_access_traversal_tagESE_lLb0ELb0EE7derivedEv, symObjAddr: 0x233C4, symBinAddr: 0x1000266E4, symSize: 0x14 }
  - { offset: 0x480D5, size: 0x8, addend: 0x0, symName: __ZN5boost9iterators16iterator_adaptorINS_6detail13out_edge_iterINSt3__111__wrap_iterIPNS2_20stored_edge_propertyImNS_11no_propertyEEEEEmNS2_14edge_desc_implINS_12directed_tagEmEElEESA_SD_NS_11use_defaultESD_lE9incrementEv, symObjAddr: 0x233D8, symBinAddr: 0x1000266F8, symSize: 0x24 }
  - { offset: 0x480FB, size: 0x8, addend: 0x0, symName: __ZNSt3__111__wrap_iterIPN5boost6detail20stored_edge_propertyImNS1_11no_propertyEEEEppB8ne180100Ev, symObjAddr: 0x233FC, symBinAddr: 0x10002671C, symSize: 0x20 }
  - { offset: 0x48121, size: 0x8, addend: 0x0, symName: __ZNK5boost9iterators6detail20iterator_facade_baseINS_6detail13out_edge_iterINSt3__111__wrap_iterIPNS3_20stored_edge_propertyImNS_11no_propertyEEEEEmNS3_14edge_desc_implINS_12directed_tagEmEElEESE_NS0_27random_access_traversal_tagESE_lLb0ELb0EEdeEv, symObjAddr: 0x2341C, symBinAddr: 0x10002673C, symSize: 0x30 }
  - { offset: 0x48147, size: 0x8, addend: 0x0, symName: __ZN5boost9iterators20iterator_core_access11dereferenceINS_6detail13out_edge_iterINSt3__111__wrap_iterIPNS3_20stored_edge_propertyImNS_11no_propertyEEEEEmNS3_14edge_desc_implINS_12directed_tagEmEElEEEENT_9referenceERKSG_, symObjAddr: 0x2344C, symBinAddr: 0x10002676C, symSize: 0x24 }
  - { offset: 0x48174, size: 0x8, addend: 0x0, symName: __ZNK5boost9iterators6detail20iterator_facade_baseINS_6detail13out_edge_iterINSt3__111__wrap_iterIPNS3_20stored_edge_propertyImNS_11no_propertyEEEEEmNS3_14edge_desc_implINS_12directed_tagEmEElEESE_NS0_27random_access_traversal_tagESE_lLb0ELb0EE7derivedEv, symObjAddr: 0x23470, symBinAddr: 0x100026790, symSize: 0x14 }
  - { offset: 0x4819A, size: 0x8, addend: 0x0, symName: __ZNK5boost6detail13out_edge_iterINSt3__111__wrap_iterIPNS0_20stored_edge_propertyImNS_11no_propertyEEEEEmNS0_14edge_desc_implINS_12directed_tagEmEElE11dereferenceEv, symObjAddr: 0x23484, symBinAddr: 0x1000267A4, symSize: 0x6C }
  - { offset: 0x481C0, size: 0x8, addend: 0x0, symName: __ZNK5boost6detail11stored_edgeImE10get_targetEv, symObjAddr: 0x234F0, symBinAddr: 0x100026810, symSize: 0x14 }
...
