---
triple:          'arm64-apple-darwin'
binary-path:     mycompiler
relocations:
  - { offset: 0x26, size: 0x8, addend: 0x0, symName: _main, symObjAddr: 0x0, symBinAddr: 0x1000039A4, symSize: 0xB8 }
  - { offset: 0x88FB, size: 0x8, addend: 0x0, symName: _main, symObjAddr: 0x0, symBinAddr: 0x1000039A4, symSize: 0xB8 }
  - { offset: 0x894F, size: 0x8, addend: 0x0, symName: __ZN9EzAquarii7ScannerC1Ev, symObjAddr: 0xB8, symBinAddr: 0x100003A5C, symSize: 0x2C }
  - { offset: 0x8977, size: 0x8, addend: 0x0, symName: __ZN9EzAquarii7ScannerD1Ev, symObjAddr: 0xE4, symBinAddr: 0x100003A88, symSize: 0x2C }
  - { offset: 0x899F, size: 0x8, addend: 0x0, symName: __ZN9EzAquarii7ScannerC2Ev, symObjAddr: 0x110, symBinAddr: 0x100003AB4, symSize: 0x44 }
  - { offset: 0x89C7, size: 0x8, addend: 0x0, symName: __ZN9EzAquarii7ScannerD2Ev, symObjAddr: 0x154, symBinAddr: 0x100003AF8, symSize: 0x2C }
  - { offset: 0xAC49, size: 0x8, addend: 0x0, symName: __ZL5yy_ec, symObjAddr: 0x5630, symBinAddr: 0x1000133E8, symSize: 0x0 }
  - { offset: 0xAC93, size: 0x8, addend: 0x0, symName: __ZL9yy_accept, symObjAddr: 0x5730, symBinAddr: 0x1000134E8, symSize: 0x0 }
  - { offset: 0xACD0, size: 0x8, addend: 0x0, symName: __ZL6yy_chk, symObjAddr: 0x5750, symBinAddr: 0x100013508, symSize: 0x0 }
  - { offset: 0xACF6, size: 0x8, addend: 0x0, symName: __ZL7yy_base, symObjAddr: 0x5784, symBinAddr: 0x10001353C, symSize: 0x0 }
  - { offset: 0xAD1C, size: 0x8, addend: 0x0, symName: __ZL6yy_def, symObjAddr: 0x57A6, symBinAddr: 0x10001355E, symSize: 0x0 }
  - { offset: 0xAD36, size: 0x8, addend: 0x0, symName: __ZL7yy_meta, symObjAddr: 0x57C8, symBinAddr: 0x100013580, symSize: 0x0 }
  - { offset: 0xAD5C, size: 0x8, addend: 0x0, symName: __ZL6yy_nxt, symObjAddr: 0x57D4, symBinAddr: 0x10001358C, symSize: 0x0 }
  - { offset: 0x10D68, size: 0x8, addend: 0x0, symName: __ZNSt3__124__put_character_sequenceB8ne180100IcNS_11char_traitsIcEEEERNS_13basic_ostreamIT_T0_EES7_PKS4_m, symObjAddr: 0x4500, symBinAddr: 0x100007FCC, symSize: 0x1EC }
  - { offset: 0x10F01, size: 0x8, addend: 0x0, symName: __ZNSt3__1lsB8ne180100INS_11char_traitsIcEEEERNS_13basic_ostreamIcT_EES6_PKc, symObjAddr: 0xBB8, symBinAddr: 0x1000046DC, symSize: 0x48 }
  - { offset: 0x10F47, size: 0x8, addend: 0x0, symName: __ZNSt3__14endlB8ne180100IcNS_11char_traitsIcEEEERNS_13basic_ostreamIT_T0_EES7_, symObjAddr: 0xC2C, symBinAddr: 0x100004750, symSize: 0x58 }
  - { offset: 0x10F88, size: 0x8, addend: 0x0, symName: __ZNSt3__112__to_addressB8ne180100IyEEPT_S2_, symObjAddr: 0x3D48, symBinAddr: 0x100007840, symSize: 0x14 }
  - { offset: 0x10FBE, size: 0x8, addend: 0x0, symName: __ZNSt3__119__libcpp_deallocateB8ne180100EPvmm, symObjAddr: 0x3DB0, symBinAddr: 0x1000078A8, symSize: 0x30 }
  - { offset: 0x11007, size: 0x8, addend: 0x0, symName: __ZNSt3__127__do_deallocate_handle_sizeB8ne180100IJEEEvPvmDpT_, symObjAddr: 0x3DE0, symBinAddr: 0x1000078D8, symSize: 0x28 }
  - { offset: 0x11047, size: 0x8, addend: 0x0, symName: __ZNSt3__124__libcpp_operator_deleteB8ne180100IJPvEEEvDpT_, symObjAddr: 0x3E08, symBinAddr: 0x100007900, symSize: 0x24 }
  - { offset: 0x1107E, size: 0x8, addend: 0x0, symName: __ZNSt3__116__pad_and_outputB8ne180100IcNS_11char_traitsIcEEEENS_19ostreambuf_iteratorIT_T0_EES6_PKS4_S8_S8_RNS_8ios_baseES4_, symObjAddr: 0x473C, symBinAddr: 0x100008208, symSize: 0x240 }
  - { offset: 0x11152, size: 0x8, addend: 0x0, symName: __ZNSt3__112__to_addressB8ne180100IKcEEPT_S3_, symObjAddr: 0x4CA4, symBinAddr: 0x100008770, symSize: 0x14 }
  - { offset: 0x111BB, size: 0x8, addend: 0x0, symName: __ZNSt3__19use_facetB8ne180100INS_5ctypeIcEEEERKT_RKNS_6localeE, symObjAddr: 0x4E78, symBinAddr: 0x100008944, symSize: 0x2C }
  - { offset: 0x1168A, size: 0x8, addend: 0x0, symName: __ZNSt3__118__constexpr_strlenB8ne180100EPKc, symObjAddr: 0x4F10, symBinAddr: 0x1000089DC, symSize: 0x24 }
  - { offset: 0x12F55, size: 0x8, addend: 0x0, symName: __ZN9EzAquarii6Parser12yytranslate_Ei, symObjAddr: 0x34D0, symBinAddr: 0x100006FC8, symSize: 0x70 }
  - { offset: 0x12F78, size: 0x8, addend: 0x0, symName: __ZZN9EzAquarii6Parser12yytranslate_EiE15translate_table, symObjAddr: 0x583E, symBinAddr: 0x1000135F6, symSize: 0x0 }
  - { offset: 0x12FF1, size: 0x8, addend: 0x0, symName: __ZN19EzAquarii_FlexLexer6yywrapEv, symObjAddr: 0x0, symBinAddr: 0x100003B24, symSize: 0x14 }
  - { offset: 0x13019, size: 0x8, addend: 0x0, symName: __ZN19EzAquarii_FlexLexer5yylexEv, symObjAddr: 0x14, symBinAddr: 0x100003B38, symSize: 0x38 }
  - { offset: 0x13041, size: 0x8, addend: 0x0, symName: __ZN9EzAquarii7Scanner14get_next_tokenEv, symObjAddr: 0x4C, symBinAddr: 0x100003B70, symSize: 0x8CC }
  - { offset: 0x13150, size: 0x8, addend: 0x0, symName: __ZNKSt3__19basic_iosIcNS_11char_traitsIcEEEntB8ne180100Ev, symObjAddr: 0x948, symBinAddr: 0x10000446C, symSize: 0x28 }
  - { offset: 0x13175, size: 0x8, addend: 0x0, symName: __ZNSt3__19basic_iosIcNS_11char_traitsIcEEE5rdbufB8ne180100EPNS_15basic_streambufIcS2_EE, symObjAddr: 0x970, symBinAddr: 0x100004494, symSize: 0x44 }
  - { offset: 0x131BB, size: 0x8, addend: 0x0, symName: __ZNKSt3__19basic_iosIcNS_11char_traitsIcEEE5rdbufB8ne180100Ev, symObjAddr: 0x9B4, symBinAddr: 0x1000044D8, symSize: 0x24 }
  - { offset: 0x131E2, size: 0x8, addend: 0x0, symName: __ZN19EzAquarii_FlexLexer21yyensure_buffer_stackEv, symObjAddr: 0x9D8, symBinAddr: 0x1000044FC, symSize: 0x15C }
  - { offset: 0x13239, size: 0x8, addend: 0x0, symName: __ZN19EzAquarii_FlexLexer20yy_load_buffer_stateEv, symObjAddr: 0xB34, symBinAddr: 0x100004658, symSize: 0x84 }
  - { offset: 0x13261, size: 0x8, addend: 0x0, symName: __ZNSt3__113basic_ostreamIcNS_11char_traitsIcEEElsB8ne180100EPFRS3_S4_E, symObjAddr: 0xC00, symBinAddr: 0x100004724, symSize: 0x2C }
  - { offset: 0x13294, size: 0x8, addend: 0x0, symName: __ZN9EzAquarii6Parser11make_STRINGENSt3__112basic_stringIcNS1_11char_traitsIcEENS1_9allocatorIcEEEE, symObjAddr: 0xC84, symBinAddr: 0x1000047A8, symSize: 0x74 }
  - { offset: 0x132BD, size: 0x8, addend: 0x0, symName: __ZNSt3__112basic_stringIcNS_11char_traitsIcEENS_9allocatorIcEEEC1B8ne180100ILi0EEEPKc, symObjAddr: 0xCF8, symBinAddr: 0x10000481C, symSize: 0x34 }
  - { offset: 0x132FB, size: 0x8, addend: 0x0, symName: __ZN9EzAquarii6Parser12make_LEFTPAREv, symObjAddr: 0xD2C, symBinAddr: 0x100004850, symSize: 0x2C }
  - { offset: 0x1330F, size: 0x8, addend: 0x0, symName: __ZN9EzAquarii6Parser13make_RIGHTPAREv, symObjAddr: 0xD58, symBinAddr: 0x10000487C, symSize: 0x2C }
  - { offset: 0x13323, size: 0x8, addend: 0x0, symName: __ZN9EzAquarii6Parser14make_SEMICOLONEv, symObjAddr: 0xD84, symBinAddr: 0x1000048A8, symSize: 0x2C }
  - { offset: 0x13337, size: 0x8, addend: 0x0, symName: __ZN9EzAquarii6Parser10make_COMMAEv, symObjAddr: 0xDB0, symBinAddr: 0x1000048D4, symSize: 0x2C }
  - { offset: 0x1334B, size: 0x8, addend: 0x0, symName: __ZN9EzAquarii6Parser11make_NUMBEREy, symObjAddr: 0xDDC, symBinAddr: 0x100004900, symSize: 0x3C }
  - { offset: 0x1336F, size: 0x8, addend: 0x0, symName: __ZN9EzAquarii6Parser8make_ENDEv, symObjAddr: 0xE18, symBinAddr: 0x10000493C, symSize: 0x2C }
  - { offset: 0x13383, size: 0x8, addend: 0x0, symName: __ZN19EzAquarii_FlexLexer21yy_get_previous_stateEv, symObjAddr: 0xE44, symBinAddr: 0x100004968, symSize: 0x198 }
  - { offset: 0x133EA, size: 0x8, addend: 0x0, symName: __ZN19EzAquarii_FlexLexer16yy_try_NUL_transEi, symObjAddr: 0xFDC, symBinAddr: 0x100004B00, symSize: 0x15C }
  - { offset: 0x13451, size: 0x8, addend: 0x0, symName: __ZN19EzAquarii_FlexLexer18yy_get_next_bufferEv, symObjAddr: 0x1138, symBinAddr: 0x100004C5C, symSize: 0x590 }
  - { offset: 0x13555, size: 0x8, addend: 0x0, symName: __ZN19EzAquarii_FlexLexerC2EPNSt3__113basic_istreamIcNS0_11char_traitsIcEEEEPNS0_13basic_ostreamIcS3_EE, symObjAddr: 0x16C8, symBinAddr: 0x1000051EC, symSize: 0x1BC }
  - { offset: 0x1359F, size: 0x8, addend: 0x0, symName: __ZN9FlexLexerC2Ev, symObjAddr: 0x1884, symBinAddr: 0x1000053A8, symSize: 0x24 }
  - { offset: 0x135C9, size: 0x8, addend: 0x0, symName: __ZNSt3__113basic_istreamIcNS_11char_traitsIcEEEC1B8ne180100EPNS_15basic_streambufIcS2_EE, symObjAddr: 0x18A8, symBinAddr: 0x1000053CC, symSize: 0x90 }
  - { offset: 0x135FF, size: 0x8, addend: 0x0, symName: __ZNSt3__113basic_ostreamIcNS_11char_traitsIcEEEC1B8ne180100EPNS_15basic_streambufIcS2_EE, symObjAddr: 0x1938, symBinAddr: 0x10000545C, symSize: 0x8C }
  - { offset: 0x13636, size: 0x8, addend: 0x0, symName: __ZN19EzAquarii_FlexLexer11ctor_commonEv, symObjAddr: 0x19C4, symBinAddr: 0x1000054E8, symSize: 0x60 }
  - { offset: 0x1365E, size: 0x8, addend: 0x0, symName: __ZN9FlexLexerD2Ev, symObjAddr: 0x1A24, symBinAddr: 0x100005548, symSize: 0x14 }
  - { offset: 0x13687, size: 0x8, addend: 0x0, symName: __ZN19EzAquarii_FlexLexerC1EPNSt3__113basic_istreamIcNS0_11char_traitsIcEEEEPNS0_13basic_ostreamIcS3_EE, symObjAddr: 0x1A38, symBinAddr: 0x10000555C, symSize: 0x3C }
  - { offset: 0x136D1, size: 0x8, addend: 0x0, symName: __ZN19EzAquarii_FlexLexerC2ERNSt3__113basic_istreamIcNS0_11char_traitsIcEEEERNS0_13basic_ostreamIcS3_EE, symObjAddr: 0x1A74, symBinAddr: 0x100005598, symSize: 0x11C }
  - { offset: 0x1371B, size: 0x8, addend: 0x0, symName: __ZN19EzAquarii_FlexLexerC1ERNSt3__113basic_istreamIcNS0_11char_traitsIcEEEERNS0_13basic_ostreamIcS3_EE, symObjAddr: 0x1B90, symBinAddr: 0x1000056B4, symSize: 0x3C }
  - { offset: 0x13765, size: 0x8, addend: 0x0, symName: __ZN19EzAquarii_FlexLexerD2Ev, symObjAddr: 0x1BCC, symBinAddr: 0x1000056F0, symSize: 0xFC }
  - { offset: 0x13791, size: 0x8, addend: 0x0, symName: __Z14EzAquarii_freePv, symObjAddr: 0x1CC8, symBinAddr: 0x1000057EC, symSize: 0x24 }
  - { offset: 0x137BC, size: 0x8, addend: 0x0, symName: __ZN19EzAquarii_FlexLexerD1Ev, symObjAddr: 0x1CFC, symBinAddr: 0x100005820, symSize: 0x2C }
  - { offset: 0x137E8, size: 0x8, addend: 0x0, symName: __ZN19EzAquarii_FlexLexerD0Ev, symObjAddr: 0x1D28, symBinAddr: 0x10000584C, symSize: 0x30 }
  - { offset: 0x13814, size: 0x8, addend: 0x0, symName: __ZN19EzAquarii_FlexLexer14switch_streamsERNSt3__113basic_istreamIcNS0_11char_traitsIcEEEERNS0_13basic_ostreamIcS3_EE, symObjAddr: 0x1D58, symBinAddr: 0x10000587C, symSize: 0xDC }
  - { offset: 0x1385A, size: 0x8, addend: 0x0, symName: __ZN19EzAquarii_FlexLexer14switch_streamsEPNSt3__113basic_istreamIcNS0_11char_traitsIcEEEEPNS0_13basic_ostreamIcS3_EE, symObjAddr: 0x1E34, symBinAddr: 0x100005958, symSize: 0x8C }
  - { offset: 0x138A0, size: 0x8, addend: 0x0, symName: __ZN19EzAquarii_FlexLexer10LexerInputEPcm, symObjAddr: 0x1EC0, symBinAddr: 0x1000059E4, symSize: 0xE4 }
  - { offset: 0x138E3, size: 0x8, addend: 0x0, symName: __ZNKSt3__19basic_iosIcNS_11char_traitsIcEEE3eofB8ne180100Ev, symObjAddr: 0x1FA4, symBinAddr: 0x100005AC8, symSize: 0x28 }
  - { offset: 0x13908, size: 0x8, addend: 0x0, symName: __ZNKSt3__19basic_iosIcNS_11char_traitsIcEEE4failB8ne180100Ev, symObjAddr: 0x1FCC, symBinAddr: 0x100005AF0, symSize: 0x28 }
  - { offset: 0x1392D, size: 0x8, addend: 0x0, symName: __ZNSt3__113basic_istreamIcNS_11char_traitsIcEEE3getB8ne180100ERc, symObjAddr: 0x1FF4, symBinAddr: 0x100005B18, symSize: 0x68 }
  - { offset: 0x13971, size: 0x8, addend: 0x0, symName: __ZNKSt3__19basic_iosIcNS_11char_traitsIcEEE3badB8ne180100Ev, symObjAddr: 0x205C, symBinAddr: 0x100005B80, symSize: 0x28 }
  - { offset: 0x13996, size: 0x8, addend: 0x0, symName: __ZN19EzAquarii_FlexLexer11LexerOutputEPKcm, symObjAddr: 0x2084, symBinAddr: 0x100005BA8, symSize: 0x38 }
  - { offset: 0x139DB, size: 0x8, addend: 0x0, symName: __Z17EzAquarii_reallocPvm, symObjAddr: 0x20BC, symBinAddr: 0x100005BE0, symSize: 0x2C }
  - { offset: 0x13A19, size: 0x8, addend: 0x0, symName: __ZN19EzAquarii_FlexLexer7yyunputEiPc, symObjAddr: 0x20E8, symBinAddr: 0x100005C0C, symSize: 0x1EC }
  - { offset: 0x13AAE, size: 0x8, addend: 0x0, symName: __ZN19EzAquarii_FlexLexer7yyinputEv, symObjAddr: 0x22D4, symBinAddr: 0x100005DF8, symSize: 0x1C4 }
  - { offset: 0x13B05, size: 0x8, addend: 0x0, symName: __ZN19EzAquarii_FlexLexer9yyrestartERNSt3__113basic_istreamIcNS0_11char_traitsIcEEEE, symObjAddr: 0x2498, symBinAddr: 0x100005FBC, symSize: 0xFC }
  - { offset: 0x13B3C, size: 0x8, addend: 0x0, symName: __ZN19EzAquarii_FlexLexer14yy_init_bufferEP15yy_buffer_stateRNSt3__113basic_istreamIcNS2_11char_traitsIcEEEE, symObjAddr: 0x2594, symBinAddr: 0x1000060B8, symSize: 0x100 }
  - { offset: 0x13B92, size: 0x8, addend: 0x0, symName: __ZN19EzAquarii_FlexLexer9yyrestartEPNSt3__113basic_istreamIcNS0_11char_traitsIcEEEE, symObjAddr: 0x2694, symBinAddr: 0x1000061B8, symSize: 0x60 }
  - { offset: 0x13BC9, size: 0x8, addend: 0x0, symName: __ZN19EzAquarii_FlexLexer19yy_switch_to_bufferEP15yy_buffer_state, symObjAddr: 0x26F4, symBinAddr: 0x100006218, symSize: 0x138 }
  - { offset: 0x13C00, size: 0x8, addend: 0x0, symName: __ZN19EzAquarii_FlexLexer16yy_create_bufferERNSt3__113basic_istreamIcNS0_11char_traitsIcEEEEi, symObjAddr: 0x282C, symBinAddr: 0x100006350, symSize: 0xE8 }
  - { offset: 0x13C59, size: 0x8, addend: 0x0, symName: __Z15EzAquarii_allocm, symObjAddr: 0x2914, symBinAddr: 0x100006438, symSize: 0x24 }
  - { offset: 0x13C88, size: 0x8, addend: 0x0, symName: __ZN19EzAquarii_FlexLexer16yy_create_bufferEPNSt3__113basic_istreamIcNS0_11char_traitsIcEEEEi, symObjAddr: 0x2938, symBinAddr: 0x10000645C, symSize: 0x3C }
  - { offset: 0x13CD2, size: 0x8, addend: 0x0, symName: __ZN19EzAquarii_FlexLexer16yy_delete_bufferEP15yy_buffer_state, symObjAddr: 0x2974, symBinAddr: 0x100006498, symSize: 0xE8 }
  - { offset: 0x13D09, size: 0x8, addend: 0x0, symName: __ZN19EzAquarii_FlexLexer15yy_flush_bufferEP15yy_buffer_state, symObjAddr: 0x2A5C, symBinAddr: 0x100006580, symSize: 0xEC }
  - { offset: 0x13D40, size: 0x8, addend: 0x0, symName: __ZN19EzAquarii_FlexLexer19yypush_buffer_stateEP15yy_buffer_state, symObjAddr: 0x2B48, symBinAddr: 0x10000666C, symSize: 0x160 }
  - { offset: 0x13D77, size: 0x8, addend: 0x0, symName: __ZN19EzAquarii_FlexLexer18yypop_buffer_stateEv, symObjAddr: 0x2CA8, symBinAddr: 0x1000067CC, symSize: 0x168 }
  - { offset: 0x13D9F, size: 0x8, addend: 0x0, symName: __ZN19EzAquarii_FlexLexer13yy_push_stateEi, symObjAddr: 0x2E10, symBinAddr: 0x100006934, symSize: 0x114 }
  - { offset: 0x13DF5, size: 0x8, addend: 0x0, symName: __ZN19EzAquarii_FlexLexer12yy_pop_stateEv, symObjAddr: 0x2F24, symBinAddr: 0x100006A48, symSize: 0x7C }
  - { offset: 0x13E1D, size: 0x8, addend: 0x0, symName: __ZN19EzAquarii_FlexLexer12yy_top_stateEv, symObjAddr: 0x2FA0, symBinAddr: 0x100006AC4, symSize: 0x24 }
  - { offset: 0x13E45, size: 0x8, addend: 0x0, symName: __ZN19EzAquarii_FlexLexer10LexerErrorEPKc, symObjAddr: 0x2FC4, symBinAddr: 0x100006AE8, symSize: 0x38 }
  - { offset: 0x13E7B, size: 0x8, addend: 0x0, symName: __ZN9EzAquarii7ScannerD0Ev, symObjAddr: 0x3028, symBinAddr: 0x100006B20, symSize: 0x30 }
  - { offset: 0x13EA3, size: 0x8, addend: 0x0, symName: __ZNSt3__112basic_stringIcNS_11char_traitsIcEENS_9allocatorIcEEEC1B8ne180100EOS5_, symObjAddr: 0x3058, symBinAddr: 0x100006B50, symSize: 0x34 }
  - { offset: 0x13EDA, size: 0x8, addend: 0x0, symName: __ZN9EzAquarii6Parser11symbol_typeC1EiNSt3__112basic_stringIcNS2_11char_traitsIcEENS2_9allocatorIcEEEE, symObjAddr: 0x308C, symBinAddr: 0x100006B84, symSize: 0x3C }
  - { offset: 0x13F21, size: 0x8, addend: 0x0, symName: __ZNSt3__112basic_stringIcNS_11char_traitsIcEENS_9allocatorIcEEEC2B8ne180100EOS5_, symObjAddr: 0x30C8, symBinAddr: 0x100006BC0, symSize: 0xB8 }
  - { offset: 0x13F88, size: 0x8, addend: 0x0, symName: __ZZNSt3__112basic_stringIcNS_11char_traitsIcEENS_9allocatorIcEEEC1B8ne180100EOS5_ENKUlRS5_E_clES7_, symObjAddr: 0x3180, symBinAddr: 0x100006C78, symSize: 0x40 }
  - { offset: 0x13FC0, size: 0x8, addend: 0x0, symName: __ZNSt3__117__compressed_pairINS_12basic_stringIcNS_11char_traitsIcEENS_9allocatorIcEEE5__repES5_E5firstB8ne180100Ev, symObjAddr: 0x31C0, symBinAddr: 0x100006CB8, symSize: 0x24 }
  - { offset: 0x13FE5, size: 0x8, addend: 0x0, symName: __ZNKSt3__112basic_stringIcNS_11char_traitsIcEENS_9allocatorIcEEE14__annotate_newB8ne180100Em, symObjAddr: 0x31E4, symBinAddr: 0x100006CDC, symSize: 0x14 }
  - { offset: 0x14019, size: 0x8, addend: 0x0, symName: __ZNKSt3__112basic_stringIcNS_11char_traitsIcEENS_9allocatorIcEEE9__is_longB8ne180100Ev, symObjAddr: 0x31F8, symBinAddr: 0x100006CF0, symSize: 0x38 }
  - { offset: 0x1403E, size: 0x8, addend: 0x0, symName: __ZNKSt3__112basic_stringIcNS_11char_traitsIcEENS_9allocatorIcEEE4sizeB8ne180100Ev, symObjAddr: 0x3230, symBinAddr: 0x100006D28, symSize: 0x54 }
  - { offset: 0x14063, size: 0x8, addend: 0x0, symName: __ZNKSt3__112basic_stringIcNS_11char_traitsIcEENS_9allocatorIcEEE17__annotate_deleteB8ne180100Ev, symObjAddr: 0x3284, symBinAddr: 0x100006D7C, symSize: 0x10 }
  - { offset: 0x14088, size: 0x8, addend: 0x0, symName: __ZNSt3__122__compressed_pair_elemINS_12basic_stringIcNS_11char_traitsIcEENS_9allocatorIcEEE5__repELi0ELb0EE5__getB8ne180100Ev, symObjAddr: 0x3294, symBinAddr: 0x100006D8C, symSize: 0x14 }
  - { offset: 0x140AD, size: 0x8, addend: 0x0, symName: __ZNKSt3__117__compressed_pairINS_12basic_stringIcNS_11char_traitsIcEENS_9allocatorIcEEE5__repES5_E5firstB8ne180100Ev, symObjAddr: 0x32A8, symBinAddr: 0x100006DA0, symSize: 0x24 }
  - { offset: 0x140D2, size: 0x8, addend: 0x0, symName: __ZNKSt3__122__compressed_pair_elemINS_12basic_stringIcNS_11char_traitsIcEENS_9allocatorIcEEE5__repELi0ELb0EE5__getB8ne180100Ev, symObjAddr: 0x32CC, symBinAddr: 0x100006DC4, symSize: 0x14 }
  - { offset: 0x140F7, size: 0x8, addend: 0x0, symName: __ZNKSt3__112basic_stringIcNS_11char_traitsIcEENS_9allocatorIcEEE15__get_long_sizeB8ne180100Ev, symObjAddr: 0x32E0, symBinAddr: 0x100006DD8, symSize: 0x28 }
  - { offset: 0x1411C, size: 0x8, addend: 0x0, symName: __ZNKSt3__112basic_stringIcNS_11char_traitsIcEENS_9allocatorIcEEE16__get_short_sizeB8ne180100Ev, symObjAddr: 0x3308, symBinAddr: 0x100006E00, symSize: 0x34 }
  - { offset: 0x14140, size: 0x8, addend: 0x0, symName: __ZN9EzAquarii6Parser11symbol_typeC2EiNSt3__112basic_stringIcNS2_11char_traitsIcEENS2_9allocatorIcEEEE, symObjAddr: 0x333C, symBinAddr: 0x100006E34, symSize: 0xA4 }
  - { offset: 0x14187, size: 0x8, addend: 0x0, symName: __ZN9EzAquarii6Parser12basic_symbolINS0_7by_kindEEC2ENS0_5token15token_kind_typeEONSt3__112basic_stringIcNS6_11char_traitsIcEENS6_9allocatorIcEEEE, symObjAddr: 0x33E0, symBinAddr: 0x100006ED8, symSize: 0x48 }
  - { offset: 0x141CD, size: 0x8, addend: 0x0, symName: __ZN9EzAquarii6Parser12basic_symbolINS0_7by_kindEED2Ev, symObjAddr: 0x3428, symBinAddr: 0x100006F20, symSize: 0x38 }
  - { offset: 0x141F6, size: 0x8, addend: 0x0, symName: __ZN9EzAquarii6Parser7by_kindC2ENS0_5token15token_kind_typeE, symObjAddr: 0x3460, symBinAddr: 0x100006F58, symSize: 0x3C }
  - { offset: 0x14234, size: 0x8, addend: 0x0, symName: __ZN9EzAquarii6Parser10value_typeC1INSt3__112basic_stringIcNS3_11char_traitsIcEENS3_9allocatorIcEEEEEEOT_, symObjAddr: 0x349C, symBinAddr: 0x100006F94, symSize: 0x34 }
  - { offset: 0x14273, size: 0x8, addend: 0x0, symName: __ZN9EzAquarii6Parser10value_typeC2INSt3__112basic_stringIcNS3_11char_traitsIcEENS3_9allocatorIcEEEEEEOT_, symObjAddr: 0x3540, symBinAddr: 0x100007038, symSize: 0x44 }
  - { offset: 0x142B3, size: 0x8, addend: 0x0, symName: __ZN9EzAquarii6Parser10value_type5yyas_INSt3__112basic_stringIcNS3_11char_traitsIcEENS3_9allocatorIcEEEEEEPT_v, symObjAddr: 0x3584, symBinAddr: 0x10000707C, symSize: 0x1C }
  - { offset: 0x142F1, size: 0x8, addend: 0x0, symName: __ZN9EzAquarii6Parser12basic_symbolINS0_7by_kindEE5clearEv, symObjAddr: 0x35A0, symBinAddr: 0x100007098, symSize: 0xD0 }
  - { offset: 0x14335, size: 0x8, addend: 0x0, symName: __ZN9EzAquarii6Parser10value_typeD1Ev, symObjAddr: 0x3698, symBinAddr: 0x100007190, symSize: 0x2C }
  - { offset: 0x1435E, size: 0x8, addend: 0x0, symName: __ZNK9EzAquarii6Parser7by_kind4kindEv, symObjAddr: 0x36C4, symBinAddr: 0x1000071BC, symSize: 0x18 }
  - { offset: 0x14385, size: 0x8, addend: 0x0, symName: __ZN9EzAquarii6Parser10value_type7destroyINS_7CommandEEEvv, symObjAddr: 0x36DC, symBinAddr: 0x1000071D4, symSize: 0x34 }
  - { offset: 0x143B3, size: 0x8, addend: 0x0, symName: __ZN9EzAquarii6Parser10value_type7destroyINSt3__16vectorIyNS3_9allocatorIyEEEEEEvv, symObjAddr: 0x3710, symBinAddr: 0x100007208, symSize: 0x34 }
  - { offset: 0x143E1, size: 0x8, addend: 0x0, symName: __ZN9EzAquarii6Parser10value_type7destroyINSt3__112basic_stringIcNS3_11char_traitsIcEENS3_9allocatorIcEEEEEEvv, symObjAddr: 0x3744, symBinAddr: 0x10000723C, symSize: 0x34 }
  - { offset: 0x1440F, size: 0x8, addend: 0x0, symName: __ZN9EzAquarii6Parser10value_type7destroyIyEEvv, symObjAddr: 0x3778, symBinAddr: 0x100007270, symSize: 0x30 }
  - { offset: 0x1443D, size: 0x8, addend: 0x0, symName: __ZN9EzAquarii6Parser7by_kind5clearEv, symObjAddr: 0x37A8, symBinAddr: 0x1000072A0, symSize: 0x1C }
  - { offset: 0x14469, size: 0x8, addend: 0x0, symName: __ZN9EzAquarii6Parser10value_type2asINS_7CommandEEERT_v, symObjAddr: 0x37C4, symBinAddr: 0x1000072BC, symSize: 0xB8 }
  - { offset: 0x144CB, size: 0x8, addend: 0x0, symName: __ZNKSt9type_infoeqB8ne180100ERKS_, symObjAddr: 0x387C, symBinAddr: 0x100007374, symSize: 0xDC }
  - { offset: 0x14566, size: 0x8, addend: 0x0, symName: __ZN9EzAquarii6Parser10value_type5yyas_INS_7CommandEEEPT_v, symObjAddr: 0x3958, symBinAddr: 0x100007450, symSize: 0x1C }
  - { offset: 0x145A4, size: 0x8, addend: 0x0, symName: __ZNSt27__type_info_implementations30__non_unique_arm_rtti_bit_impl21__is_type_name_uniqueB8ne180100Em, symObjAddr: 0x3974, symBinAddr: 0x10000746C, symSize: 0x20 }
  - { offset: 0x145C8, size: 0x8, addend: 0x0, symName: __ZN9EzAquarii6Parser10value_type2asINSt3__16vectorIyNS3_9allocatorIyEEEEEERT_v, symObjAddr: 0x3994, symBinAddr: 0x10000748C, symSize: 0xB8 }
  - { offset: 0x145F5, size: 0x8, addend: 0x0, symName: __ZNSt3__16vectorIyNS_9allocatorIyEEED1B8ne180100Ev, symObjAddr: 0x3A4C, symBinAddr: 0x100007544, symSize: 0x2C }
  - { offset: 0x1461E, size: 0x8, addend: 0x0, symName: __ZN9EzAquarii6Parser10value_type5yyas_INSt3__16vectorIyNS3_9allocatorIyEEEEEEPT_v, symObjAddr: 0x3A78, symBinAddr: 0x100007570, symSize: 0x1C }
  - { offset: 0x1465B, size: 0x8, addend: 0x0, symName: __ZNSt3__16vectorIyNS_9allocatorIyEEED2B8ne180100Ev, symObjAddr: 0x3A94, symBinAddr: 0x10000758C, symSize: 0x44 }
  - { offset: 0x14683, size: 0x8, addend: 0x0, symName: __ZNSt3__16vectorIyNS_9allocatorIyEEE16__destroy_vectorC1B8ne180100ERS3_, symObjAddr: 0x3AD8, symBinAddr: 0x1000075D0, symSize: 0x34 }
  - { offset: 0x146BB, size: 0x8, addend: 0x0, symName: __ZNSt3__16vectorIyNS_9allocatorIyEEE16__destroy_vectorclB8ne180100Ev, symObjAddr: 0x3B0C, symBinAddr: 0x100007604, symSize: 0x90 }
  - { offset: 0x146E0, size: 0x8, addend: 0x0, symName: __ZNSt3__16vectorIyNS_9allocatorIyEEE16__destroy_vectorC2B8ne180100ERS3_, symObjAddr: 0x3B9C, symBinAddr: 0x100007694, symSize: 0x20 }
  - { offset: 0x14718, size: 0x8, addend: 0x0, symName: __ZNSt3__16vectorIyNS_9allocatorIyEEE7__clearB8ne180100Ev, symObjAddr: 0x3BBC, symBinAddr: 0x1000076B4, symSize: 0x28 }
  - { offset: 0x1473D, size: 0x8, addend: 0x0, symName: __ZNKSt3__16vectorIyNS_9allocatorIyEEE17__annotate_deleteB8ne180100Ev, symObjAddr: 0x3BE4, symBinAddr: 0x1000076DC, symSize: 0x10 }
  - { offset: 0x14762, size: 0x8, addend: 0x0, symName: __ZNSt3__116allocator_traitsINS_9allocatorIyEEE10deallocateB8ne180100ERS2_Pym, symObjAddr: 0x3BF4, symBinAddr: 0x1000076EC, symSize: 0x34 }
  - { offset: 0x147A4, size: 0x8, addend: 0x0, symName: __ZNSt3__16vectorIyNS_9allocatorIyEEE7__allocB8ne180100Ev, symObjAddr: 0x3C28, symBinAddr: 0x100007720, symSize: 0x28 }
  - { offset: 0x147C9, size: 0x8, addend: 0x0, symName: __ZNKSt3__16vectorIyNS_9allocatorIyEEE8capacityB8ne180100Ev, symObjAddr: 0x3C50, symBinAddr: 0x100007748, symSize: 0x40 }
  - { offset: 0x147EE, size: 0x8, addend: 0x0, symName: __ZNSt3__16vectorIyNS_9allocatorIyEEE22__base_destruct_at_endB8ne180100EPy, symObjAddr: 0x3C90, symBinAddr: 0x100007788, symSize: 0x8C }
  - { offset: 0x14832, size: 0x8, addend: 0x0, symName: __ZNSt3__116allocator_traitsINS_9allocatorIyEEE7destroyB8ne180100IyvEEvRS2_PT_, symObjAddr: 0x3D1C, symBinAddr: 0x100007814, symSize: 0x2C }
  - { offset: 0x1486F, size: 0x8, addend: 0x0, symName: __ZNSt3__19allocatorIyE7destroyB8ne180100EPy, symObjAddr: 0x3D5C, symBinAddr: 0x100007854, symSize: 0x14 }
  - { offset: 0x148A2, size: 0x8, addend: 0x0, symName: __ZNSt3__19allocatorIyE10deallocateB8ne180100EPym, symObjAddr: 0x3D70, symBinAddr: 0x100007868, symSize: 0x40 }
  - { offset: 0x148E3, size: 0x8, addend: 0x0, symName: __ZNSt3__117__compressed_pairIPyNS_9allocatorIyEEE6secondB8ne180100Ev, symObjAddr: 0x3E2C, symBinAddr: 0x100007924, symSize: 0x24 }
  - { offset: 0x14908, size: 0x8, addend: 0x0, symName: __ZNSt3__122__compressed_pair_elemINS_9allocatorIyEELi1ELb1EE5__getB8ne180100Ev, symObjAddr: 0x3E50, symBinAddr: 0x100007948, symSize: 0x14 }
  - { offset: 0x1492D, size: 0x8, addend: 0x0, symName: __ZNKSt3__16vectorIyNS_9allocatorIyEEE9__end_capB8ne180100Ev, symObjAddr: 0x3E64, symBinAddr: 0x10000795C, symSize: 0x28 }
  - { offset: 0x14952, size: 0x8, addend: 0x0, symName: __ZNKSt3__117__compressed_pairIPyNS_9allocatorIyEEE5firstB8ne180100Ev, symObjAddr: 0x3E8C, symBinAddr: 0x100007984, symSize: 0x24 }
  - { offset: 0x14977, size: 0x8, addend: 0x0, symName: __ZNKSt3__122__compressed_pair_elemIPyLi0ELb0EE5__getB8ne180100Ev, symObjAddr: 0x3EB0, symBinAddr: 0x1000079A8, symSize: 0x14 }
  - { offset: 0x149A1, size: 0x8, addend: 0x0, symName: __ZN9EzAquarii6Parser10value_type2asINSt3__112basic_stringIcNS3_11char_traitsIcEENS3_9allocatorIcEEEEEERT_v, symObjAddr: 0x3EC4, symBinAddr: 0x1000079BC, symSize: 0xB8 }
  - { offset: 0x149CF, size: 0x8, addend: 0x0, symName: __ZN9EzAquarii6Parser10value_type2asIyEERT_v, symObjAddr: 0x3F7C, symBinAddr: 0x100007A74, symSize: 0xB8 }
  - { offset: 0x149FD, size: 0x8, addend: 0x0, symName: __ZN9EzAquarii6Parser10value_type5yyas_IyEEPT_v, symObjAddr: 0x4034, symBinAddr: 0x100007B2C, symSize: 0x1C }
  - { offset: 0x14A3A, size: 0x8, addend: 0x0, symName: __ZN9EzAquarii6Parser10value_typeD2Ev, symObjAddr: 0x4050, symBinAddr: 0x100007B48, symSize: 0x70 }
  - { offset: 0x14A62, size: 0x8, addend: 0x0, symName: __ZN9EzAquarii6Parser11symbol_typeC1Ei, symObjAddr: 0x40C0, symBinAddr: 0x100007BB8, symSize: 0x34 }
  - { offset: 0x14A99, size: 0x8, addend: 0x0, symName: __ZN9EzAquarii6Parser11symbol_typeC2Ei, symObjAddr: 0x40F4, symBinAddr: 0x100007BEC, symSize: 0x124 }
  - { offset: 0x14AD0, size: 0x8, addend: 0x0, symName: __ZN9EzAquarii6Parser12basic_symbolINS0_7by_kindEEC2ENS0_5token15token_kind_typeE, symObjAddr: 0x4218, symBinAddr: 0x100007D10, symSize: 0x40 }
  - { offset: 0x14B07, size: 0x8, addend: 0x0, symName: __ZN9EzAquarii6Parser10value_typeC1Ev, symObjAddr: 0x4258, symBinAddr: 0x100007D50, symSize: 0x2C }
  - { offset: 0x14B2F, size: 0x8, addend: 0x0, symName: __ZN9EzAquarii6Parser10value_typeC2Ev, symObjAddr: 0x4284, symBinAddr: 0x100007D7C, symSize: 0x38 }
  - { offset: 0x14B57, size: 0x8, addend: 0x0, symName: __ZN9EzAquarii6Parser11symbol_typeC1Eiy, symObjAddr: 0x42BC, symBinAddr: 0x100007DB4, symSize: 0x3C }
  - { offset: 0x14B9D, size: 0x8, addend: 0x0, symName: __ZN9EzAquarii6Parser11symbol_typeC2Eiy, symObjAddr: 0x42F8, symBinAddr: 0x100007DF0, symSize: 0xA8 }
  - { offset: 0x14BE3, size: 0x8, addend: 0x0, symName: __ZN9EzAquarii6Parser12basic_symbolINS0_7by_kindEEC2ENS0_5token15token_kind_typeEOy, symObjAddr: 0x43A0, symBinAddr: 0x100007E98, symSize: 0x48 }
  - { offset: 0x14C2E, size: 0x8, addend: 0x0, symName: __ZN9EzAquarii6Parser10value_typeC1IyEEOT_, symObjAddr: 0x43E8, symBinAddr: 0x100007EE0, symSize: 0x34 }
  - { offset: 0x14C6D, size: 0x8, addend: 0x0, symName: __ZN9EzAquarii6Parser10value_typeC2IyEEOT_, symObjAddr: 0x441C, symBinAddr: 0x100007F14, symSize: 0x4C }
  - { offset: 0x14CAD, size: 0x8, addend: 0x0, symName: __ZN9FlexLexerD1Ev, symObjAddr: 0x4468, symBinAddr: 0x100007F60, symSize: 0x14 }
  - { offset: 0x14CD6, size: 0x8, addend: 0x0, symName: __ZN9FlexLexerD0Ev, symObjAddr: 0x447C, symBinAddr: 0x100007F74, symSize: 0xC }
  - { offset: 0x14CFF, size: 0x8, addend: 0x0, symName: __ZNKSt3__18ios_base5rdbufB8ne180100Ev, symObjAddr: 0x44B4, symBinAddr: 0x100007F80, symSize: 0x18 }
  - { offset: 0x14D24, size: 0x8, addend: 0x0, symName: __ZNSt3__18ios_base5rdbufB8ne180100EPv, symObjAddr: 0x44CC, symBinAddr: 0x100007F98, symSize: 0x34 }
  - { offset: 0x14D58, size: 0x8, addend: 0x0, symName: __ZNSt3__111char_traitsIcE6lengthB8ne180100EPKc, symObjAddr: 0x46EC, symBinAddr: 0x1000081B8, symSize: 0x34 }
  - { offset: 0x14D94, size: 0x8, addend: 0x0, symName: __ZNKSt3__113basic_ostreamIcNS_11char_traitsIcEEE6sentrycvbB8ne180100Ev, symObjAddr: 0x4720, symBinAddr: 0x1000081EC, symSize: 0x1C }
  - { offset: 0x14DB8, size: 0x8, addend: 0x0, symName: __ZNSt3__119ostreambuf_iteratorIcNS_11char_traitsIcEEEC1B8ne180100ERNS_13basic_ostreamIcS2_EE, symObjAddr: 0x497C, symBinAddr: 0x100008448, symSize: 0x34 }
  - { offset: 0x14DEF, size: 0x8, addend: 0x0, symName: __ZNKSt3__18ios_base5flagsB8ne180100Ev, symObjAddr: 0x49B0, symBinAddr: 0x10000847C, symSize: 0x18 }
  - { offset: 0x14E16, size: 0x8, addend: 0x0, symName: __ZNKSt3__19basic_iosIcNS_11char_traitsIcEEE4fillB8ne180100Ev, symObjAddr: 0x49C8, symBinAddr: 0x100008494, symSize: 0x64 }
  - { offset: 0x14E3D, size: 0x8, addend: 0x0, symName: __ZNKSt3__119ostreambuf_iteratorIcNS_11char_traitsIcEEE6failedB8ne180100Ev, symObjAddr: 0x4A2C, symBinAddr: 0x1000084F8, symSize: 0x24 }
  - { offset: 0x14E62, size: 0x8, addend: 0x0, symName: __ZNSt3__19basic_iosIcNS_11char_traitsIcEEE8setstateB8ne180100Ej, symObjAddr: 0x4A50, symBinAddr: 0x10000851C, symSize: 0x2C }
  - { offset: 0x14E96, size: 0x8, addend: 0x0, symName: __ZNKSt3__18ios_base5widthB8ne180100Ev, symObjAddr: 0x4A7C, symBinAddr: 0x100008548, symSize: 0x18 }
  - { offset: 0x14EBD, size: 0x8, addend: 0x0, symName: __ZNSt3__115basic_streambufIcNS_11char_traitsIcEEE5sputnB8ne180100EPKcl, symObjAddr: 0x4A94, symBinAddr: 0x100008560, symSize: 0x3C }
  - { offset: 0x14EFD, size: 0x8, addend: 0x0, symName: __ZNSt3__112basic_stringIcNS_11char_traitsIcEENS_9allocatorIcEEEC1B8ne180100Emc, symObjAddr: 0x4AD0, symBinAddr: 0x10000859C, symSize: 0x3C }
  - { offset: 0x14F44, size: 0x8, addend: 0x0, symName: __ZNKSt3__112basic_stringIcNS_11char_traitsIcEENS_9allocatorIcEEE4dataB8ne180100Ev, symObjAddr: 0x4B0C, symBinAddr: 0x1000085D8, symSize: 0x28 }
  - { offset: 0x14F69, size: 0x8, addend: 0x0, symName: __ZNSt3__18ios_base5widthB8ne180100El, symObjAddr: 0x4B34, symBinAddr: 0x100008600, symSize: 0x2C }
  - { offset: 0x14FAE, size: 0x8, addend: 0x0, symName: __ZNSt3__112basic_stringIcNS_11char_traitsIcEENS_9allocatorIcEEEC2B8ne180100Emc, symObjAddr: 0x4B60, symBinAddr: 0x10000862C, symSize: 0x4C }
  - { offset: 0x14FF9, size: 0x8, addend: 0x0, symName: __ZNSt3__117__compressed_pairINS_12basic_stringIcNS_11char_traitsIcEENS_9allocatorIcEEE5__repES5_EC1B8ne180100INS_18__default_init_tagESA_EEOT_OT0_, symObjAddr: 0x4BAC, symBinAddr: 0x100008678, symSize: 0x3C }
  - { offset: 0x1504F, size: 0x8, addend: 0x0, symName: __ZNSt3__117__compressed_pairINS_12basic_stringIcNS_11char_traitsIcEENS_9allocatorIcEEE5__repES5_EC2B8ne180100INS_18__default_init_tagESA_EEOT_OT0_, symObjAddr: 0x4BE8, symBinAddr: 0x1000086B4, symSize: 0x3C }
  - { offset: 0x150A6, size: 0x8, addend: 0x0, symName: __ZNSt3__122__compressed_pair_elemINS_12basic_stringIcNS_11char_traitsIcEENS_9allocatorIcEEE5__repELi0ELb0EEC2B8ne180100ENS_18__default_init_tagE, symObjAddr: 0x4C24, symBinAddr: 0x1000086F0, symSize: 0x14 }
  - { offset: 0x150D9, size: 0x8, addend: 0x0, symName: __ZNSt3__122__compressed_pair_elemINS_9allocatorIcEELi1ELb1EEC2B8ne180100ENS_18__default_init_tagE, symObjAddr: 0x4C38, symBinAddr: 0x100008704, symSize: 0x2C }
  - { offset: 0x1510C, size: 0x8, addend: 0x0, symName: __ZNSt3__19allocatorIcEC2B8ne180100Ev, symObjAddr: 0x4C64, symBinAddr: 0x100008730, symSize: 0x2C }
  - { offset: 0x15135, size: 0x8, addend: 0x0, symName: __ZNSt3__116__non_trivial_ifILb1ENS_9allocatorIcEEEC2B8ne180100Ev, symObjAddr: 0x4C90, symBinAddr: 0x10000875C, symSize: 0x14 }
  - { offset: 0x1515E, size: 0x8, addend: 0x0, symName: __ZNKSt3__112basic_stringIcNS_11char_traitsIcEENS_9allocatorIcEEE13__get_pointerB8ne180100Ev, symObjAddr: 0x4CB8, symBinAddr: 0x100008784, symSize: 0x54 }
  - { offset: 0x15183, size: 0x8, addend: 0x0, symName: __ZNKSt3__112basic_stringIcNS_11char_traitsIcEENS_9allocatorIcEEE18__get_long_pointerB8ne180100Ev, symObjAddr: 0x4D0C, symBinAddr: 0x1000087D8, symSize: 0x28 }
  - { offset: 0x151A8, size: 0x8, addend: 0x0, symName: __ZNKSt3__112basic_stringIcNS_11char_traitsIcEENS_9allocatorIcEEE19__get_short_pointerB8ne180100Ev, symObjAddr: 0x4D34, symBinAddr: 0x100008800, symSize: 0x28 }
  - { offset: 0x151CD, size: 0x8, addend: 0x0, symName: __ZNSt3__114pointer_traitsIPKcE10pointer_toB8ne180100ERS1_, symObjAddr: 0x4D5C, symBinAddr: 0x100008828, symSize: 0x14 }
  - { offset: 0x151EF, size: 0x8, addend: 0x0, symName: __ZNSt3__119ostreambuf_iteratorIcNS_11char_traitsIcEEEC2B8ne180100ERNS_13basic_ostreamIcS2_EE, symObjAddr: 0x4D70, symBinAddr: 0x10000883C, symSize: 0x54 }
  - { offset: 0x15226, size: 0x8, addend: 0x0, symName: __ZNSt3__111char_traitsIcE11eq_int_typeB8ne180100Eii, symObjAddr: 0x4DC4, symBinAddr: 0x100008890, symSize: 0x28 }
  - { offset: 0x15259, size: 0x8, addend: 0x0, symName: __ZNSt3__111char_traitsIcE3eofB8ne180100Ev, symObjAddr: 0x4DEC, symBinAddr: 0x1000088B8, symSize: 0x8 }
  - { offset: 0x1526D, size: 0x8, addend: 0x0, symName: __ZNKSt3__19basic_iosIcNS_11char_traitsIcEEE5widenB8ne180100Ec, symObjAddr: 0x4DF4, symBinAddr: 0x1000088C0, symSize: 0x84 }
  - { offset: 0x152DA, size: 0x8, addend: 0x0, symName: __ZNKSt3__15ctypeIcE5widenB8ne180100Ec, symObjAddr: 0x4EA4, symBinAddr: 0x100008970, symSize: 0x38 }
  - { offset: 0x1530E, size: 0x8, addend: 0x0, symName: __ZNSt3__18ios_base8setstateB8ne180100Ej, symObjAddr: 0x4EDC, symBinAddr: 0x1000089A8, symSize: 0x34 }
  - { offset: 0x15343, size: 0x8, addend: 0x0, symName: __ZNSt3__112basic_stringIcNS_11char_traitsIcEENS_9allocatorIcEEEC2B8ne180100ILi0EEEPKc, symObjAddr: 0x4F34, symBinAddr: 0x100008A00, symSize: 0x58 }
  - { offset: 0x15380, size: 0x8, addend: 0x0, symName: __ZNSt3__19basic_iosIcNS_11char_traitsIcEEEC2B8ne180100Ev, symObjAddr: 0x4F8C, symBinAddr: 0x100008A58, symSize: 0x3C }
  - { offset: 0x153A9, size: 0x8, addend: 0x0, symName: __ZNSt3__19basic_iosIcNS_11char_traitsIcEEE4initB8ne180100EPNS_15basic_streambufIcS2_EE, symObjAddr: 0x4FC8, symBinAddr: 0x100008A94, symSize: 0x44 }
  - { offset: 0x153DF, size: 0x8, addend: 0x0, symName: __ZNSt3__18ios_baseC2B8ne180100Ev, symObjAddr: 0x500C, symBinAddr: 0x100008AD8, symSize: 0x24 }
  - { offset: 0x15408, size: 0x8, addend: 0x0, symName: __ZNKSt3__18ios_base3eofB8ne180100Ev, symObjAddr: 0x5030, symBinAddr: 0x100008AFC, symSize: 0x24 }
  - { offset: 0x1542F, size: 0x8, addend: 0x0, symName: __ZNKSt3__18ios_base4failB8ne180100Ev, symObjAddr: 0x5054, symBinAddr: 0x100008B20, symSize: 0x28 }
  - { offset: 0x15456, size: 0x8, addend: 0x0, symName: __ZNSt3__111char_traitsIcE12to_char_typeB8ne180100Ei, symObjAddr: 0x507C, symBinAddr: 0x100008B48, symSize: 0x18 }
  - { offset: 0x1547A, size: 0x8, addend: 0x0, symName: __ZNKSt3__18ios_base3badB8ne180100Ev, symObjAddr: 0x5094, symBinAddr: 0x100008B60, symSize: 0x24 }
  - { offset: 0x172D6, size: 0x8, addend: 0x0, symName: __ZN9EzAquarii6Parser12yypact_ninf_E, symObjAddr: 0xAE2C, symBinAddr: 0x100013798, symSize: 0x0 }
  - { offset: 0x18467, size: 0x8, addend: 0x0, symName: __ZN9EzAquarii6Parser13yytable_ninf_E, symObjAddr: 0xAE2D, symBinAddr: 0x100013799, symSize: 0x0 }
  - { offset: 0x1847F, size: 0x8, addend: 0x0, symName: __ZN9EzAquarii6Parser7yypact_E, symObjAddr: 0xAE2E, symBinAddr: 0x10001379A, symSize: 0x0 }
  - { offset: 0x18497, size: 0x8, addend: 0x0, symName: __ZN9EzAquarii6Parser9yydefact_E, symObjAddr: 0xAE3B, symBinAddr: 0x1000137A7, symSize: 0x0 }
  - { offset: 0x184AF, size: 0x8, addend: 0x0, symName: __ZN9EzAquarii6Parser8yypgoto_E, symObjAddr: 0xAE48, symBinAddr: 0x1000137B4, symSize: 0x0 }
  - { offset: 0x184C7, size: 0x8, addend: 0x0, symName: __ZN9EzAquarii6Parser10yydefgoto_E, symObjAddr: 0xAE4C, symBinAddr: 0x1000137B8, symSize: 0x0 }
  - { offset: 0x184DF, size: 0x8, addend: 0x0, symName: __ZN9EzAquarii6Parser8yytable_E, symObjAddr: 0xAE50, symBinAddr: 0x1000137BC, symSize: 0x0 }
  - { offset: 0x184F7, size: 0x8, addend: 0x0, symName: __ZN9EzAquarii6Parser8yycheck_E, symObjAddr: 0xAE5B, symBinAddr: 0x1000137C7, symSize: 0x0 }
  - { offset: 0x1850F, size: 0x8, addend: 0x0, symName: __ZN9EzAquarii6Parser7yystos_E, symObjAddr: 0xAE66, symBinAddr: 0x1000137D2, symSize: 0x0 }
  - { offset: 0x18527, size: 0x8, addend: 0x0, symName: __ZN9EzAquarii6Parser5yyr1_E, symObjAddr: 0xAE73, symBinAddr: 0x1000137DF, symSize: 0x0 }
  - { offset: 0x1853F, size: 0x8, addend: 0x0, symName: __ZN9EzAquarii6Parser5yyr2_E, symObjAddr: 0xAE7C, symBinAddr: 0x1000137E8, symSize: 0x0 }
  - { offset: 0x18557, size: 0x8, addend: 0x0, symName: __ZN9EzAquarii6Parser8yytname_E, symObjAddr: 0xA830, symBinAddr: 0x100014740, symSize: 0x0 }
  - { offset: 0x1856F, size: 0x8, addend: 0x0, symName: __ZN9EzAquarii6Parser8yyrline_E, symObjAddr: 0xAE85, symBinAddr: 0x1000137F1, symSize: 0x0 }
  - { offset: 0x1EEF0, size: 0x8, addend: 0x0, symName: __ZNSt3__17advanceB8ne180100IPyllvEEvRT_T0_, symObjAddr: 0x80F4, symBinAddr: 0x10000F568, symSize: 0x38 }
  - { offset: 0x1F454, size: 0x8, addend: 0x0, symName: __ZNSt3__1lsB8ne180100INS_11char_traitsIcEEEERNS_13basic_ostreamIcT_EES6_c, symObjAddr: 0x984, symBinAddr: 0x1000094F0, symSize: 0x34 }
  - { offset: 0x1F49A, size: 0x8, addend: 0x0, symName: __ZNSt3__1lsB8ne180100IcNS_11char_traitsIcEENS_9allocatorIcEEEERNS_13basic_ostreamIT_T0_EES9_RKNS_12basic_stringIS6_S7_T1_EE, symObjAddr: 0x2D64, symBinAddr: 0x10000B684, symSize: 0x4C }
  - { offset: 0x1F4F3, size: 0x8, addend: 0x0, symName: __ZNSt3__1neB8ne180100IPKN9EzAquarii6Parser17stack_symbol_typeEEEbRKNS_11__wrap_iterIT_EESA_, symObjAddr: 0x3DE4, symBinAddr: 0x10000C478, symSize: 0x34 }
  - { offset: 0x1F537, size: 0x8, addend: 0x0, symName: __ZNSt3__112__to_addressB8ne180100IN9EzAquarii6Parser17stack_symbol_typeEEEPT_S5_, symObjAddr: 0x42E4, symBinAddr: 0x10000C978, symSize: 0x14 }
  - { offset: 0x1F56D, size: 0x8, addend: 0x0, symName: __ZNSt3__1eqB8ne180100IPKN9EzAquarii6Parser17stack_symbol_typeEEEbRKNS_11__wrap_iterIT_EESA_, symObjAddr: 0x4684, symBinAddr: 0x10000CB64, symSize: 0x48 }
  - { offset: 0x1F5B1, size: 0x8, addend: 0x0, symName: __ZNSt3__122__make_exception_guardB8ne180100INS_6vectorIN9EzAquarii6Parser17stack_symbol_typeENS_9allocatorIS4_EEE16__destroy_vectorEEENS_28__exception_guard_exceptionsIT_EESA_, symObjAddr: 0x5344, symBinAddr: 0x10000CD44, symSize: 0x40 }
  - { offset: 0x1F5E7, size: 0x8, addend: 0x0, symName: __ZNSt3__119__allocate_at_leastB8ne180100INS_9allocatorIN9EzAquarii6Parser17stack_symbol_typeEEEEENS_19__allocation_resultINS_16allocator_traitsIT_E7pointerEEERS8_m, symObjAddr: 0x56DC, symBinAddr: 0x10000D0DC, symSize: 0x40 }
  - { offset: 0x1F62B, size: 0x8, addend: 0x0, symName: __ZNSt3__13minB8ne180100ImEERKT_S3_S3_, symObjAddr: 0x5758, symBinAddr: 0x10000D158, symSize: 0x2C }
  - { offset: 0x1F870, size: 0x8, addend: 0x0, symName: __ZNSt3__13minB8ne180100ImNS_6__lessIvvEEEERKT_S5_S5_T0_, symObjAddr: 0x57E4, symBinAddr: 0x10000D1E4, symSize: 0x54 }
  - { offset: 0x1F912, size: 0x8, addend: 0x0, symName: __ZNSt3__120__throw_length_errorB8ne180100EPKc, symObjAddr: 0x58C0, symBinAddr: 0x10000D2C0, symSize: 0x64 }
  - { offset: 0x1F93A, size: 0x8, addend: 0x0, symName: __ZNSt3__117__libcpp_allocateB8ne180100Emm, symObjAddr: 0x5A28, symBinAddr: 0x10000D428, symSize: 0x28 }
  - { offset: 0x1F977, size: 0x8, addend: 0x0, symName: __ZNSt3__121__libcpp_operator_newB8ne180100IJmEEEPvDpT_, symObjAddr: 0x5A50, symBinAddr: 0x10000D450, symSize: 0x24 }
  - { offset: 0x1F9B3, size: 0x8, addend: 0x0, symName: __ZNSt3__13maxB8ne180100ImEERKT_S3_S3_, symObjAddr: 0x6BC8, symBinAddr: 0x10000E1F4, symSize: 0x2C }
  - { offset: 0x1F9F7, size: 0x8, addend: 0x0, symName: __ZNSt3__13maxB8ne180100ImNS_6__lessIvvEEEERKT_S5_S5_T0_, symObjAddr: 0x6BF4, symBinAddr: 0x10000E220, symSize: 0x54 }
  - { offset: 0x1FA51, size: 0x8, addend: 0x0, symName: __ZNSt3__142__uninitialized_allocator_move_if_noexceptB8ne180100INS_9allocatorIN9EzAquarii6Parser17stack_symbol_typeEEENS_16reverse_iteratorIPS4_EES8_S8_EET2_RT_T0_T1_S9_, symObjAddr: 0x6E74, symBinAddr: 0x10000E4A0, symSize: 0x12C }
  - { offset: 0x1FAF4, size: 0x8, addend: 0x0, symName: __ZNSt3__14swapB8ne180100IPN9EzAquarii6Parser17stack_symbol_typeEEENS_9enable_ifIXaasr21is_move_constructibleIT_EE5valuesr18is_move_assignableIS6_EE5valueEvE4typeERS6_S9_, symObjAddr: 0x6FEC, symBinAddr: 0x10000E618, symSize: 0x3C }
  - { offset: 0x1FB46, size: 0x8, addend: 0x0, symName: __ZNSt3__122__make_exception_guardB8ne180100INS_29_AllocatorDestroyRangeReverseINS_9allocatorIN9EzAquarii6Parser17stack_symbol_typeEEENS_16reverse_iteratorIPS5_EEEEEENS_28__exception_guard_exceptionsIT_EESC_, symObjAddr: 0x7028, symBinAddr: 0x10000E654, symSize: 0x4C }
  - { offset: 0x1FB7D, size: 0x8, addend: 0x0, symName: __ZNSt3__1neB8ne180100IPN9EzAquarii6Parser17stack_symbol_typeES4_EEbRKNS_16reverse_iteratorIT_EERKNS5_IT0_EE, symObjAddr: 0x70B8, symBinAddr: 0x10000E6E4, symSize: 0x48 }
  - { offset: 0x1FBCA, size: 0x8, addend: 0x0, symName: __ZNSt3__112__to_addressB8ne180100INS_16reverse_iteratorIPN9EzAquarii6Parser17stack_symbol_typeEEEvEEu7__decayIDTclsr19__to_address_helperIT_EE6__callclsr3stdE7declvalIRKS7_EEEEES9_, symObjAddr: 0x7100, symBinAddr: 0x10000E72C, symSize: 0x24 }
  - { offset: 0x1FC2B, size: 0x8, addend: 0x0, symName: __ZNSt3__119__allocator_destroyB8ne180100INS_9allocatorIN9EzAquarii6Parser17stack_symbol_typeEEENS_16reverse_iteratorINS6_IPS4_EEEES9_EEvRT_T0_T1_, symObjAddr: 0x73B0, symBinAddr: 0x10000E9DC, symSize: 0x70 }
  - { offset: 0x1FC91, size: 0x8, addend: 0x0, symName: __ZNSt3__1neB8ne180100INS_16reverse_iteratorIPN9EzAquarii6Parser17stack_symbol_typeEEES6_EEbRKNS1_IT_EERKNS1_IT0_EE, symObjAddr: 0x745C, symBinAddr: 0x10000EA88, symSize: 0x60 }
  - { offset: 0x1FCDE, size: 0x8, addend: 0x0, symName: __ZNSt3__112__to_addressB8ne180100INS_16reverse_iteratorINS1_IPN9EzAquarii6Parser17stack_symbol_typeEEEEEvEEu7__decayIDTclsr19__to_address_helperIT_EE6__callclsr3stdE7declvalIRKS8_EEEEESA_, symObjAddr: 0x74BC, symBinAddr: 0x10000EAE8, symSize: 0x24 }
  - { offset: 0x1FD3F, size: 0x8, addend: 0x0, symName: __ZNSt3__18distanceB8ne180100IPyEENS_15iterator_traitsIT_E15difference_typeES3_S3_, symObjAddr: 0x7CA4, symBinAddr: 0x10000F1B8, symSize: 0x2C }
  - { offset: 0x1FD83, size: 0x8, addend: 0x0, symName: __ZNSt3__14nextB8ne180100IPyLi0EEET_S2_NS_15iterator_traitsIS2_E15difference_typeE, symObjAddr: 0x7D10, symBinAddr: 0x10000F1E4, symSize: 0x34 }
  - { offset: 0x1FDCD, size: 0x8, addend: 0x0, symName: __ZNSt3__14copyB8ne180100IPyS1_EET0_T_S3_S2_, symObjAddr: 0x7D44, symBinAddr: 0x10000F218, symSize: 0x40 }
  - { offset: 0x1FE28, size: 0x8, addend: 0x0, symName: __ZNSt3__16__copyB8ne180100INS_17_ClassicAlgPolicyEPyS2_S2_EENS_4pairIT0_T2_EES4_T1_S5_, symObjAddr: 0x7E10, symBinAddr: 0x10000F2E4, symSize: 0x44 }
  - { offset: 0x1FE95, size: 0x8, addend: 0x0, symName: __ZNSt3__121__convert_to_integralB8ne180100El, symObjAddr: 0x812C, symBinAddr: 0x10000F5A0, symSize: 0x14 }
  - { offset: 0x1FEC2, size: 0x8, addend: 0x0, symName: __ZNSt3__19__advanceB8ne180100IPyEEvRT_NS_15iterator_traitsIS2_E15difference_typeENS_26random_access_iterator_tagE, symObjAddr: 0x8140, symBinAddr: 0x10000F5B4, symSize: 0x28 }
  - { offset: 0x1FF0C, size: 0x8, addend: 0x0, symName: __ZNSt3__130__uninitialized_allocator_copyB8ne180100INS_9allocatorIyEEPyS3_S3_EET2_RT_T0_T1_S4_, symObjAddr: 0x81A4, symBinAddr: 0x10000F618, symSize: 0x80 }
  - { offset: 0x1FFAC, size: 0x8, addend: 0x0, symName: __ZNSt3__114__unwrap_rangeB8ne180100IPyS1_EENS_4pairIT0_S3_EET_S5_, symObjAddr: 0x8294, symBinAddr: 0x10000F708, symSize: 0x60 }
  - { offset: 0x1FFF8, size: 0x8, addend: 0x0, symName: __ZNSt3__135__uninitialized_allocator_copy_implB8ne180100INS_9allocatorIyEEyyyLPv0EEEPT2_RT_PT0_S9_S5_, symObjAddr: 0x82F4, symBinAddr: 0x10000F768, symSize: 0x38 }
  - { offset: 0x2007C, size: 0x8, addend: 0x0, symName: __ZNSt3__113__unwrap_iterB8ne180100IPyNS_18__unwrap_iter_implIS1_Lb1EEELi0EEEDTclsrT0_8__unwrapclsr3stdE7declvalIT_EEEES5_, symObjAddr: 0x832C, symBinAddr: 0x10000F7A0, symSize: 0x24 }
  - { offset: 0x200C1, size: 0x8, addend: 0x0, symName: __ZNSt3__113__rewrap_iterB8ne180100IPyS1_NS_18__unwrap_iter_implIS1_Lb1EEEEET_S4_T0_, symObjAddr: 0x8350, symBinAddr: 0x10000F7C4, symSize: 0x3C }
  - { offset: 0x20116, size: 0x8, addend: 0x0, symName: __ZNSt3__19make_pairB8ne180100IPyS1_EENS_4pairINS_18__unwrap_ref_decayIT_E4typeENS3_IT0_E4typeEEEOS4_OS7_, symObjAddr: 0x838C, symBinAddr: 0x10000F800, symSize: 0x38 }
  - { offset: 0x202BD, size: 0x8, addend: 0x0, symName: __ZNSt3__123__dispatch_copy_or_moveB8ne180100INS_17_ClassicAlgPolicyENS_11__copy_loopIS1_EENS_14__copy_trivialEPyS5_S5_EENS_4pairIT2_T4_EES7_T3_S8_, symObjAddr: 0x84DC, symBinAddr: 0x10000F93C, symSize: 0x44 }
  - { offset: 0x2033C, size: 0x8, addend: 0x0, symName: __ZNSt3__121__unwrap_and_dispatchB8ne180100INS_10__overloadINS_11__copy_loopINS_17_ClassicAlgPolicyEEENS_14__copy_trivialEEEPyS7_S7_Li0EEENS_4pairIT0_T2_EES9_T1_SA_, symObjAddr: 0x8520, symBinAddr: 0x10000F980, symSize: 0xB4 }
  - { offset: 0x20411, size: 0x8, addend: 0x0, symName: __ZNSt3__114__rewrap_rangeB8ne180100IPyS1_EET_S2_T0_, symObjAddr: 0x861C, symBinAddr: 0x10000FA7C, symSize: 0x2C }
  - { offset: 0x2045E, size: 0x8, addend: 0x0, symName: __ZNSt3__119__copy_trivial_implB8ne180100IyyEENS_4pairIPT_PT0_EES3_S3_S5_, symObjAddr: 0x8648, symBinAddr: 0x10000FAA8, symSize: 0x80 }
  - { offset: 0x204C7, size: 0x8, addend: 0x0, symName: __ZNSt3__119__constexpr_memmoveB8ne180100IyyLi0EEEPT_S2_PT0_NS_15__element_countE, symObjAddr: 0x86C8, symBinAddr: 0x10000FB28, symSize: 0x64 }
  - { offset: 0x20535, size: 0x8, addend: 0x0, symName: __ZNSt3__19make_pairB8ne180100IRPyS1_EENS_4pairINS_18__unwrap_ref_decayIT_E4typeENS4_IT0_E4typeEEEOS5_OS8_, symObjAddr: 0x872C, symBinAddr: 0x10000FB8C, symSize: 0x38 }
  - { offset: 0x20585, size: 0x8, addend: 0x0, symName: __ZNSt3__119__allocate_at_leastB8ne180100INS_9allocatorIyEEEENS_19__allocation_resultINS_16allocator_traitsIT_E7pointerEEERS5_m, symObjAddr: 0x8A20, symBinAddr: 0x10000FD08, symSize: 0x40 }
  - { offset: 0x205C9, size: 0x8, addend: 0x0, symName: __ZNSt3__110__distanceB8ne180100IPyEENS_15iterator_traitsIT_E15difference_typeES3_S3_NS_26random_access_iterator_tagE, symObjAddr: 0x8B64, symBinAddr: 0x10000FE4C, symSize: 0x28 }
  - { offset: 0x20618, size: 0x8, addend: 0x0, symName: __ZNSt3__122__make_exception_guardB8ne180100INS_6vectorIyNS_9allocatorIyEEE16__destroy_vectorEEENS_28__exception_guard_exceptionsIT_EES7_, symObjAddr: 0x8CE8, symBinAddr: 0x10000FFD0, symSize: 0x40 }
  - { offset: 0x2064D, size: 0x8, addend: 0x0, symName: __ZNSt3__142__uninitialized_allocator_move_if_noexceptB8ne180100INS_9allocatorIyEENS_16reverse_iteratorIPyEES5_yvEET1_RT_T0_S9_S6_, symObjAddr: 0x96E8, symBinAddr: 0x1000108AC, symSize: 0x78 }
  - { offset: 0x206CC, size: 0x8, addend: 0x0, symName: __ZNSt3__14swapB8ne180100IPyEENS_9enable_ifIXaasr21is_move_constructibleIT_EE5valuesr18is_move_assignableIS3_EE5valueEvE4typeERS3_S6_, symObjAddr: 0x97AC, symBinAddr: 0x100010970, symSize: 0x3C }
  - { offset: 0x2071E, size: 0x8, addend: 0x0, symName: __ZNSt3__14moveB8ne180100INS_16reverse_iteratorIPyEES3_EET0_T_S5_S4_, symObjAddr: 0x97E8, symBinAddr: 0x1000109AC, symSize: 0x78 }
  - { offset: 0x20779, size: 0x8, addend: 0x0, symName: __ZNSt3__16__moveB8ne180100INS_17_ClassicAlgPolicyENS_16reverse_iteratorIPyEES4_S4_EENS_4pairIT0_T2_EES6_T1_S7_, symObjAddr: 0x9860, symBinAddr: 0x100010A24, symSize: 0x64 }
  - { offset: 0x207E6, size: 0x8, addend: 0x0, symName: __ZNSt3__123__dispatch_copy_or_moveB8ne180100INS_17_ClassicAlgPolicyENS_11__move_loopIS1_EENS_14__move_trivialENS_16reverse_iteratorIPyEES7_S7_EENS_4pairIT2_T4_EES9_T3_SA_, symObjAddr: 0x98C4, symBinAddr: 0x100010A88, symSize: 0x64 }
  - { offset: 0x20865, size: 0x8, addend: 0x0, symName: __ZNSt3__121__unwrap_and_dispatchB8ne180100INS_10__overloadINS_11__move_loopINS_17_ClassicAlgPolicyEEENS_14__move_trivialEEENS_16reverse_iteratorIPyEES9_S9_Li0EEENS_4pairIT0_T2_EESB_T1_SC_, symObjAddr: 0x9928, symBinAddr: 0x100010AEC, symSize: 0x12C }
  - { offset: 0x208F6, size: 0x8, addend: 0x0, symName: __ZNSt3__114__unwrap_rangeB8ne180100INS_16reverse_iteratorIPyEES3_EENS_4pairIT0_S5_EET_S7_, symObjAddr: 0x9A54, symBinAddr: 0x100010C18, symSize: 0x84 }
  - { offset: 0x20A72, size: 0x8, addend: 0x0, symName: __ZNSt3__113__unwrap_iterB8ne180100INS_16reverse_iteratorIPyEENS_18__unwrap_iter_implIS3_Lb0EEELi0EEEDTclsrT0_8__unwrapclsr3stdE7declvalIT_EEEES7_, symObjAddr: 0x9B78, symBinAddr: 0x100010D3C, symSize: 0x44 }
  - { offset: 0x20AB6, size: 0x8, addend: 0x0, symName: __ZNSt3__19make_pairB8ne180100INS_16reverse_iteratorIPyEES3_EENS_4pairINS_18__unwrap_ref_decayIT_E4typeENS5_IT0_E4typeEEEOS6_OS9_, symObjAddr: 0x9BBC, symBinAddr: 0x100010D80, symSize: 0x38 }
  - { offset: 0x20B06, size: 0x8, addend: 0x0, symName: __ZNSt3__114__rewrap_rangeB8ne180100INS_16reverse_iteratorIPyEES3_EET_S4_T0_, symObjAddr: 0x9BF4, symBinAddr: 0x100010DB8, symSize: 0x5C }
  - { offset: 0x20B53, size: 0x8, addend: 0x0, symName: __ZNSt3__113__rewrap_iterB8ne180100INS_16reverse_iteratorIPyEES3_NS_18__unwrap_iter_implIS3_Lb0EEEEET_S6_T0_, symObjAddr: 0x9C50, symBinAddr: 0x100010E14, symSize: 0x74 }
  - { offset: 0x20BA9, size: 0x8, addend: 0x0, symName: __ZNSt3__1neB8ne180100IPyS1_EEbRKNS_16reverse_iteratorIT_EERKNS2_IT0_EE, symObjAddr: 0x9CC4, symBinAddr: 0x100010E88, symSize: 0x48 }
  - { offset: 0x20CA1, size: 0x8, addend: 0x0, symName: __ZNSt3__112__to_addressB8ne180100IKN9EzAquarii6Parser17stack_symbol_typeEEEPT_S6_, symObjAddr: 0xA2E0, symBinAddr: 0x10001144C, symSize: 0x14 }
  - { offset: 0x21ACC, size: 0x8, addend: 0x0, symName: __ZSt28__throw_bad_array_new_lengthB8ne180100v, symObjAddr: 0x59F4, symBinAddr: 0x10000D3F4, symSize: 0x34 }
  - { offset: 0x221CB, size: 0x8, addend: 0x0, symName: __ZNK9EzAquarii6Parser15yysyntax_error_ERKNS0_7contextE, symObjAddr: 0x39FC, symBinAddr: 0x10000C090, symSize: 0x294 }
  - { offset: 0x222E0, size: 0x8, addend: 0x0, symName: __ZNSt3__16vectorIN9EzAquarii6Parser17stack_symbol_typeENS_9allocatorIS3_EEE26__swap_out_circular_bufferERNS_14__split_bufferIS3_RS5_EE, symObjAddr: 0x6A8C, symBinAddr: 0x10000E0B8, symSize: 0x110 }
  - { offset: 0x22390, size: 0x8, addend: 0x0, symName: __ZNSt3__16vectorIyNS_9allocatorIyEEE26__swap_out_circular_bufferERNS_14__split_bufferIyRS2_EE, symObjAddr: 0x9380, symBinAddr: 0x100010544, symSize: 0x110 }
  - { offset: 0x22404, size: 0x8, addend: 0x0, symName: __ZN9EzAquarii6ParserC2ERNS_7ScannerE, symObjAddr: 0x0, symBinAddr: 0x100008B84, symSize: 0x60 }
  - { offset: 0x2243C, size: 0x8, addend: 0x0, symName: __ZN9EzAquarii6Parser5stackINS0_17stack_symbol_typeENSt3__16vectorIS2_NS3_9allocatorIS2_EEEEEC1Em, symObjAddr: 0x60, symBinAddr: 0x100008BE4, symSize: 0x34 }
  - { offset: 0x22474, size: 0x8, addend: 0x0, symName: __ZN9EzAquarii6ParserC1ERNS_7ScannerE, symObjAddr: 0x94, symBinAddr: 0x100008C18, symSize: 0x34 }
  - { offset: 0x224AD, size: 0x8, addend: 0x0, symName: __ZN9EzAquarii6ParserD2Ev, symObjAddr: 0xC8, symBinAddr: 0x100008C4C, symSize: 0x40 }
  - { offset: 0x224D8, size: 0x8, addend: 0x0, symName: __ZN9EzAquarii6Parser5stackINS0_17stack_symbol_typeENSt3__16vectorIS2_NS3_9allocatorIS2_EEEEED1Ev, symObjAddr: 0x108, symBinAddr: 0x100008C8C, symSize: 0x2C }
  - { offset: 0x22504, size: 0x8, addend: 0x0, symName: __ZN9EzAquarii6ParserD1Ev, symObjAddr: 0x134, symBinAddr: 0x100008CB8, symSize: 0x2C }
  - { offset: 0x2252F, size: 0x8, addend: 0x0, symName: __ZN9EzAquarii6ParserD0Ev, symObjAddr: 0x160, symBinAddr: 0x100008CE4, symSize: 0x30 }
  - { offset: 0x2255A, size: 0x8, addend: 0x0, symName: __ZN9EzAquarii6Parser12syntax_errorD2Ev, symObjAddr: 0x190, symBinAddr: 0x100008D14, symSize: 0x2C }
  - { offset: 0x22585, size: 0x8, addend: 0x0, symName: __ZN9EzAquarii6Parser12syntax_errorD1Ev, symObjAddr: 0x1BC, symBinAddr: 0x100008D40, symSize: 0x2C }
  - { offset: 0x225B0, size: 0x8, addend: 0x0, symName: __ZN9EzAquarii6Parser12syntax_errorD0Ev, symObjAddr: 0x1E8, symBinAddr: 0x100008D6C, symSize: 0x30 }
  - { offset: 0x225DB, size: 0x8, addend: 0x0, symName: __ZN9EzAquarii6Parser8by_stateC2Ev, symObjAddr: 0x218, symBinAddr: 0x100008D9C, symSize: 0x18 }
  - { offset: 0x22606, size: 0x8, addend: 0x0, symName: __ZN9EzAquarii6Parser8by_stateC1Ev, symObjAddr: 0x230, symBinAddr: 0x100008DB4, symSize: 0x2C }
  - { offset: 0x22631, size: 0x8, addend: 0x0, symName: __ZN9EzAquarii6Parser8by_stateC2ERKS1_, symObjAddr: 0x25C, symBinAddr: 0x100008DE0, symSize: 0x24 }
  - { offset: 0x2266A, size: 0x8, addend: 0x0, symName: __ZN9EzAquarii6Parser8by_stateC1ERKS1_, symObjAddr: 0x280, symBinAddr: 0x100008E04, symSize: 0x34 }
  - { offset: 0x226A3, size: 0x8, addend: 0x0, symName: __ZN9EzAquarii6Parser8by_state5clearEv, symObjAddr: 0x2B4, symBinAddr: 0x100008E38, symSize: 0x18 }
  - { offset: 0x226CA, size: 0x8, addend: 0x0, symName: __ZN9EzAquarii6Parser8by_state4moveERS1_, symObjAddr: 0x2CC, symBinAddr: 0x100008E50, symSize: 0x38 }
  - { offset: 0x226FF, size: 0x8, addend: 0x0, symName: __ZN9EzAquarii6Parser8by_stateC2Ea, symObjAddr: 0x304, symBinAddr: 0x100008E88, symSize: 0x20 }
  - { offset: 0x22738, size: 0x8, addend: 0x0, symName: __ZN9EzAquarii6Parser8by_stateC1Ea, symObjAddr: 0x324, symBinAddr: 0x100008EA8, symSize: 0x34 }
  - { offset: 0x22771, size: 0x8, addend: 0x0, symName: __ZNK9EzAquarii6Parser8by_state4kindEv, symObjAddr: 0x358, symBinAddr: 0x100008EDC, symSize: 0x58 }
  - { offset: 0x22798, size: 0x8, addend: 0x0, symName: __ZN9EzAquarii6Parser17stack_symbol_typeC2Ev, symObjAddr: 0x3B0, symBinAddr: 0x100008F34, symSize: 0x2C }
  - { offset: 0x227C2, size: 0x8, addend: 0x0, symName: __ZN9EzAquarii6Parser12basic_symbolINS0_8by_stateEEC2Ev, symObjAddr: 0x3DC, symBinAddr: 0x100008F60, symSize: 0x38 }
  - { offset: 0x227EB, size: 0x8, addend: 0x0, symName: __ZN9EzAquarii6Parser17stack_symbol_typeC1Ev, symObjAddr: 0x414, symBinAddr: 0x100008F98, symSize: 0x2C }
  - { offset: 0x22816, size: 0x8, addend: 0x0, symName: __ZN9EzAquarii6Parser17stack_symbol_typeC2EOS1_, symObjAddr: 0x440, symBinAddr: 0x100008FC4, symSize: 0x118 }
  - { offset: 0x2284E, size: 0x8, addend: 0x0, symName: __ZN9EzAquarii6Parser12basic_symbolINS0_8by_stateEEC2Ea, symObjAddr: 0x580, symBinAddr: 0x100009104, symSize: 0x40 }
  - { offset: 0x2288B, size: 0x8, addend: 0x0, symName: __ZN9EzAquarii6Parser10value_type4moveINS_7CommandEEEvOS1_, symObjAddr: 0x5C0, symBinAddr: 0x100009144, symSize: 0x44 }
  - { offset: 0x228C8, size: 0x8, addend: 0x0, symName: __ZN9EzAquarii6Parser10value_type4moveINSt3__16vectorIyNS3_9allocatorIyEEEEEEvOS1_, symObjAddr: 0x604, symBinAddr: 0x100009188, symSize: 0x44 }
  - { offset: 0x22905, size: 0x8, addend: 0x0, symName: __ZN9EzAquarii6Parser10value_type4moveINSt3__112basic_stringIcNS3_11char_traitsIcEENS3_9allocatorIcEEEEEEvOS1_, symObjAddr: 0x648, symBinAddr: 0x1000091CC, symSize: 0x44 }
  - { offset: 0x22942, size: 0x8, addend: 0x0, symName: __ZN9EzAquarii6Parser10value_type4moveIyEEvOS1_, symObjAddr: 0x68C, symBinAddr: 0x100009210, symSize: 0x44 }
  - { offset: 0x2297E, size: 0x8, addend: 0x0, symName: __ZN9EzAquarii6Parser12basic_symbolINS0_8by_stateEED2Ev, symObjAddr: 0x6D0, symBinAddr: 0x100009254, symSize: 0x38 }
  - { offset: 0x229A7, size: 0x8, addend: 0x0, symName: __ZN9EzAquarii6Parser17stack_symbol_typeC1EOS1_, symObjAddr: 0x708, symBinAddr: 0x10000928C, symSize: 0x34 }
  - { offset: 0x229E0, size: 0x8, addend: 0x0, symName: __ZN9EzAquarii6Parser17stack_symbol_typeC2EaONS0_11symbol_typeE, symObjAddr: 0x73C, symBinAddr: 0x1000092C0, symSize: 0x11C }
  - { offset: 0x22A27, size: 0x8, addend: 0x0, symName: __ZN9EzAquarii6Parser17stack_symbol_typeC1EaONS0_11symbol_typeE, symObjAddr: 0x898, symBinAddr: 0x100009404, symSize: 0x3C }
  - { offset: 0x22A6E, size: 0x8, addend: 0x0, symName: __ZN9EzAquarii6Parser7yypush_EPKcONS0_17stack_symbol_typeE, symObjAddr: 0x8D4, symBinAddr: 0x100009440, symSize: 0xB0 }
  - { offset: 0x22AB4, size: 0x8, addend: 0x0, symName: __ZNK9EzAquarii6Parser9yy_print_INS0_8by_stateEEEvRNSt3__113basic_ostreamIcNS3_11char_traitsIcEEEERKNS0_12basic_symbolIT_EE, symObjAddr: 0xA00, symBinAddr: 0x100009524, symSize: 0x120 }
  - { offset: 0x22B26, size: 0x8, addend: 0x0, symName: __ZN9EzAquarii6Parser5stackINS0_17stack_symbol_typeENSt3__16vectorIS2_NS3_9allocatorIS2_EEEEE4pushEOS2_, symObjAddr: 0xB20, symBinAddr: 0x100009644, symSize: 0xCC }
  - { offset: 0x22B5A, size: 0x8, addend: 0x0, symName: __ZN9EzAquarii6Parser7yypush_EPKcaONS0_11symbol_typeE, symObjAddr: 0xBEC, symBinAddr: 0x100009710, symSize: 0xD0 }
  - { offset: 0x22BB0, size: 0x8, addend: 0x0, symName: __ZN9EzAquarii6Parser17stack_symbol_typeD1Ev, symObjAddr: 0xCBC, symBinAddr: 0x1000097E0, symSize: 0x2C }
  - { offset: 0x22BDC, size: 0x8, addend: 0x0, symName: __ZN9EzAquarii6Parser6yypop_Ei, symObjAddr: 0xCE8, symBinAddr: 0x10000980C, symSize: 0x30 }
  - { offset: 0x22C13, size: 0x8, addend: 0x0, symName: __ZN9EzAquarii6Parser5stackINS0_17stack_symbol_typeENSt3__16vectorIS2_NS3_9allocatorIS2_EEEEE3popEl, symObjAddr: 0xD18, symBinAddr: 0x10000983C, symSize: 0x68 }
  - { offset: 0x22C47, size: 0x8, addend: 0x0, symName: __ZNK9EzAquarii6Parser12debug_streamEv, symObjAddr: 0xD80, symBinAddr: 0x1000098A4, symSize: 0x18 }
  - { offset: 0x22C6F, size: 0x8, addend: 0x0, symName: __ZN9EzAquarii6Parser16set_debug_streamERNSt3__113basic_ostreamIcNS1_11char_traitsIcEEEE, symObjAddr: 0xD98, symBinAddr: 0x1000098BC, symSize: 0x20 }
  - { offset: 0x22CA6, size: 0x8, addend: 0x0, symName: __ZNK9EzAquarii6Parser11debug_levelEv, symObjAddr: 0xDB8, symBinAddr: 0x1000098DC, symSize: 0x18 }
  - { offset: 0x22CCE, size: 0x8, addend: 0x0, symName: __ZN9EzAquarii6Parser15set_debug_levelEi, symObjAddr: 0xDD0, symBinAddr: 0x1000098F4, symSize: 0x20 }
  - { offset: 0x22D05, size: 0x8, addend: 0x0, symName: __ZN9EzAquarii6Parser17yy_lr_goto_state_Eai, symObjAddr: 0xDF0, symBinAddr: 0x100009914, symSize: 0xC4 }
  - { offset: 0x22D4B, size: 0x8, addend: 0x0, symName: __ZN9EzAquarii6Parser25yy_pact_value_is_default_Ei, symObjAddr: 0xEB4, symBinAddr: 0x1000099D8, symSize: 0x20 }
  - { offset: 0x22D72, size: 0x8, addend: 0x0, symName: __ZN9EzAquarii6Parser24yy_table_value_is_error_Ei, symObjAddr: 0xED4, symBinAddr: 0x1000099F8, symSize: 0x20 }
  - { offset: 0x22D99, size: 0x8, addend: 0x0, symName: __ZN9EzAquarii6ParserclEv, symObjAddr: 0xEF4, symBinAddr: 0x100009A18, symSize: 0x2C }
  - { offset: 0x22DC1, size: 0x8, addend: 0x0, symName: __ZN9EzAquarii6Parser5parseEv, symObjAddr: 0xF20, symBinAddr: 0x100009A44, symSize: 0x15FC }
  - { offset: 0x23039, size: 0x8, addend: 0x0, symName: __ZN9EzAquarii6Parser11symbol_typeC1Ev, symObjAddr: 0x2560, symBinAddr: 0x10000B084, symSize: 0x2C }
  - { offset: 0x23062, size: 0x8, addend: 0x0, symName: __ZN9EzAquarii6Parser5stackINS0_17stack_symbol_typeENSt3__16vectorIS2_NS3_9allocatorIS2_EEEEE5clearEv, symObjAddr: 0x258C, symBinAddr: 0x10000B0B0, symSize: 0x24 }
  - { offset: 0x23087, size: 0x8, addend: 0x0, symName: __ZN9EzAquarii6Parser5stackINS0_17stack_symbol_typeENSt3__16vectorIS2_NS3_9allocatorIS2_EEEEEixEl, symObjAddr: 0x25B0, symBinAddr: 0x10000B0D4, symSize: 0x44 }
  - { offset: 0x230BB, size: 0x8, addend: 0x0, symName: __ZNK9EzAquarii6Parser12basic_symbolINS0_7by_kindEE5emptyEv, symObjAddr: 0x25F4, symBinAddr: 0x10000B118, symSize: 0x30 }
  - { offset: 0x230E2, size: 0x8, addend: 0x0, symName: __ZL5yylexRN9EzAquarii7ScannerE, symObjAddr: 0x2624, symBinAddr: 0x10000B148, symSize: 0x88 }
  - { offset: 0x2310F, size: 0x8, addend: 0x0, symName: __ZN9EzAquarii6Parser12basic_symbolINS0_7by_kindEE4moveERS3_, symObjAddr: 0x26AC, symBinAddr: 0x10000B1D0, symSize: 0xD0 }
  - { offset: 0x23145, size: 0x8, addend: 0x0, symName: __ZN9EzAquarii6Parser11symbol_typeD1Ev, symObjAddr: 0x27A4, symBinAddr: 0x10000B2C8, symSize: 0x2C }
  - { offset: 0x23171, size: 0x8, addend: 0x0, symName: __ZN9EzAquarii6Parser5errorERKNS0_12syntax_errorE, symObjAddr: 0x27D0, symBinAddr: 0x10000B2F4, symSize: 0x88 }
  - { offset: 0x231A8, size: 0x8, addend: 0x0, symName: __ZNK9EzAquarii6Parser9yy_print_INS0_7by_kindEEEvRNSt3__113basic_ostreamIcNS3_11char_traitsIcEEEERKNS0_12basic_symbolIT_EE, symObjAddr: 0x2868, symBinAddr: 0x10000B37C, symSize: 0x120 }
  - { offset: 0x2321F, size: 0x8, addend: 0x0, symName: __ZN9EzAquarii6Parser10value_type7emplaceINS_7CommandEJEEERT_DpOT0_, symObjAddr: 0x2988, symBinAddr: 0x10000B49C, symSize: 0x7C }
  - { offset: 0x23253, size: 0x8, addend: 0x0, symName: __ZN9EzAquarii6Parser10value_type7emplaceINSt3__16vectorIyNS3_9allocatorIyEEEEJEEERT_DpOT0_, symObjAddr: 0x2A04, symBinAddr: 0x10000B518, symSize: 0x7C }
  - { offset: 0x2328C, size: 0x8, addend: 0x0, symName: __ZN9EzAquarii6Parser10value_type7emplaceINSt3__112basic_stringIcNS3_11char_traitsIcEENS3_9allocatorIcEEEEJEEERT_DpOT0_, symObjAddr: 0x2A80, symBinAddr: 0x10000B594, symSize: 0x7C }
  - { offset: 0x232C0, size: 0x8, addend: 0x0, symName: __ZN9EzAquarii6Parser10value_type7emplaceIyJEEERT_DpOT0_, symObjAddr: 0x2AFC, symBinAddr: 0x10000B610, symSize: 0x74 }
  - { offset: 0x232F9, size: 0x8, addend: 0x0, symName: __ZN9EzAquarii7CommandaSERKS0_, symObjAddr: 0x2DB0, symBinAddr: 0x10000B6D0, symSize: 0x48 }
  - { offset: 0x23329, size: 0x8, addend: 0x0, symName: __ZNKSt3__16vectorIyNS_9allocatorIyEEE4sizeB8ne180100Ev, symObjAddr: 0x2EB0, symBinAddr: 0x10000B718, symSize: 0x28 }
  - { offset: 0x2334E, size: 0x8, addend: 0x0, symName: __ZNSt3__16vectorIyNS_9allocatorIyEEEC1ERKS3_, symObjAddr: 0x2ED8, symBinAddr: 0x10000B740, symSize: 0x34 }
  - { offset: 0x23387, size: 0x8, addend: 0x0, symName: __ZNSt3__16vectorIyNS_9allocatorIyEEEC1B8ne180100Ev, symObjAddr: 0x2FF0, symBinAddr: 0x10000B774, symSize: 0x2C }
  - { offset: 0x233B0, size: 0x8, addend: 0x0, symName: __ZNSt3__16vectorIyNS_9allocatorIyEEEaSB8ne180100EOS3_, symObjAddr: 0x301C, symBinAddr: 0x10000B7A0, symSize: 0x34 }
  - { offset: 0x233E6, size: 0x8, addend: 0x0, symName: __ZNSt3__16vectorIyNS_9allocatorIyEEE9push_backB8ne180100ERKy, symObjAddr: 0x3050, symBinAddr: 0x10000B7D4, symSize: 0x90 }
  - { offset: 0x2342C, size: 0x8, addend: 0x0, symName: __ZNSt3__16vectorIyNS_9allocatorIyEEEaSB8ne180100ERKS3_, symObjAddr: 0x30E0, symBinAddr: 0x10000B864, symSize: 0x68 }
  - { offset: 0x23462, size: 0x8, addend: 0x0, symName: __ZN9EzAquarii6Parser7contextC1ERKS0_RKNS0_11symbol_typeE, symObjAddr: 0x3148, symBinAddr: 0x10000B8CC, symSize: 0x3C }
  - { offset: 0x234AC, size: 0x8, addend: 0x0, symName: __ZNK9EzAquarii6Parser11yy_destroy_INS0_7by_kindEEEvPKcRNS0_12basic_symbolIT_EE, symObjAddr: 0x3184, symBinAddr: 0x10000B908, symSize: 0xA0 }
  - { offset: 0x234F8, size: 0x8, addend: 0x0, symName: __ZNK9EzAquarii6Parser5stackINS0_17stack_symbol_typeENSt3__16vectorIS2_NS3_9allocatorIS2_EEEEE4sizeEv, symObjAddr: 0x3308, symBinAddr: 0x10000B9D0, symSize: 0x24 }
  - { offset: 0x2351D, size: 0x8, addend: 0x0, symName: __ZNK9EzAquarii6Parser11yy_destroy_INS0_8by_stateEEEvPKcRNS0_12basic_symbolIT_EE, symObjAddr: 0x332C, symBinAddr: 0x10000B9F4, symSize: 0xA0 }
  - { offset: 0x2356E, size: 0x8, addend: 0x0, symName: __ZN9EzAquarii6Parser10yytnamerr_EPKc, symObjAddr: 0x3400, symBinAddr: 0x10000BA94, symSize: 0x194 }
  - { offset: 0x235DD, size: 0x8, addend: 0x0, symName: __ZNSt3__112basic_stringIcNS_11char_traitsIcEENS_9allocatorIcEEEC1B8ne180100Ev, symObjAddr: 0x3594, symBinAddr: 0x10000BC28, symSize: 0x2C }
  - { offset: 0x23606, size: 0x8, addend: 0x0, symName: __ZNSt3__112basic_stringIcNS_11char_traitsIcEENS_9allocatorIcEEEpLB8ne180100Ec, symObjAddr: 0x35C0, symBinAddr: 0x10000BC54, symSize: 0x34 }
  - { offset: 0x2363A, size: 0x8, addend: 0x0, symName: __ZN9EzAquarii6Parser11symbol_nameENS0_11symbol_kind16symbol_kind_typeE, symObjAddr: 0x35F4, symBinAddr: 0x10000BC88, symSize: 0x38 }
  - { offset: 0x23661, size: 0x8, addend: 0x0, symName: __ZN9EzAquarii6Parser7contextC2ERKS0_RKNS0_11symbol_typeE, symObjAddr: 0x362C, symBinAddr: 0x10000BCC0, symSize: 0x2C }
  - { offset: 0x236AB, size: 0x8, addend: 0x0, symName: __ZNK9EzAquarii6Parser7context15expected_tokensEPNS0_11symbol_kind16symbol_kind_typeEi, symObjAddr: 0x3658, symBinAddr: 0x10000BCEC, symSize: 0x250 }
  - { offset: 0x2376F, size: 0x8, addend: 0x0, symName: __ZNK9EzAquarii6Parser5stackINS0_17stack_symbol_typeENSt3__16vectorIS2_NS3_9allocatorIS2_EEEEEixEl, symObjAddr: 0x38A8, symBinAddr: 0x10000BF3C, symSize: 0x44 }
  - { offset: 0x237A3, size: 0x8, addend: 0x0, symName: __ZNK9EzAquarii6Parser26yy_syntax_error_arguments_ERKNS0_7contextEPNS0_11symbol_kind16symbol_kind_typeEi, symObjAddr: 0x38EC, symBinAddr: 0x10000BF80, symSize: 0xD0 }
  - { offset: 0x23817, size: 0x8, addend: 0x0, symName: __ZNK9EzAquarii6Parser7context9lookaheadEv, symObjAddr: 0x39BC, symBinAddr: 0x10000C050, symSize: 0x18 }
  - { offset: 0x2383C, size: 0x8, addend: 0x0, symName: __ZNK9EzAquarii6Parser7context5tokenEv, symObjAddr: 0x39D4, symBinAddr: 0x10000C068, symSize: 0x28 }
  - { offset: 0x23861, size: 0x8, addend: 0x0, symName: __ZNSt3__112basic_stringIcNS_11char_traitsIcEENS_9allocatorIcEEEpLB8ne180100ERKS5_, symObjAddr: 0x3CA8, symBinAddr: 0x10000C33C, symSize: 0x2C }
  - { offset: 0x23895, size: 0x8, addend: 0x0, symName: __ZNK9EzAquarii6Parser15yy_stack_print_Ev, symObjAddr: 0x3CD4, symBinAddr: 0x10000C368, symSize: 0xB8 }
  - { offset: 0x238EC, size: 0x8, addend: 0x0, symName: __ZNK9EzAquarii6Parser5stackINS0_17stack_symbol_typeENSt3__16vectorIS2_NS3_9allocatorIS2_EEEEE5beginEv, symObjAddr: 0x3D8C, symBinAddr: 0x10000C420, symSize: 0x2C }
  - { offset: 0x23911, size: 0x8, addend: 0x0, symName: __ZNK9EzAquarii6Parser5stackINS0_17stack_symbol_typeENSt3__16vectorIS2_NS3_9allocatorIS2_EEEEE3endEv, symObjAddr: 0x3DB8, symBinAddr: 0x10000C44C, symSize: 0x2C }
  - { offset: 0x23936, size: 0x8, addend: 0x0, symName: __ZNKSt3__111__wrap_iterIPKN9EzAquarii6Parser17stack_symbol_typeEEptB8ne180100Ev, symObjAddr: 0x3E18, symBinAddr: 0x10000C4AC, symSize: 0x28 }
  - { offset: 0x2395B, size: 0x8, addend: 0x0, symName: __ZNSt3__111__wrap_iterIPKN9EzAquarii6Parser17stack_symbol_typeEEppB8ne180100Ev, symObjAddr: 0x3E40, symBinAddr: 0x10000C4D4, symSize: 0x20 }
  - { offset: 0x23980, size: 0x8, addend: 0x0, symName: __ZNK9EzAquarii6Parser16yy_reduce_print_Ei, symObjAddr: 0x3E60, symBinAddr: 0x10000C4F4, symSize: 0x164 }
  - { offset: 0x239F6, size: 0x8, addend: 0x0, symName: __ZN9EzAquarii6Parser5errorERKNSt3__112basic_stringIcNS1_11char_traitsIcEENS1_9allocatorIcEEEE, symObjAddr: 0x3FC4, symBinAddr: 0x10000C658, symSize: 0x14 }
  - { offset: 0x23A2B, size: 0x8, addend: 0x0, symName: __ZN9EzAquarii6Parser5stackINS0_17stack_symbol_typeENSt3__16vectorIS2_NS3_9allocatorIS2_EEEEED2Ev, symObjAddr: 0x3FD8, symBinAddr: 0x10000C66C, symSize: 0x2C }
  - { offset: 0x23A56, size: 0x8, addend: 0x0, symName: __ZNSt3__16vectorIN9EzAquarii6Parser17stack_symbol_typeENS_9allocatorIS3_EEED1B8ne180100Ev, symObjAddr: 0x4004, symBinAddr: 0x10000C698, symSize: 0x2C }
  - { offset: 0x23A7E, size: 0x8, addend: 0x0, symName: __ZNSt3__16vectorIN9EzAquarii6Parser17stack_symbol_typeENS_9allocatorIS3_EEED2B8ne180100Ev, symObjAddr: 0x4030, symBinAddr: 0x10000C6C4, symSize: 0x44 }
  - { offset: 0x23AA6, size: 0x8, addend: 0x0, symName: __ZNSt3__16vectorIN9EzAquarii6Parser17stack_symbol_typeENS_9allocatorIS3_EEE16__destroy_vectorC1B8ne180100ERS6_, symObjAddr: 0x4074, symBinAddr: 0x10000C708, symSize: 0x34 }
  - { offset: 0x23ADE, size: 0x8, addend: 0x0, symName: __ZNSt3__16vectorIN9EzAquarii6Parser17stack_symbol_typeENS_9allocatorIS3_EEE16__destroy_vectorclB8ne180100Ev, symObjAddr: 0x40A8, symBinAddr: 0x10000C73C, symSize: 0x90 }
  - { offset: 0x23B03, size: 0x8, addend: 0x0, symName: __ZNSt3__16vectorIN9EzAquarii6Parser17stack_symbol_typeENS_9allocatorIS3_EEE16__destroy_vectorC2B8ne180100ERS6_, symObjAddr: 0x4138, symBinAddr: 0x10000C7CC, symSize: 0x20 }
  - { offset: 0x23B3B, size: 0x8, addend: 0x0, symName: __ZNSt3__16vectorIN9EzAquarii6Parser17stack_symbol_typeENS_9allocatorIS3_EEE7__clearB8ne180100Ev, symObjAddr: 0x4158, symBinAddr: 0x10000C7EC, symSize: 0x28 }
  - { offset: 0x23B60, size: 0x8, addend: 0x0, symName: __ZNKSt3__16vectorIN9EzAquarii6Parser17stack_symbol_typeENS_9allocatorIS3_EEE17__annotate_deleteB8ne180100Ev, symObjAddr: 0x4180, symBinAddr: 0x10000C814, symSize: 0x10 }
  - { offset: 0x23B85, size: 0x8, addend: 0x0, symName: __ZNSt3__116allocator_traitsINS_9allocatorIN9EzAquarii6Parser17stack_symbol_typeEEEE10deallocateB8ne180100ERS5_PS4_m, symObjAddr: 0x4190, symBinAddr: 0x10000C824, symSize: 0x34 }
  - { offset: 0x23BC7, size: 0x8, addend: 0x0, symName: __ZNSt3__16vectorIN9EzAquarii6Parser17stack_symbol_typeENS_9allocatorIS3_EEE7__allocB8ne180100Ev, symObjAddr: 0x41C4, symBinAddr: 0x10000C858, symSize: 0x28 }
  - { offset: 0x23BEC, size: 0x8, addend: 0x0, symName: __ZNKSt3__16vectorIN9EzAquarii6Parser17stack_symbol_typeENS_9allocatorIS3_EEE8capacityB8ne180100Ev, symObjAddr: 0x41EC, symBinAddr: 0x10000C880, symSize: 0x40 }
  - { offset: 0x23C11, size: 0x8, addend: 0x0, symName: __ZNSt3__16vectorIN9EzAquarii6Parser17stack_symbol_typeENS_9allocatorIS3_EEE22__base_destruct_at_endB8ne180100EPS3_, symObjAddr: 0x422C, symBinAddr: 0x10000C8C0, symSize: 0x8C }
  - { offset: 0x23C55, size: 0x8, addend: 0x0, symName: __ZNSt3__116allocator_traitsINS_9allocatorIN9EzAquarii6Parser17stack_symbol_typeEEEE7destroyB8ne180100IS4_vEEvRS5_PT_, symObjAddr: 0x42B8, symBinAddr: 0x10000C94C, symSize: 0x2C }
  - { offset: 0x23C92, size: 0x8, addend: 0x0, symName: __ZNSt3__19allocatorIN9EzAquarii6Parser17stack_symbol_typeEE7destroyB8ne180100EPS3_, symObjAddr: 0x42F8, symBinAddr: 0x10000C98C, symSize: 0x28 }
  - { offset: 0x23CC5, size: 0x8, addend: 0x0, symName: __ZNSt3__19allocatorIN9EzAquarii6Parser17stack_symbol_typeEE10deallocateB8ne180100EPS3_m, symObjAddr: 0x4320, symBinAddr: 0x10000C9B4, symSize: 0x40 }
  - { offset: 0x23D06, size: 0x8, addend: 0x0, symName: __ZNSt3__117__compressed_pairIPN9EzAquarii6Parser17stack_symbol_typeENS_9allocatorIS3_EEE6secondB8ne180100Ev, symObjAddr: 0x43DC, symBinAddr: 0x10000C9F4, symSize: 0x24 }
  - { offset: 0x23D2B, size: 0x8, addend: 0x0, symName: __ZNSt3__122__compressed_pair_elemINS_9allocatorIN9EzAquarii6Parser17stack_symbol_typeEEELi1ELb1EE5__getB8ne180100Ev, symObjAddr: 0x4400, symBinAddr: 0x10000CA18, symSize: 0x14 }
  - { offset: 0x23D50, size: 0x8, addend: 0x0, symName: __ZNKSt3__16vectorIN9EzAquarii6Parser17stack_symbol_typeENS_9allocatorIS3_EEE9__end_capB8ne180100Ev, symObjAddr: 0x4414, symBinAddr: 0x10000CA2C, symSize: 0x28 }
  - { offset: 0x23D75, size: 0x8, addend: 0x0, symName: __ZNKSt3__117__compressed_pairIPN9EzAquarii6Parser17stack_symbol_typeENS_9allocatorIS3_EEE5firstB8ne180100Ev, symObjAddr: 0x443C, symBinAddr: 0x10000CA54, symSize: 0x24 }
  - { offset: 0x23D9A, size: 0x8, addend: 0x0, symName: __ZNKSt3__122__compressed_pair_elemIPN9EzAquarii6Parser17stack_symbol_typeELi0ELb0EE5__getB8ne180100Ev, symObjAddr: 0x4460, symBinAddr: 0x10000CA78, symSize: 0x14 }
  - { offset: 0x23DBF, size: 0x8, addend: 0x0, symName: __ZN9EzAquarii6Parser17stack_symbol_typeD2Ev, symObjAddr: 0x4474, symBinAddr: 0x10000CA8C, symSize: 0x2C }
  - { offset: 0x23DEA, size: 0x8, addend: 0x0, symName: __ZN9EzAquarii6Parser11symbol_typeC2Ev, symObjAddr: 0x44A0, symBinAddr: 0x10000CAB8, symSize: 0x2C }
  - { offset: 0x23E12, size: 0x8, addend: 0x0, symName: __ZN9EzAquarii6Parser12basic_symbolINS0_7by_kindEEC2Ev, symObjAddr: 0x44CC, symBinAddr: 0x10000CAE4, symSize: 0x38 }
  - { offset: 0x23E3B, size: 0x8, addend: 0x0, symName: __ZN9EzAquarii6Parser7by_kindC2Ev, symObjAddr: 0x4504, symBinAddr: 0x10000CB1C, symSize: 0x1C }
  - { offset: 0x23E66, size: 0x8, addend: 0x0, symName: __ZN9EzAquarii6Parser11symbol_typeD2Ev, symObjAddr: 0x4584, symBinAddr: 0x10000CB38, symSize: 0x2C }
  - { offset: 0x23E92, size: 0x8, addend: 0x0, symName: __ZNKSt3__111__wrap_iterIPKN9EzAquarii6Parser17stack_symbol_typeEE4baseB8ne180100Ev, symObjAddr: 0x46CC, symBinAddr: 0x10000CBAC, symSize: 0x18 }
  - { offset: 0x23ED9, size: 0x8, addend: 0x0, symName: __ZN9EzAquarii6Parser5stackINS0_17stack_symbol_typeENSt3__16vectorIS2_NS3_9allocatorIS2_EEEEEC2Em, symObjAddr: 0x51C4, symBinAddr: 0x10000CBC4, symSize: 0x3C }
  - { offset: 0x23F11, size: 0x8, addend: 0x0, symName: __ZNSt3__16vectorIN9EzAquarii6Parser17stack_symbol_typeENS_9allocatorIS3_EEEC1Em, symObjAddr: 0x5200, symBinAddr: 0x10000CC00, symSize: 0x34 }
  - { offset: 0x23F4B, size: 0x8, addend: 0x0, symName: __ZNSt3__16vectorIN9EzAquarii6Parser17stack_symbol_typeENS_9allocatorIS3_EEEC2Em, symObjAddr: 0x5234, symBinAddr: 0x10000CC34, symSize: 0xD4 }
  - { offset: 0x23FA4, size: 0x8, addend: 0x0, symName: __ZNSt3__117__compressed_pairIPN9EzAquarii6Parser17stack_symbol_typeENS_9allocatorIS3_EEEC1B8ne180100IDnNS_18__default_init_tagEEEOT_OT0_, symObjAddr: 0x5308, symBinAddr: 0x10000CD08, symSize: 0x3C }
  - { offset: 0x23FFB, size: 0x8, addend: 0x0, symName: __ZNSt3__16vectorIN9EzAquarii6Parser17stack_symbol_typeENS_9allocatorIS3_EEE11__vallocateB8ne180100Em, symObjAddr: 0x5384, symBinAddr: 0x10000CD84, symSize: 0xAC }
  - { offset: 0x2403F, size: 0x8, addend: 0x0, symName: __ZNSt3__16vectorIN9EzAquarii6Parser17stack_symbol_typeENS_9allocatorIS3_EEE18__construct_at_endEm, symObjAddr: 0x5430, symBinAddr: 0x10000CE30, symSize: 0xC8 }
  - { offset: 0x240B4, size: 0x8, addend: 0x0, symName: __ZNSt3__128__exception_guard_exceptionsINS_6vectorIN9EzAquarii6Parser17stack_symbol_typeENS_9allocatorIS4_EEE16__destroy_vectorEE10__completeB8ne180100Ev, symObjAddr: 0x54F8, symBinAddr: 0x10000CEF8, symSize: 0x1C }
  - { offset: 0x240D8, size: 0x8, addend: 0x0, symName: __ZNSt3__128__exception_guard_exceptionsINS_6vectorIN9EzAquarii6Parser17stack_symbol_typeENS_9allocatorIS4_EEE16__destroy_vectorEED1B8ne180100Ev, symObjAddr: 0x5514, symBinAddr: 0x10000CF14, symSize: 0x2C }
  - { offset: 0x24100, size: 0x8, addend: 0x0, symName: __ZNSt3__117__compressed_pairIPN9EzAquarii6Parser17stack_symbol_typeENS_9allocatorIS3_EEEC2B8ne180100IDnNS_18__default_init_tagEEEOT_OT0_, symObjAddr: 0x5540, symBinAddr: 0x10000CF40, symSize: 0x40 }
  - { offset: 0x24157, size: 0x8, addend: 0x0, symName: __ZNSt3__122__compressed_pair_elemIPN9EzAquarii6Parser17stack_symbol_typeELi0ELb0EEC2B8ne180100IDnvEEOT_, symObjAddr: 0x5580, symBinAddr: 0x10000CF80, symSize: 0x1C }
  - { offset: 0x24197, size: 0x8, addend: 0x0, symName: __ZNSt3__122__compressed_pair_elemINS_9allocatorIN9EzAquarii6Parser17stack_symbol_typeEEELi1ELb1EEC2B8ne180100ENS_18__default_init_tagE, symObjAddr: 0x559C, symBinAddr: 0x10000CF9C, symSize: 0x2C }
  - { offset: 0x241CA, size: 0x8, addend: 0x0, symName: __ZNSt3__19allocatorIN9EzAquarii6Parser17stack_symbol_typeEEC2B8ne180100Ev, symObjAddr: 0x55C8, symBinAddr: 0x10000CFC8, symSize: 0x2C }
  - { offset: 0x241F3, size: 0x8, addend: 0x0, symName: __ZNSt3__116__non_trivial_ifILb1ENS_9allocatorIN9EzAquarii6Parser17stack_symbol_typeEEEEC2B8ne180100Ev, symObjAddr: 0x55F4, symBinAddr: 0x10000CFF4, symSize: 0x14 }
  - { offset: 0x2421B, size: 0x8, addend: 0x0, symName: __ZNSt3__128__exception_guard_exceptionsINS_6vectorIN9EzAquarii6Parser17stack_symbol_typeENS_9allocatorIS4_EEE16__destroy_vectorEEC1B8ne180100ES8_, symObjAddr: 0x5608, symBinAddr: 0x10000D008, symSize: 0x34 }
  - { offset: 0x24252, size: 0x8, addend: 0x0, symName: __ZNSt3__128__exception_guard_exceptionsINS_6vectorIN9EzAquarii6Parser17stack_symbol_typeENS_9allocatorIS4_EEE16__destroy_vectorEEC2B8ne180100ES8_, symObjAddr: 0x563C, symBinAddr: 0x10000D03C, symSize: 0x24 }
  - { offset: 0x24289, size: 0x8, addend: 0x0, symName: __ZNKSt3__16vectorIN9EzAquarii6Parser17stack_symbol_typeENS_9allocatorIS3_EEE8max_sizeEv, symObjAddr: 0x5660, symBinAddr: 0x10000D060, symSize: 0x60 }
  - { offset: 0x242B0, size: 0x8, addend: 0x0, symName: __ZNKSt3__16vectorIN9EzAquarii6Parser17stack_symbol_typeENS_9allocatorIS3_EEE20__throw_length_errorB8ne180100Ev, symObjAddr: 0x56C0, symBinAddr: 0x10000D0C0, symSize: 0x1C }
  - { offset: 0x242D5, size: 0x8, addend: 0x0, symName: __ZNSt3__16vectorIN9EzAquarii6Parser17stack_symbol_typeENS_9allocatorIS3_EEE9__end_capB8ne180100Ev, symObjAddr: 0x571C, symBinAddr: 0x10000D11C, symSize: 0x28 }
  - { offset: 0x242FA, size: 0x8, addend: 0x0, symName: __ZNKSt3__16vectorIN9EzAquarii6Parser17stack_symbol_typeENS_9allocatorIS3_EEE14__annotate_newB8ne180100Em, symObjAddr: 0x5744, symBinAddr: 0x10000D144, symSize: 0x14 }
  - { offset: 0x24338, size: 0x8, addend: 0x0, symName: __ZNSt3__116allocator_traitsINS_9allocatorIN9EzAquarii6Parser17stack_symbol_typeEEEE8max_sizeB8ne180100IS5_vEEmRKS5_, symObjAddr: 0x5784, symBinAddr: 0x10000D184, symSize: 0x24 }
  - { offset: 0x24366, size: 0x8, addend: 0x0, symName: __ZNKSt3__16vectorIN9EzAquarii6Parser17stack_symbol_typeENS_9allocatorIS3_EEE7__allocB8ne180100Ev, symObjAddr: 0x57A8, symBinAddr: 0x10000D1A8, symSize: 0x28 }
  - { offset: 0x2438B, size: 0x8, addend: 0x0, symName: __ZNSt3__114numeric_limitsIlE3maxB8ne180100Ev, symObjAddr: 0x57D0, symBinAddr: 0x10000D1D0, symSize: 0x14 }
  - { offset: 0x243AE, size: 0x8, addend: 0x0, symName: __ZNKSt3__16__lessIvvEclB8ne180100ImmEEbRKT_RKT0_, symObjAddr: 0x5838, symBinAddr: 0x10000D238, symSize: 0x34 }
  - { offset: 0x24401, size: 0x8, addend: 0x0, symName: __ZNKSt3__19allocatorIN9EzAquarii6Parser17stack_symbol_typeEE8max_sizeB8ne180100Ev, symObjAddr: 0x586C, symBinAddr: 0x10000D26C, symSize: 0x14 }
  - { offset: 0x24426, size: 0x8, addend: 0x0, symName: __ZNKSt3__117__compressed_pairIPN9EzAquarii6Parser17stack_symbol_typeENS_9allocatorIS3_EEE6secondB8ne180100Ev, symObjAddr: 0x5880, symBinAddr: 0x10000D280, symSize: 0x24 }
  - { offset: 0x2444B, size: 0x8, addend: 0x0, symName: __ZNKSt3__122__compressed_pair_elemINS_9allocatorIN9EzAquarii6Parser17stack_symbol_typeEEELi1ELb1EE5__getB8ne180100Ev, symObjAddr: 0x58A4, symBinAddr: 0x10000D2A4, symSize: 0x14 }
  - { offset: 0x24470, size: 0x8, addend: 0x0, symName: __ZNSt3__123__libcpp_numeric_limitsIlLb1EE3maxB8ne180100Ev, symObjAddr: 0x58B8, symBinAddr: 0x10000D2B8, symSize: 0x8 }
  - { offset: 0x24483, size: 0x8, addend: 0x0, symName: __ZNSt12length_errorC1B8ne180100EPKc, symObjAddr: 0x5924, symBinAddr: 0x10000D324, symSize: 0x34 }
  - { offset: 0x244B9, size: 0x8, addend: 0x0, symName: __ZNSt12length_errorC2B8ne180100EPKc, symObjAddr: 0x5958, symBinAddr: 0x10000D358, symSize: 0x44 }
  - { offset: 0x244F0, size: 0x8, addend: 0x0, symName: __ZNSt3__19allocatorIN9EzAquarii6Parser17stack_symbol_typeEE8allocateB8ne180100Em, symObjAddr: 0x599C, symBinAddr: 0x10000D39C, symSize: 0x58 }
  - { offset: 0x24523, size: 0x8, addend: 0x0, symName: __ZNSt3__117__compressed_pairIPN9EzAquarii6Parser17stack_symbol_typeENS_9allocatorIS3_EEE5firstB8ne180100Ev, symObjAddr: 0x5A74, symBinAddr: 0x10000D474, symSize: 0x24 }
  - { offset: 0x24548, size: 0x8, addend: 0x0, symName: __ZNSt3__122__compressed_pair_elemIPN9EzAquarii6Parser17stack_symbol_typeELi0ELb0EE5__getB8ne180100Ev, symObjAddr: 0x5A98, symBinAddr: 0x10000D498, symSize: 0x14 }
  - { offset: 0x24585, size: 0x8, addend: 0x0, symName: __ZNSt3__16vectorIN9EzAquarii6Parser17stack_symbol_typeENS_9allocatorIS3_EEE21_ConstructTransactionC1B8ne180100ERS6_m, symObjAddr: 0x5AAC, symBinAddr: 0x10000D4AC, symSize: 0x3C }
  - { offset: 0x245CC, size: 0x8, addend: 0x0, symName: __ZNSt3__116allocator_traitsINS_9allocatorIN9EzAquarii6Parser17stack_symbol_typeEEEE9constructB8ne180100IS4_JEvEEvRS5_PT_DpOT0_, symObjAddr: 0x5AE8, symBinAddr: 0x10000D4E8, symSize: 0x2C }
  - { offset: 0x2460E, size: 0x8, addend: 0x0, symName: __ZNSt3__16vectorIN9EzAquarii6Parser17stack_symbol_typeENS_9allocatorIS3_EEE21_ConstructTransactionD1B8ne180100Ev, symObjAddr: 0x5B14, symBinAddr: 0x10000D514, symSize: 0x2C }
  - { offset: 0x24637, size: 0x8, addend: 0x0, symName: __ZNSt3__16vectorIN9EzAquarii6Parser17stack_symbol_typeENS_9allocatorIS3_EEE21_ConstructTransactionC2B8ne180100ERS6_m, symObjAddr: 0x5B40, symBinAddr: 0x10000D540, symSize: 0x44 }
  - { offset: 0x2467E, size: 0x8, addend: 0x0, symName: __ZNSt3__19allocatorIN9EzAquarii6Parser17stack_symbol_typeEE9constructB8ne180100IS3_JEEEvPT_DpOT0_, symObjAddr: 0x5B84, symBinAddr: 0x10000D584, symSize: 0x28 }
  - { offset: 0x246C0, size: 0x8, addend: 0x0, symName: __ZNSt3__16vectorIN9EzAquarii6Parser17stack_symbol_typeENS_9allocatorIS3_EEE21_ConstructTransactionD2B8ne180100Ev, symObjAddr: 0x5BAC, symBinAddr: 0x10000D5AC, symSize: 0x20 }
  - { offset: 0x246E8, size: 0x8, addend: 0x0, symName: __ZNSt3__128__exception_guard_exceptionsINS_6vectorIN9EzAquarii6Parser17stack_symbol_typeENS_9allocatorIS4_EEE16__destroy_vectorEED2B8ne180100Ev, symObjAddr: 0x5BCC, symBinAddr: 0x10000D5CC, symSize: 0x48 }
  - { offset: 0x24711, size: 0x8, addend: 0x0, symName: __ZN9EzAquarii6Parser12basic_symbolINS0_8by_stateEE5clearEv, symObjAddr: 0x5C14, symBinAddr: 0x10000D614, symSize: 0xD0 }
  - { offset: 0x24756, size: 0x8, addend: 0x0, symName: __ZN9EzAquarii6Parser10value_type7emplaceINS_7CommandEJS3_EEERT_DpOT0_, symObjAddr: 0x5DD8, symBinAddr: 0x10000D70C, symSize: 0x84 }
  - { offset: 0x247A0, size: 0x8, addend: 0x0, symName: __ZN9EzAquarii7CommandC1ERKS0_, symObjAddr: 0x5E78, symBinAddr: 0x10000D790, symSize: 0x34 }
  - { offset: 0x247D4, size: 0x8, addend: 0x0, symName: __ZN9EzAquarii7CommandC2ERKS0_, symObjAddr: 0x5EAC, symBinAddr: 0x10000D7C4, symSize: 0x70 }
  - { offset: 0x24808, size: 0x8, addend: 0x0, symName: __ZN9EzAquarii6Parser10value_type7emplaceINSt3__16vectorIyNS3_9allocatorIyEEEEJS7_EEERT_DpOT0_, symObjAddr: 0x5F1C, symBinAddr: 0x10000D834, symSize: 0x84 }
  - { offset: 0x24852, size: 0x8, addend: 0x0, symName: __ZNSt3__16vectorIyNS_9allocatorIyEEEC1B8ne180100EOS3_, symObjAddr: 0x5FBC, symBinAddr: 0x10000D8B8, symSize: 0x34 }
  - { offset: 0x2488C, size: 0x8, addend: 0x0, symName: __ZNSt3__16vectorIyNS_9allocatorIyEEEC2B8ne180100EOS3_, symObjAddr: 0x5FF0, symBinAddr: 0x10000D8EC, symSize: 0xC4 }
  - { offset: 0x248CA, size: 0x8, addend: 0x0, symName: __ZNSt3__117__compressed_pairIPyNS_9allocatorIyEEEC1B8ne180100IDnS3_EEOT_OT0_, symObjAddr: 0x60DC, symBinAddr: 0x10000D9B0, symSize: 0x3C }
  - { offset: 0x24921, size: 0x8, addend: 0x0, symName: __ZNSt3__16vectorIyNS_9allocatorIyEEE9__end_capB8ne180100Ev, symObjAddr: 0x6118, symBinAddr: 0x10000D9EC, symSize: 0x28 }
  - { offset: 0x24945, size: 0x8, addend: 0x0, symName: __ZNSt3__117__compressed_pairIPyNS_9allocatorIyEEEC2B8ne180100IDnS3_EEOT_OT0_, symObjAddr: 0x6178, symBinAddr: 0x10000DA14, symSize: 0x44 }
  - { offset: 0x2499C, size: 0x8, addend: 0x0, symName: __ZNSt3__122__compressed_pair_elemIPyLi0ELb0EEC2B8ne180100IDnvEEOT_, symObjAddr: 0x61BC, symBinAddr: 0x10000DA58, symSize: 0x1C }
  - { offset: 0x249DD, size: 0x8, addend: 0x0, symName: __ZNSt3__122__compressed_pair_elemINS_9allocatorIyEELi1ELb1EEC2B8ne180100IS2_vEEOT_, symObjAddr: 0x61D8, symBinAddr: 0x10000DA74, symSize: 0x18 }
  - { offset: 0x24A1E, size: 0x8, addend: 0x0, symName: __ZNSt3__117__compressed_pairIPyNS_9allocatorIyEEE5firstB8ne180100Ev, symObjAddr: 0x61F0, symBinAddr: 0x10000DA8C, symSize: 0x24 }
  - { offset: 0x24A43, size: 0x8, addend: 0x0, symName: __ZNSt3__122__compressed_pair_elemIPyLi0ELb0EE5__getB8ne180100Ev, symObjAddr: 0x6214, symBinAddr: 0x10000DAB0, symSize: 0x14 }
  - { offset: 0x24A6D, size: 0x8, addend: 0x0, symName: __ZN9EzAquarii6Parser10value_type7emplaceINSt3__112basic_stringIcNS3_11char_traitsIcEENS3_9allocatorIcEEEEJS9_EEERT_DpOT0_, symObjAddr: 0x6228, symBinAddr: 0x10000DAC4, symSize: 0x84 }
  - { offset: 0x24ABC, size: 0x8, addend: 0x0, symName: __ZN9EzAquarii6Parser10value_type7emplaceIyJyEEERT_DpOT0_, symObjAddr: 0x6500, symBinAddr: 0x10000DB48, symSize: 0x80 }
  - { offset: 0x24B06, size: 0x8, addend: 0x0, symName: __ZNK9EzAquarii6Parser12basic_symbolINS0_8by_stateEE5emptyEv, symObjAddr: 0x659C, symBinAddr: 0x10000DBC8, symSize: 0x30 }
  - { offset: 0x24B2D, size: 0x8, addend: 0x0, symName: __ZNK9EzAquarii6Parser12basic_symbolINS0_8by_stateEE4nameEv, symObjAddr: 0x65CC, symBinAddr: 0x10000DBF8, symSize: 0x3C }
  - { offset: 0x24B52, size: 0x8, addend: 0x0, symName: __ZNSt3__16vectorIN9EzAquarii6Parser17stack_symbol_typeENS_9allocatorIS3_EEE9push_backB8ne180100EOS3_, symObjAddr: 0x6608, symBinAddr: 0x10000DC34, symSize: 0x90 }
  - { offset: 0x24B98, size: 0x8, addend: 0x0, symName: __ZN9EzAquarii6Parser12basic_symbolINS0_8by_stateEE4moveERS3_, symObjAddr: 0x6698, symBinAddr: 0x10000DCC4, symSize: 0xD0 }
  - { offset: 0x24BCE, size: 0x8, addend: 0x0, symName: __ZNSt3__16vectorIN9EzAquarii6Parser17stack_symbol_typeENS_9allocatorIS3_EEE22__construct_one_at_endB8ne180100IJS3_EEEvDpOT_, symObjAddr: 0x6790, symBinAddr: 0x10000DDBC, symSize: 0x90 }
  - { offset: 0x24C1F, size: 0x8, addend: 0x0, symName: __ZNSt3__16vectorIN9EzAquarii6Parser17stack_symbol_typeENS_9allocatorIS3_EEE21__push_back_slow_pathIS3_EEPS3_OT_, symObjAddr: 0x6820, symBinAddr: 0x10000DE4C, symSize: 0xE8 }
  - { offset: 0x24C7E, size: 0x8, addend: 0x0, symName: __ZNSt3__116allocator_traitsINS_9allocatorIN9EzAquarii6Parser17stack_symbol_typeEEEE9constructB8ne180100IS4_JS4_EvEEvRS5_PT_DpOT0_, symObjAddr: 0x6908, symBinAddr: 0x10000DF34, symSize: 0x34 }
  - { offset: 0x24CD7, size: 0x8, addend: 0x0, symName: __ZNSt3__19allocatorIN9EzAquarii6Parser17stack_symbol_typeEE9constructB8ne180100IS3_JS3_EEEvPT_DpOT0_, symObjAddr: 0x693C, symBinAddr: 0x10000DF68, symSize: 0x30 }
  - { offset: 0x24D2E, size: 0x8, addend: 0x0, symName: __ZNKSt3__16vectorIN9EzAquarii6Parser17stack_symbol_typeENS_9allocatorIS3_EEE11__recommendB8ne180100Em, symObjAddr: 0x696C, symBinAddr: 0x10000DF98, symSize: 0xB4 }
  - { offset: 0x24D84, size: 0x8, addend: 0x0, symName: __ZNKSt3__16vectorIN9EzAquarii6Parser17stack_symbol_typeENS_9allocatorIS3_EEE4sizeB8ne180100Ev, symObjAddr: 0x6A20, symBinAddr: 0x10000E04C, symSize: 0x28 }
  - { offset: 0x24DA9, size: 0x8, addend: 0x0, symName: __ZNSt3__114__split_bufferIN9EzAquarii6Parser17stack_symbol_typeERNS_9allocatorIS3_EEEC1EmmS6_, symObjAddr: 0x6A48, symBinAddr: 0x10000E074, symSize: 0x44 }
  - { offset: 0x24DFE, size: 0x8, addend: 0x0, symName: __ZNSt3__114__split_bufferIN9EzAquarii6Parser17stack_symbol_typeERNS_9allocatorIS3_EEED1Ev, symObjAddr: 0x6B9C, symBinAddr: 0x10000E1C8, symSize: 0x2C }
  - { offset: 0x24E29, size: 0x8, addend: 0x0, symName: __ZNSt3__114__split_bufferIN9EzAquarii6Parser17stack_symbol_typeERNS_9allocatorIS3_EEEC2EmmS6_, symObjAddr: 0x6C48, symBinAddr: 0x10000E274, symSize: 0xD4 }
  - { offset: 0x24E9C, size: 0x8, addend: 0x0, symName: __ZNSt3__117__compressed_pairIPN9EzAquarii6Parser17stack_symbol_typeERNS_9allocatorIS3_EEEC1B8ne180100IDnS7_EEOT_OT0_, symObjAddr: 0x6D1C, symBinAddr: 0x10000E348, symSize: 0x3C }
  - { offset: 0x24EF3, size: 0x8, addend: 0x0, symName: __ZNSt3__114__split_bufferIN9EzAquarii6Parser17stack_symbol_typeERNS_9allocatorIS3_EEE7__allocB8ne180100Ev, symObjAddr: 0x6D58, symBinAddr: 0x10000E384, symSize: 0x28 }
  - { offset: 0x24F18, size: 0x8, addend: 0x0, symName: __ZNSt3__114__split_bufferIN9EzAquarii6Parser17stack_symbol_typeERNS_9allocatorIS3_EEE9__end_capB8ne180100Ev, symObjAddr: 0x6D80, symBinAddr: 0x10000E3AC, symSize: 0x28 }
  - { offset: 0x24F3C, size: 0x8, addend: 0x0, symName: __ZNSt3__117__compressed_pairIPN9EzAquarii6Parser17stack_symbol_typeERNS_9allocatorIS3_EEEC2B8ne180100IDnS7_EEOT_OT0_, symObjAddr: 0x6DA8, symBinAddr: 0x10000E3D4, symSize: 0x48 }
  - { offset: 0x24F93, size: 0x8, addend: 0x0, symName: __ZNSt3__122__compressed_pair_elemIRNS_9allocatorIN9EzAquarii6Parser17stack_symbol_typeEEELi1ELb0EEC2B8ne180100IS6_vEEOT_, symObjAddr: 0x6DF0, symBinAddr: 0x10000E41C, symSize: 0x20 }
  - { offset: 0x24FD4, size: 0x8, addend: 0x0, symName: __ZNSt3__117__compressed_pairIPN9EzAquarii6Parser17stack_symbol_typeERNS_9allocatorIS3_EEE6secondB8ne180100Ev, symObjAddr: 0x6E10, symBinAddr: 0x10000E43C, symSize: 0x28 }
  - { offset: 0x24FF9, size: 0x8, addend: 0x0, symName: __ZNSt3__122__compressed_pair_elemIRNS_9allocatorIN9EzAquarii6Parser17stack_symbol_typeEEELi1ELb0EE5__getB8ne180100Ev, symObjAddr: 0x6E38, symBinAddr: 0x10000E464, symSize: 0x18 }
  - { offset: 0x2501E, size: 0x8, addend: 0x0, symName: __ZNSt3__117__compressed_pairIPN9EzAquarii6Parser17stack_symbol_typeERNS_9allocatorIS3_EEE5firstB8ne180100Ev, symObjAddr: 0x6E50, symBinAddr: 0x10000E47C, symSize: 0x24 }
  - { offset: 0x25042, size: 0x8, addend: 0x0, symName: __ZNSt3__116reverse_iteratorIPN9EzAquarii6Parser17stack_symbol_typeEEC1B8ne180100ES4_, symObjAddr: 0x6FA0, symBinAddr: 0x10000E5CC, symSize: 0x34 }
  - { offset: 0x25079, size: 0x8, addend: 0x0, symName: __ZNKSt3__116reverse_iteratorIPN9EzAquarii6Parser17stack_symbol_typeEE4baseB8ne180100Ev, symObjAddr: 0x6FD4, symBinAddr: 0x10000E600, symSize: 0x18 }
  - { offset: 0x2509D, size: 0x8, addend: 0x0, symName: __ZNSt3__129_AllocatorDestroyRangeReverseINS_9allocatorIN9EzAquarii6Parser17stack_symbol_typeEEENS_16reverse_iteratorIPS4_EEEC1B8ne180100ERS5_RS8_SB_, symObjAddr: 0x7074, symBinAddr: 0x10000E6A0, symSize: 0x44 }
  - { offset: 0x250F3, size: 0x8, addend: 0x0, symName: __ZNKSt3__116reverse_iteratorIPN9EzAquarii6Parser17stack_symbol_typeEEdeB8ne180100Ev, symObjAddr: 0x7124, symBinAddr: 0x10000E750, symSize: 0x28 }
  - { offset: 0x25126, size: 0x8, addend: 0x0, symName: __ZNSt3__116reverse_iteratorIPN9EzAquarii6Parser17stack_symbol_typeEEppB8ne180100Ev, symObjAddr: 0x714C, symBinAddr: 0x10000E778, symSize: 0x20 }
  - { offset: 0x2514B, size: 0x8, addend: 0x0, symName: __ZNSt3__128__exception_guard_exceptionsINS_29_AllocatorDestroyRangeReverseINS_9allocatorIN9EzAquarii6Parser17stack_symbol_typeEEENS_16reverse_iteratorIPS5_EEEEE10__completeB8ne180100Ev, symObjAddr: 0x716C, symBinAddr: 0x10000E798, symSize: 0x1C }
  - { offset: 0x2516F, size: 0x8, addend: 0x0, symName: __ZNSt3__128__exception_guard_exceptionsINS_29_AllocatorDestroyRangeReverseINS_9allocatorIN9EzAquarii6Parser17stack_symbol_typeEEENS_16reverse_iteratorIPS5_EEEEED1B8ne180100Ev, symObjAddr: 0x7188, symBinAddr: 0x10000E7B4, symSize: 0x2C }
  - { offset: 0x25197, size: 0x8, addend: 0x0, symName: __ZNSt3__128__exception_guard_exceptionsINS_29_AllocatorDestroyRangeReverseINS_9allocatorIN9EzAquarii6Parser17stack_symbol_typeEEENS_16reverse_iteratorIPS5_EEEEEC1B8ne180100ESA_, symObjAddr: 0x71B4, symBinAddr: 0x10000E7E0, symSize: 0x34 }
  - { offset: 0x251CF, size: 0x8, addend: 0x0, symName: __ZNSt3__128__exception_guard_exceptionsINS_29_AllocatorDestroyRangeReverseINS_9allocatorIN9EzAquarii6Parser17stack_symbol_typeEEENS_16reverse_iteratorIPS5_EEEEEC2B8ne180100ESA_, symObjAddr: 0x71E8, symBinAddr: 0x10000E814, symSize: 0x30 }
  - { offset: 0x25207, size: 0x8, addend: 0x0, symName: __ZNSt3__129_AllocatorDestroyRangeReverseINS_9allocatorIN9EzAquarii6Parser17stack_symbol_typeEEENS_16reverse_iteratorIPS4_EEEC2B8ne180100ERS5_RS8_SB_, symObjAddr: 0x7218, symBinAddr: 0x10000E844, symSize: 0x38 }
  - { offset: 0x25262, size: 0x8, addend: 0x0, symName: __ZNSt3__119__to_address_helperINS_16reverse_iteratorIPN9EzAquarii6Parser17stack_symbol_typeEEEvE6__callB8ne180100ERKS6_, symObjAddr: 0x7250, symBinAddr: 0x10000E87C, symSize: 0x38 }
  - { offset: 0x25285, size: 0x8, addend: 0x0, symName: __ZNKSt3__116reverse_iteratorIPN9EzAquarii6Parser17stack_symbol_typeEEptB8ne180100Ev, symObjAddr: 0x7288, symBinAddr: 0x10000E8B4, symSize: 0x24 }
  - { offset: 0x252A9, size: 0x8, addend: 0x0, symName: __ZNSt3__128__exception_guard_exceptionsINS_29_AllocatorDestroyRangeReverseINS_9allocatorIN9EzAquarii6Parser17stack_symbol_typeEEENS_16reverse_iteratorIPS5_EEEEED2B8ne180100Ev, symObjAddr: 0x72AC, symBinAddr: 0x10000E8D8, symSize: 0x50 }
  - { offset: 0x252D2, size: 0x8, addend: 0x0, symName: __ZNKSt3__129_AllocatorDestroyRangeReverseINS_9allocatorIN9EzAquarii6Parser17stack_symbol_typeEEENS_16reverse_iteratorIPS4_EEEclB8ne180100Ev, symObjAddr: 0x72FC, symBinAddr: 0x10000E928, symSize: 0xB4 }
  - { offset: 0x252F7, size: 0x8, addend: 0x0, symName: __ZNSt3__116reverse_iteratorINS0_IPN9EzAquarii6Parser17stack_symbol_typeEEEEC1B8ne180100ES5_, symObjAddr: 0x7420, symBinAddr: 0x10000EA4C, symSize: 0x3C }
  - { offset: 0x2532E, size: 0x8, addend: 0x0, symName: __ZNSt3__116reverse_iteratorINS0_IPN9EzAquarii6Parser17stack_symbol_typeEEEEppB8ne180100Ev, symObjAddr: 0x74E0, symBinAddr: 0x10000EB0C, symSize: 0x30 }
  - { offset: 0x25353, size: 0x8, addend: 0x0, symName: __ZNKSt3__116reverse_iteratorINS0_IPN9EzAquarii6Parser17stack_symbol_typeEEEE4baseB8ne180100Ev, symObjAddr: 0x7510, symBinAddr: 0x10000EB3C, symSize: 0x24 }
  - { offset: 0x2537D, size: 0x8, addend: 0x0, symName: __ZNSt3__119__to_address_helperINS_16reverse_iteratorINS1_IPN9EzAquarii6Parser17stack_symbol_typeEEEEEvE6__callB8ne180100ERKS7_, symObjAddr: 0x7534, symBinAddr: 0x10000EB60, symSize: 0x38 }
  - { offset: 0x253A0, size: 0x8, addend: 0x0, symName: __ZNKSt3__116reverse_iteratorINS0_IPN9EzAquarii6Parser17stack_symbol_typeEEEEptB8ne180100Ev, symObjAddr: 0x756C, symBinAddr: 0x10000EB98, symSize: 0x24 }
  - { offset: 0x253C5, size: 0x8, addend: 0x0, symName: __ZNKSt3__116reverse_iteratorINS0_IPN9EzAquarii6Parser17stack_symbol_typeEEEEdeB8ne180100Ev, symObjAddr: 0x7590, symBinAddr: 0x10000EBBC, symSize: 0x34 }
  - { offset: 0x253F8, size: 0x8, addend: 0x0, symName: __ZNSt3__116reverse_iteratorIPN9EzAquarii6Parser17stack_symbol_typeEEmmB8ne180100Ev, symObjAddr: 0x75C4, symBinAddr: 0x10000EBF0, symSize: 0x20 }
  - { offset: 0x2541D, size: 0x8, addend: 0x0, symName: __ZNSt3__116reverse_iteratorINS0_IPN9EzAquarii6Parser17stack_symbol_typeEEEEC2B8ne180100ES5_, symObjAddr: 0x75E4, symBinAddr: 0x10000EC10, symSize: 0x2C }
  - { offset: 0x25454, size: 0x8, addend: 0x0, symName: __ZNSt3__116reverse_iteratorIPN9EzAquarii6Parser17stack_symbol_typeEEC2B8ne180100ES4_, symObjAddr: 0x7610, symBinAddr: 0x10000EC3C, symSize: 0x28 }
  - { offset: 0x2548B, size: 0x8, addend: 0x0, symName: __ZNSt3__114__split_bufferIN9EzAquarii6Parser17stack_symbol_typeERNS_9allocatorIS3_EEED2Ev, symObjAddr: 0x7638, symBinAddr: 0x10000EC64, symSize: 0x8C }
  - { offset: 0x254B6, size: 0x8, addend: 0x0, symName: __ZNSt3__114__split_bufferIN9EzAquarii6Parser17stack_symbol_typeERNS_9allocatorIS3_EEE5clearB8ne180100Ev, symObjAddr: 0x76C4, symBinAddr: 0x10000ECF0, symSize: 0x28 }
  - { offset: 0x254DB, size: 0x8, addend: 0x0, symName: __ZNKSt3__114__split_bufferIN9EzAquarii6Parser17stack_symbol_typeERNS_9allocatorIS3_EEE8capacityB8ne180100Ev, symObjAddr: 0x76EC, symBinAddr: 0x10000ED18, symSize: 0x40 }
  - { offset: 0x25500, size: 0x8, addend: 0x0, symName: __ZNSt3__114__split_bufferIN9EzAquarii6Parser17stack_symbol_typeERNS_9allocatorIS3_EEE17__destruct_at_endB8ne180100EPS3_, symObjAddr: 0x772C, symBinAddr: 0x10000ED58, symSize: 0x2C }
  - { offset: 0x25533, size: 0x8, addend: 0x0, symName: __ZNSt3__114__split_bufferIN9EzAquarii6Parser17stack_symbol_typeERNS_9allocatorIS3_EEE17__destruct_at_endB8ne180100EPS3_NS_17integral_constantIbLb0EEE, symObjAddr: 0x7758, symBinAddr: 0x10000ED84, symSize: 0x80 }
  - { offset: 0x25573, size: 0x8, addend: 0x0, symName: __ZNKSt3__114__split_bufferIN9EzAquarii6Parser17stack_symbol_typeERNS_9allocatorIS3_EEE9__end_capB8ne180100Ev, symObjAddr: 0x77D8, symBinAddr: 0x10000EE04, symSize: 0x28 }
  - { offset: 0x25598, size: 0x8, addend: 0x0, symName: __ZNKSt3__117__compressed_pairIPN9EzAquarii6Parser17stack_symbol_typeERNS_9allocatorIS3_EEE5firstB8ne180100Ev, symObjAddr: 0x7800, symBinAddr: 0x10000EE2C, symSize: 0x24 }
  - { offset: 0x255BD, size: 0x8, addend: 0x0, symName: __ZNSt3__16vectorIN9EzAquarii6Parser17stack_symbol_typeENS_9allocatorIS3_EEE8pop_backEv, symObjAddr: 0x7824, symBinAddr: 0x10000EE50, symSize: 0x2C }
  - { offset: 0x255E4, size: 0x8, addend: 0x0, symName: __ZNSt3__16vectorIN9EzAquarii6Parser17stack_symbol_typeENS_9allocatorIS3_EEE17__destruct_at_endB8ne180100EPS3_, symObjAddr: 0x7850, symBinAddr: 0x10000EE7C, symSize: 0x4C }
  - { offset: 0x25628, size: 0x8, addend: 0x0, symName: __ZNKSt3__16vectorIN9EzAquarii6Parser17stack_symbol_typeENS_9allocatorIS3_EEE17__annotate_shrinkB8ne180100Em, symObjAddr: 0x789C, symBinAddr: 0x10000EEC8, symSize: 0x14 }
  - { offset: 0x2565C, size: 0x8, addend: 0x0, symName: __ZNSt3__16vectorIN9EzAquarii6Parser17stack_symbol_typeENS_9allocatorIS3_EEE5clearB8ne180100Ev, symObjAddr: 0x78B0, symBinAddr: 0x10000EEDC, symSize: 0x44 }
  - { offset: 0x25691, size: 0x8, addend: 0x0, symName: __ZNSt3__16vectorIN9EzAquarii6Parser17stack_symbol_typeENS_9allocatorIS3_EEEixB8ne180100Em, symObjAddr: 0x78F4, symBinAddr: 0x10000EF20, symSize: 0x24 }
  - { offset: 0x256C7, size: 0x8, addend: 0x0, symName: __ZN9EzAquarii6Parser7by_kind4moveERS1_, symObjAddr: 0x7918, symBinAddr: 0x10000EF44, symSize: 0x38 }
  - { offset: 0x256FD, size: 0x8, addend: 0x0, symName: __ZNK9EzAquarii6Parser12basic_symbolINS0_7by_kindEE4nameEv, symObjAddr: 0x796C, symBinAddr: 0x10000EF7C, symSize: 0x3C }
  - { offset: 0x25722, size: 0x8, addend: 0x0, symName: __ZNSt3__16vectorIyNS_9allocatorIyEEE19__copy_assign_allocB8ne180100ERKS3_, symObjAddr: 0x7AA4, symBinAddr: 0x10000EFB8, symSize: 0x2C }
  - { offset: 0x25756, size: 0x8, addend: 0x0, symName: __ZNSt3__16vectorIyNS_9allocatorIyEEE6assignIPyLi0EEEvT_S6_, symObjAddr: 0x7AD0, symBinAddr: 0x10000EFE4, symSize: 0x5C }
  - { offset: 0x257AA, size: 0x8, addend: 0x0, symName: __ZNSt3__16vectorIyNS_9allocatorIyEEE19__copy_assign_allocB8ne180100ERKS3_NS_17integral_constantIbLb0EEE, symObjAddr: 0x7B2C, symBinAddr: 0x10000F040, symSize: 0x14 }
  - { offset: 0x257E7, size: 0x8, addend: 0x0, symName: __ZNSt3__16vectorIyNS_9allocatorIyEEE18__assign_with_sizeB8ne180100IPyS5_EEvT_T0_l, symObjAddr: 0x7B40, symBinAddr: 0x10000F054, symSize: 0x164 }
  - { offset: 0x2589B, size: 0x8, addend: 0x0, symName: __ZNSt3__16vectorIyNS_9allocatorIyEEE18__construct_at_endIPyS5_EEvT_T0_m, symObjAddr: 0x7D84, symBinAddr: 0x10000F258, symSize: 0x8C }
  - { offset: 0x25911, size: 0x8, addend: 0x0, symName: __ZNSt3__16vectorIyNS_9allocatorIyEEE17__destruct_at_endB8ne180100EPy, symObjAddr: 0x7E54, symBinAddr: 0x10000F328, symSize: 0x4C }
  - { offset: 0x25955, size: 0x8, addend: 0x0, symName: __ZNSt3__16vectorIyNS_9allocatorIyEEE13__vdeallocateEv, symObjAddr: 0x7EA0, symBinAddr: 0x10000F374, symSize: 0x94 }
  - { offset: 0x2597C, size: 0x8, addend: 0x0, symName: __ZNSt3__16vectorIyNS_9allocatorIyEEE11__vallocateB8ne180100Em, symObjAddr: 0x7F34, symBinAddr: 0x10000F408, symSize: 0xAC }
  - { offset: 0x259C0, size: 0x8, addend: 0x0, symName: __ZNKSt3__16vectorIyNS_9allocatorIyEEE11__recommendB8ne180100Em, symObjAddr: 0x7FE0, symBinAddr: 0x10000F4B4, symSize: 0xB4 }
  - { offset: 0x25A2E, size: 0x8, addend: 0x0, symName: __ZNSt3__16vectorIyNS_9allocatorIyEEE21_ConstructTransactionC1B8ne180100ERS3_m, symObjAddr: 0x8168, symBinAddr: 0x10000F5DC, symSize: 0x3C }
  - { offset: 0x25A74, size: 0x8, addend: 0x0, symName: __ZNSt3__16vectorIyNS_9allocatorIyEEE21_ConstructTransactionD1B8ne180100Ev, symObjAddr: 0x8224, symBinAddr: 0x10000F698, symSize: 0x2C }
  - { offset: 0x25A9D, size: 0x8, addend: 0x0, symName: __ZNSt3__16vectorIyNS_9allocatorIyEEE21_ConstructTransactionC2B8ne180100ERS3_m, symObjAddr: 0x8250, symBinAddr: 0x10000F6C4, symSize: 0x44 }
  - { offset: 0x25B01, size: 0x8, addend: 0x0, symName: __ZNSt3__14pairIPyS1_EC1B8ne180100IS1_S1_Li0EEEOT_OT0_, symObjAddr: 0x83C4, symBinAddr: 0x10000F838, symSize: 0x3C }
  - { offset: 0x25B5E, size: 0x8, addend: 0x0, symName: __ZNSt3__14pairIPyS1_EC2B8ne180100IS1_S1_Li0EEEOT_OT0_, symObjAddr: 0x8400, symBinAddr: 0x10000F874, symSize: 0x34 }
  - { offset: 0x25BBB, size: 0x8, addend: 0x0, symName: __ZNSt3__118__unwrap_iter_implIPyLb1EE8__unwrapB8ne180100ES1_, symObjAddr: 0x8434, symBinAddr: 0x10000F8A8, symSize: 0x24 }
  - { offset: 0x25BDE, size: 0x8, addend: 0x0, symName: __ZNSt3__118__unwrap_iter_implIPyLb1EE8__rewrapB8ne180100ES1_S1_, symObjAddr: 0x846C, symBinAddr: 0x10000F8CC, symSize: 0x50 }
  - { offset: 0x25C0F, size: 0x8, addend: 0x0, symName: __ZNSt3__16vectorIyNS_9allocatorIyEEE21_ConstructTransactionD2B8ne180100Ev, symObjAddr: 0x84BC, symBinAddr: 0x10000F91C, symSize: 0x20 }
  - { offset: 0x25C42, size: 0x8, addend: 0x0, symName: __ZNKSt3__114__copy_trivialclB8ne180100IyyLi0EEENS_4pairIPT_PT0_EES4_S4_S6_, symObjAddr: 0x85D4, symBinAddr: 0x10000FA34, symSize: 0x48 }
  - { offset: 0x25CA8, size: 0x8, addend: 0x0, symName: __ZNSt3__14pairIPyS1_EC1B8ne180100IRS1_S1_Li0EEEOT_OT0_, symObjAddr: 0x8764, symBinAddr: 0x10000FBC4, symSize: 0x3C }
  - { offset: 0x25D05, size: 0x8, addend: 0x0, symName: __ZNSt3__14pairIPyS1_EC2B8ne180100IRS1_S1_Li0EEEOT_OT0_, symObjAddr: 0x87A0, symBinAddr: 0x10000FC00, symSize: 0x34 }
  - { offset: 0x25D62, size: 0x8, addend: 0x0, symName: __ZNKSt3__16vectorIyNS_9allocatorIyEEE17__annotate_shrinkB8ne180100Em, symObjAddr: 0x8860, symBinAddr: 0x10000FC34, symSize: 0x14 }
  - { offset: 0x25D96, size: 0x8, addend: 0x0, symName: __ZNSt3__16vectorIyNS_9allocatorIyEEE5clearB8ne180100Ev, symObjAddr: 0x88B4, symBinAddr: 0x10000FC48, symSize: 0x44 }
  - { offset: 0x25DCB, size: 0x8, addend: 0x0, symName: __ZNKSt3__16vectorIyNS_9allocatorIyEEE8max_sizeEv, symObjAddr: 0x89A4, symBinAddr: 0x10000FC8C, symSize: 0x60 }
  - { offset: 0x25DF2, size: 0x8, addend: 0x0, symName: __ZNKSt3__16vectorIyNS_9allocatorIyEEE20__throw_length_errorB8ne180100Ev, symObjAddr: 0x8A04, symBinAddr: 0x10000FCEC, symSize: 0x1C }
  - { offset: 0x25E17, size: 0x8, addend: 0x0, symName: __ZNKSt3__16vectorIyNS_9allocatorIyEEE14__annotate_newB8ne180100Em, symObjAddr: 0x8A60, symBinAddr: 0x10000FD48, symSize: 0x14 }
  - { offset: 0x25E55, size: 0x8, addend: 0x0, symName: __ZNSt3__116allocator_traitsINS_9allocatorIyEEE8max_sizeB8ne180100IS2_vEEmRKS2_, symObjAddr: 0x8A74, symBinAddr: 0x10000FD5C, symSize: 0x24 }
  - { offset: 0x25E83, size: 0x8, addend: 0x0, symName: __ZNKSt3__16vectorIyNS_9allocatorIyEEE7__allocB8ne180100Ev, symObjAddr: 0x8A98, symBinAddr: 0x10000FD80, symSize: 0x28 }
  - { offset: 0x25EA8, size: 0x8, addend: 0x0, symName: __ZNKSt3__19allocatorIyE8max_sizeB8ne180100Ev, symObjAddr: 0x8AC0, symBinAddr: 0x10000FDA8, symSize: 0x14 }
  - { offset: 0x25ECD, size: 0x8, addend: 0x0, symName: __ZNKSt3__117__compressed_pairIPyNS_9allocatorIyEEE6secondB8ne180100Ev, symObjAddr: 0x8AD4, symBinAddr: 0x10000FDBC, symSize: 0x24 }
  - { offset: 0x25EF2, size: 0x8, addend: 0x0, symName: __ZNKSt3__122__compressed_pair_elemINS_9allocatorIyEELi1ELb1EE5__getB8ne180100Ev, symObjAddr: 0x8AF8, symBinAddr: 0x10000FDE0, symSize: 0x14 }
  - { offset: 0x25F17, size: 0x8, addend: 0x0, symName: __ZNSt3__19allocatorIyE8allocateB8ne180100Em, symObjAddr: 0x8B0C, symBinAddr: 0x10000FDF4, symSize: 0x58 }
  - { offset: 0x25F4A, size: 0x8, addend: 0x0, symName: __ZNSt3__16vectorIyNS_9allocatorIyEEEC2ERKS3_, symObjAddr: 0x8B8C, symBinAddr: 0x10000FE74, symSize: 0x94 }
  - { offset: 0x25F84, size: 0x8, addend: 0x0, symName: __ZNSt3__116allocator_traitsINS_9allocatorIyEEE37select_on_container_copy_constructionB8ne180100IS2_vvEES2_RKS2_, symObjAddr: 0x8C20, symBinAddr: 0x10000FF08, symSize: 0x10 }
  - { offset: 0x25FB3, size: 0x8, addend: 0x0, symName: __ZNSt3__16vectorIyNS_9allocatorIyEEE16__init_with_sizeB8ne180100IPyS5_EEvT_T0_m, symObjAddr: 0x8C30, symBinAddr: 0x10000FF18, symSize: 0xB8 }
  - { offset: 0x26027, size: 0x8, addend: 0x0, symName: __ZNSt3__128__exception_guard_exceptionsINS_6vectorIyNS_9allocatorIyEEE16__destroy_vectorEE10__completeB8ne180100Ev, symObjAddr: 0x8D5C, symBinAddr: 0x100010010, symSize: 0x1C }
  - { offset: 0x2604B, size: 0x8, addend: 0x0, symName: __ZNSt3__128__exception_guard_exceptionsINS_6vectorIyNS_9allocatorIyEEE16__destroy_vectorEED1B8ne180100Ev, symObjAddr: 0x8D78, symBinAddr: 0x10001002C, symSize: 0x2C }
  - { offset: 0x26073, size: 0x8, addend: 0x0, symName: __ZNSt3__128__exception_guard_exceptionsINS_6vectorIyNS_9allocatorIyEEE16__destroy_vectorEEC1B8ne180100ES5_, symObjAddr: 0x8DA4, symBinAddr: 0x100010058, symSize: 0x34 }
  - { offset: 0x260AA, size: 0x8, addend: 0x0, symName: __ZNSt3__128__exception_guard_exceptionsINS_6vectorIyNS_9allocatorIyEEE16__destroy_vectorEEC2B8ne180100ES5_, symObjAddr: 0x8DD8, symBinAddr: 0x10001008C, symSize: 0x24 }
  - { offset: 0x260E0, size: 0x8, addend: 0x0, symName: __ZNSt3__128__exception_guard_exceptionsINS_6vectorIyNS_9allocatorIyEEE16__destroy_vectorEED2B8ne180100Ev, symObjAddr: 0x8E1C, symBinAddr: 0x1000100B0, symSize: 0x50 }
  - { offset: 0x26108, size: 0x8, addend: 0x0, symName: __ZNSt3__16vectorIyNS_9allocatorIyEEEC2B8ne180100Ev, symObjAddr: 0x8F3C, symBinAddr: 0x100010100, symSize: 0x4C }
  - { offset: 0x26130, size: 0x8, addend: 0x0, symName: __ZNSt3__117__compressed_pairIPyNS_9allocatorIyEEEC1B8ne180100IDnNS_18__default_init_tagEEEOT_OT0_, symObjAddr: 0x8F88, symBinAddr: 0x10001014C, symSize: 0x3C }
  - { offset: 0x26186, size: 0x8, addend: 0x0, symName: __ZNSt3__117__compressed_pairIPyNS_9allocatorIyEEEC2B8ne180100IDnNS_18__default_init_tagEEEOT_OT0_, symObjAddr: 0x8FC4, symBinAddr: 0x100010188, symSize: 0x40 }
  - { offset: 0x261DC, size: 0x8, addend: 0x0, symName: __ZNSt3__122__compressed_pair_elemINS_9allocatorIyEELi1ELb1EEC2B8ne180100ENS_18__default_init_tagE, symObjAddr: 0x9004, symBinAddr: 0x1000101C8, symSize: 0x2C }
  - { offset: 0x2620F, size: 0x8, addend: 0x0, symName: __ZNSt3__19allocatorIyEC2B8ne180100Ev, symObjAddr: 0x9030, symBinAddr: 0x1000101F4, symSize: 0x2C }
  - { offset: 0x26238, size: 0x8, addend: 0x0, symName: __ZNSt3__116__non_trivial_ifILb1ENS_9allocatorIyEEEC2B8ne180100Ev, symObjAddr: 0x905C, symBinAddr: 0x100010220, symSize: 0x14 }
  - { offset: 0x26261, size: 0x8, addend: 0x0, symName: __ZNSt3__16vectorIyNS_9allocatorIyEEE13__move_assignERS3_NS_17integral_constantIbLb1EEE, symObjAddr: 0x9070, symBinAddr: 0x100010234, symSize: 0x94 }
  - { offset: 0x262A3, size: 0x8, addend: 0x0, symName: __ZNSt3__16vectorIyNS_9allocatorIyEEE19__move_assign_allocB8ne180100ERS3_, symObjAddr: 0x9104, symBinAddr: 0x1000102C8, symSize: 0x2C }
  - { offset: 0x262D7, size: 0x8, addend: 0x0, symName: __ZNSt3__16vectorIyNS_9allocatorIyEEE19__move_assign_allocB8ne180100ERS3_NS_17integral_constantIbLb1EEE, symObjAddr: 0x9130, symBinAddr: 0x1000102F4, symSize: 0x38 }
  - { offset: 0x26317, size: 0x8, addend: 0x0, symName: __ZNSt3__16vectorIyNS_9allocatorIyEEE22__construct_one_at_endB8ne180100IJRKyEEEvDpOT_, symObjAddr: 0x9168, symBinAddr: 0x10001032C, symSize: 0x90 }
  - { offset: 0x26368, size: 0x8, addend: 0x0, symName: __ZNSt3__16vectorIyNS_9allocatorIyEEE21__push_back_slow_pathIRKyEEPyOT_, symObjAddr: 0x91F8, symBinAddr: 0x1000103BC, symSize: 0xE8 }
  - { offset: 0x263C7, size: 0x8, addend: 0x0, symName: __ZNSt3__116allocator_traitsINS_9allocatorIyEEE9constructB8ne180100IyJRKyEvEEvRS2_PT_DpOT0_, symObjAddr: 0x92E0, symBinAddr: 0x1000104A4, symSize: 0x34 }
  - { offset: 0x26420, size: 0x8, addend: 0x0, symName: __ZNSt3__19allocatorIyE9constructB8ne180100IyJRKyEEEvPT_DpOT0_, symObjAddr: 0x9314, symBinAddr: 0x1000104D8, symSize: 0x28 }
  - { offset: 0x26477, size: 0x8, addend: 0x0, symName: __ZNSt3__114__split_bufferIyRNS_9allocatorIyEEEC1EmmS3_, symObjAddr: 0x933C, symBinAddr: 0x100010500, symSize: 0x44 }
  - { offset: 0x264CC, size: 0x8, addend: 0x0, symName: __ZNSt3__114__split_bufferIyRNS_9allocatorIyEEED1Ev, symObjAddr: 0x9490, symBinAddr: 0x100010654, symSize: 0x2C }
  - { offset: 0x264F7, size: 0x8, addend: 0x0, symName: __ZNSt3__114__split_bufferIyRNS_9allocatorIyEEEC2EmmS3_, symObjAddr: 0x94BC, symBinAddr: 0x100010680, symSize: 0xD4 }
  - { offset: 0x2656A, size: 0x8, addend: 0x0, symName: __ZNSt3__117__compressed_pairIPyRNS_9allocatorIyEEEC1B8ne180100IDnS4_EEOT_OT0_, symObjAddr: 0x9590, symBinAddr: 0x100010754, symSize: 0x3C }
  - { offset: 0x265C1, size: 0x8, addend: 0x0, symName: __ZNSt3__114__split_bufferIyRNS_9allocatorIyEEE7__allocB8ne180100Ev, symObjAddr: 0x95CC, symBinAddr: 0x100010790, symSize: 0x28 }
  - { offset: 0x265E6, size: 0x8, addend: 0x0, symName: __ZNSt3__114__split_bufferIyRNS_9allocatorIyEEE9__end_capB8ne180100Ev, symObjAddr: 0x95F4, symBinAddr: 0x1000107B8, symSize: 0x28 }
  - { offset: 0x2660A, size: 0x8, addend: 0x0, symName: __ZNSt3__117__compressed_pairIPyRNS_9allocatorIyEEEC2B8ne180100IDnS4_EEOT_OT0_, symObjAddr: 0x961C, symBinAddr: 0x1000107E0, symSize: 0x48 }
  - { offset: 0x26661, size: 0x8, addend: 0x0, symName: __ZNSt3__122__compressed_pair_elemIRNS_9allocatorIyEELi1ELb0EEC2B8ne180100IS3_vEEOT_, symObjAddr: 0x9664, symBinAddr: 0x100010828, symSize: 0x20 }
  - { offset: 0x266A2, size: 0x8, addend: 0x0, symName: __ZNSt3__117__compressed_pairIPyRNS_9allocatorIyEEE6secondB8ne180100Ev, symObjAddr: 0x9684, symBinAddr: 0x100010848, symSize: 0x28 }
  - { offset: 0x266C7, size: 0x8, addend: 0x0, symName: __ZNSt3__122__compressed_pair_elemIRNS_9allocatorIyEELi1ELb0EE5__getB8ne180100Ev, symObjAddr: 0x96AC, symBinAddr: 0x100010870, symSize: 0x18 }
  - { offset: 0x266EC, size: 0x8, addend: 0x0, symName: __ZNSt3__117__compressed_pairIPyRNS_9allocatorIyEEE5firstB8ne180100Ev, symObjAddr: 0x96C4, symBinAddr: 0x100010888, symSize: 0x24 }
  - { offset: 0x26710, size: 0x8, addend: 0x0, symName: __ZNSt3__116reverse_iteratorIPyEC1B8ne180100ES1_, symObjAddr: 0x9760, symBinAddr: 0x100010924, symSize: 0x34 }
  - { offset: 0x26747, size: 0x8, addend: 0x0, symName: __ZNKSt3__116reverse_iteratorIPyE4baseB8ne180100Ev, symObjAddr: 0x9794, symBinAddr: 0x100010958, symSize: 0x18 }
  - { offset: 0x2678F, size: 0x8, addend: 0x0, symName: __ZNKSt3__111__move_loopINS_17_ClassicAlgPolicyEEclB8ne180100INS_16reverse_iteratorIPyEES6_S6_EENS_4pairIT_T1_EES8_T0_S9_, symObjAddr: 0x9AD8, symBinAddr: 0x100010C9C, symSize: 0xA0 }
  - { offset: 0x267FE, size: 0x8, addend: 0x0, symName: __ZNSt3__18_IterOpsINS_17_ClassicAlgPolicyEE11__iter_moveB8ne180100IRNS_16reverse_iteratorIPyEELi0EEEDTclsr3stdE4movedeclsr3stdE7declvalIRT_EEEEOS8_, symObjAddr: 0x9D0C, symBinAddr: 0x100010ED0, symSize: 0x28 }
  - { offset: 0x26830, size: 0x8, addend: 0x0, symName: __ZNKSt3__116reverse_iteratorIPyEdeB8ne180100Ev, symObjAddr: 0x9D34, symBinAddr: 0x100010EF8, symSize: 0x28 }
  - { offset: 0x26863, size: 0x8, addend: 0x0, symName: __ZNSt3__116reverse_iteratorIPyEppB8ne180100Ev, symObjAddr: 0x9D5C, symBinAddr: 0x100010F20, symSize: 0x20 }
  - { offset: 0x26888, size: 0x8, addend: 0x0, symName: __ZNSt3__18_IterOpsINS_17_ClassicAlgPolicyEE25__validate_iter_referenceB8ne180100IRNS_16reverse_iteratorIPyEEEEvv, symObjAddr: 0x9D7C, symBinAddr: 0x100010F40, symSize: 0x4 }
  - { offset: 0x268A6, size: 0x8, addend: 0x0, symName: __ZNSt3__118__unwrap_iter_implINS_16reverse_iteratorIPyEELb0EE8__unwrapB8ne180100ES3_, symObjAddr: 0x9D80, symBinAddr: 0x100010F44, symSize: 0x24 }
  - { offset: 0x268CD, size: 0x8, addend: 0x0, symName: __ZNSt3__14pairINS_16reverse_iteratorIPyEES3_EC1B8ne180100IS3_S3_Li0EEEOT_OT0_, symObjAddr: 0x9DA4, symBinAddr: 0x100010F68, symSize: 0x3C }
  - { offset: 0x2692A, size: 0x8, addend: 0x0, symName: __ZNSt3__14pairINS_16reverse_iteratorIPyEES3_EC2B8ne180100IS3_S3_Li0EEEOT_OT0_, symObjAddr: 0x9DE0, symBinAddr: 0x100010FA4, symSize: 0x34 }
  - { offset: 0x26987, size: 0x8, addend: 0x0, symName: __ZNSt3__118__unwrap_iter_implINS_16reverse_iteratorIPyEELb0EE8__rewrapB8ne180100ES3_S3_, symObjAddr: 0x9E14, symBinAddr: 0x100010FD8, symSize: 0x2C }
  - { offset: 0x269B5, size: 0x8, addend: 0x0, symName: __ZNSt3__116reverse_iteratorIPyEC2B8ne180100ES1_, symObjAddr: 0x9E40, symBinAddr: 0x100011004, symSize: 0x28 }
  - { offset: 0x269EC, size: 0x8, addend: 0x0, symName: __ZNSt3__114__split_bufferIyRNS_9allocatorIyEEED2Ev, symObjAddr: 0x9E68, symBinAddr: 0x10001102C, symSize: 0x8C }
  - { offset: 0x26A17, size: 0x8, addend: 0x0, symName: __ZNSt3__114__split_bufferIyRNS_9allocatorIyEEE5clearB8ne180100Ev, symObjAddr: 0x9EF4, symBinAddr: 0x1000110B8, symSize: 0x28 }
  - { offset: 0x26A3C, size: 0x8, addend: 0x0, symName: __ZNKSt3__114__split_bufferIyRNS_9allocatorIyEEE8capacityB8ne180100Ev, symObjAddr: 0x9F1C, symBinAddr: 0x1000110E0, symSize: 0x40 }
  - { offset: 0x26A61, size: 0x8, addend: 0x0, symName: __ZNSt3__114__split_bufferIyRNS_9allocatorIyEEE17__destruct_at_endB8ne180100EPy, symObjAddr: 0x9F5C, symBinAddr: 0x100011120, symSize: 0x2C }
  - { offset: 0x26A94, size: 0x8, addend: 0x0, symName: __ZNSt3__114__split_bufferIyRNS_9allocatorIyEEE17__destruct_at_endB8ne180100EPyNS_17integral_constantIbLb0EEE, symObjAddr: 0x9F88, symBinAddr: 0x10001114C, symSize: 0x80 }
  - { offset: 0x26AD4, size: 0x8, addend: 0x0, symName: __ZNKSt3__114__split_bufferIyRNS_9allocatorIyEEE9__end_capB8ne180100Ev, symObjAddr: 0xA008, symBinAddr: 0x1000111CC, symSize: 0x28 }
  - { offset: 0x26AF9, size: 0x8, addend: 0x0, symName: __ZNKSt3__117__compressed_pairIPyRNS_9allocatorIyEEE5firstB8ne180100Ev, symObjAddr: 0xA030, symBinAddr: 0x1000111F4, symSize: 0x24 }
  - { offset: 0x26B1D, size: 0x8, addend: 0x0, symName: __ZNSt3__112basic_stringIcNS_11char_traitsIcEENS_9allocatorIcEEEC2B8ne180100Ev, symObjAddr: 0xA0AC, symBinAddr: 0x100011218, symSize: 0x48 }
  - { offset: 0x26B4A, size: 0x8, addend: 0x0, symName: __ZNSt3__117__compressed_pairINS_12basic_stringIcNS_11char_traitsIcEENS_9allocatorIcEEE5__repES5_EC1B8ne180100INS_16__value_init_tagENS_18__default_init_tagEEEOT_OT0_, symObjAddr: 0xA0F4, symBinAddr: 0x100011260, symSize: 0x3C }
  - { offset: 0x26BA0, size: 0x8, addend: 0x0, symName: __ZNSt3__117__compressed_pairINS_12basic_stringIcNS_11char_traitsIcEENS_9allocatorIcEEE5__repES5_EC2B8ne180100INS_16__value_init_tagENS_18__default_init_tagEEEOT_OT0_, symObjAddr: 0xA130, symBinAddr: 0x10001129C, symSize: 0x3C }
  - { offset: 0x26BF7, size: 0x8, addend: 0x0, symName: __ZNSt3__122__compressed_pair_elemINS_12basic_stringIcNS_11char_traitsIcEENS_9allocatorIcEEE5__repELi0ELb0EEC2B8ne180100ENS_16__value_init_tagE, symObjAddr: 0xA16C, symBinAddr: 0x1000112D8, symSize: 0x20 }
  - { offset: 0x26C2B, size: 0x8, addend: 0x0, symName: __ZNKSt3__16vectorIN9EzAquarii6Parser17stack_symbol_typeENS_9allocatorIS3_EEEixB8ne180100Em, symObjAddr: 0xA18C, symBinAddr: 0x1000112F8, symSize: 0x24 }
  - { offset: 0x26C61, size: 0x8, addend: 0x0, symName: __ZNSt3__112basic_stringIcNS_11char_traitsIcEENS_9allocatorIcEEE6appendB8ne180100ERKS5_, symObjAddr: 0xA1B0, symBinAddr: 0x10001131C, symSize: 0x4C }
  - { offset: 0x26C95, size: 0x8, addend: 0x0, symName: __ZNKSt3__16vectorIN9EzAquarii6Parser17stack_symbol_typeENS_9allocatorIS3_EEE5beginB8ne180100Ev, symObjAddr: 0xA1FC, symBinAddr: 0x100011368, symSize: 0x30 }
  - { offset: 0x26CBC, size: 0x8, addend: 0x0, symName: __ZNKSt3__16vectorIN9EzAquarii6Parser17stack_symbol_typeENS_9allocatorIS3_EEE11__make_iterB8ne180100EPKS3_, symObjAddr: 0xA22C, symBinAddr: 0x100011398, symSize: 0x30 }
  - { offset: 0x26CEF, size: 0x8, addend: 0x0, symName: __ZNSt3__111__wrap_iterIPKN9EzAquarii6Parser17stack_symbol_typeEEC1B8ne180100ES5_, symObjAddr: 0xA25C, symBinAddr: 0x1000113C8, symSize: 0x34 }
  - { offset: 0x26D26, size: 0x8, addend: 0x0, symName: __ZNSt3__111__wrap_iterIPKN9EzAquarii6Parser17stack_symbol_typeEEC2B8ne180100ES5_, symObjAddr: 0xA290, symBinAddr: 0x1000113FC, symSize: 0x20 }
  - { offset: 0x26D5D, size: 0x8, addend: 0x0, symName: __ZNKSt3__16vectorIN9EzAquarii6Parser17stack_symbol_typeENS_9allocatorIS3_EEE3endB8ne180100Ev, symObjAddr: 0xA2B0, symBinAddr: 0x10001141C, symSize: 0x30 }
  - { offset: 0x2E2CB, size: 0x8, addend: 0x0, symName: __ZN9EzAquarii7CommandC2ERKNSt3__112basic_stringIcNS1_11char_traitsIcEENS1_9allocatorIcEEEENS1_6vectorIyNS5_IyEEEE, symObjAddr: 0x0, symBinAddr: 0x100011460, symSize: 0x74 }
  - { offset: 0x2E313, size: 0x8, addend: 0x0, symName: __ZN9EzAquarii7CommandC1ERKNSt3__112basic_stringIcNS1_11char_traitsIcEENS1_9allocatorIcEEEENS1_6vectorIyNS5_IyEEEE, symObjAddr: 0xA8, symBinAddr: 0x1000114D4, symSize: 0x3C }
  - { offset: 0x2E35B, size: 0x8, addend: 0x0, symName: __ZN9EzAquarii7CommandC2ERKNSt3__112basic_stringIcNS1_11char_traitsIcEENS1_9allocatorIcEEEE, symObjAddr: 0xE4, symBinAddr: 0x100011510, symSize: 0x40 }
  - { offset: 0x2E394, size: 0x8, addend: 0x0, symName: __ZN9EzAquarii7CommandC1ERKNSt3__112basic_stringIcNS1_11char_traitsIcEENS1_9allocatorIcEEEE, symObjAddr: 0x150, symBinAddr: 0x100011550, symSize: 0x34 }
  - { offset: 0x2E3CD, size: 0x8, addend: 0x0, symName: __ZN9EzAquarii7CommandC2Ev, symObjAddr: 0x184, symBinAddr: 0x100011584, symSize: 0x38 }
  - { offset: 0x2E3F8, size: 0x8, addend: 0x0, symName: __ZN9EzAquarii7CommandC1Ev, symObjAddr: 0x1E8, symBinAddr: 0x1000115BC, symSize: 0x2C }
  - { offset: 0x2E423, size: 0x8, addend: 0x0, symName: __ZN9EzAquarii7CommandD2Ev, symObjAddr: 0x214, symBinAddr: 0x1000115E8, symSize: 0x38 }
  - { offset: 0x2E44E, size: 0x8, addend: 0x0, symName: __ZN9EzAquarii7CommandD1Ev, symObjAddr: 0x278, symBinAddr: 0x100011620, symSize: 0x2C }
  - { offset: 0x2E479, size: 0x8, addend: 0x0, symName: __ZNK9EzAquarii7Command3strEv, symObjAddr: 0x2A4, symBinAddr: 0x10001164C, symSize: 0x1BC }
  - { offset: 0x2E591, size: 0x8, addend: 0x0, symName: __ZNSt3__118basic_stringstreamIcNS_11char_traitsIcEENS_9allocatorIcEEEC1B8ne180100Ev, symObjAddr: 0x4A8, symBinAddr: 0x100011808, symSize: 0xF4 }
  - { offset: 0x2E5BA, size: 0x8, addend: 0x0, symName: __ZNKSt3__16vectorIyNS_9allocatorIyEEEixB8ne180100Em, symObjAddr: 0x610, symBinAddr: 0x1000118FC, symSize: 0x24 }
  - { offset: 0x2E5F0, size: 0x8, addend: 0x0, symName: __ZNKSt3__118basic_stringstreamIcNS_11char_traitsIcEENS_9allocatorIcEEE3strB8ne180100Ev, symObjAddr: 0x634, symBinAddr: 0x100011920, symSize: 0x30 }
  - { offset: 0x2E61A, size: 0x8, addend: 0x0, symName: __ZNSt3__118basic_stringstreamIcNS_11char_traitsIcEENS_9allocatorIcEEED1Ev, symObjAddr: 0x664, symBinAddr: 0x100011950, symSize: 0x40 }
  - { offset: 0x2E646, size: 0x8, addend: 0x0, symName: __ZNK9EzAquarii7Command4nameEv, symObjAddr: 0x6A4, symBinAddr: 0x100011990, symSize: 0x38 }
  - { offset: 0x2E66D, size: 0x8, addend: 0x0, symName: __ZNSt3__118basic_stringstreamIcNS_11char_traitsIcEENS_9allocatorIcEEED2Ev, symObjAddr: 0x6DC, symBinAddr: 0x1000119C8, symSize: 0x6C }
  - { offset: 0x2E6A5, size: 0x8, addend: 0x0, symName: __ZThn16_NSt3__118basic_stringstreamIcNS_11char_traitsIcEENS_9allocatorIcEEED1Ev, symObjAddr: 0x748, symBinAddr: 0x100011A34, symSize: 0x1C }
  - { offset: 0x2E6BC, size: 0x8, addend: 0x0, symName: __ZTv0_n24_NSt3__118basic_stringstreamIcNS_11char_traitsIcEENS_9allocatorIcEEED1Ev, symObjAddr: 0x764, symBinAddr: 0x100011A50, symSize: 0x28 }
  - { offset: 0x2E6D8, size: 0x8, addend: 0x0, symName: __ZNSt3__115basic_stringbufIcNS_11char_traitsIcEENS_9allocatorIcEEED1Ev, symObjAddr: 0x78C, symBinAddr: 0x100011A78, symSize: 0x2C }
  - { offset: 0x2E704, size: 0x8, addend: 0x0, symName: __ZNSt3__115basic_stringbufIcNS_11char_traitsIcEENS_9allocatorIcEEED2Ev, symObjAddr: 0x7B8, symBinAddr: 0x100011AA4, symSize: 0x48 }
  - { offset: 0x2E766, size: 0x8, addend: 0x0, symName: __ZNSt3__114basic_iostreamIcNS_11char_traitsIcEEEC2B8ne180100EPNS_15basic_streambufIcS2_EE, symObjAddr: 0x2920, symBinAddr: 0x100011AEC, symSize: 0xAC }
  - { offset: 0x2E7A9, size: 0x8, addend: 0x0, symName: __ZNSt3__115basic_stringbufIcNS_11char_traitsIcEENS_9allocatorIcEEEC1B8ne180100Ej, symObjAddr: 0x29CC, symBinAddr: 0x100011B98, symSize: 0x34 }
  - { offset: 0x2E7E0, size: 0x8, addend: 0x0, symName: __ZNSt3__113basic_istreamIcNS_11char_traitsIcEEEC2B8ne180100EPNS_15basic_streambufIcS2_EE, symObjAddr: 0x2A24, symBinAddr: 0x100011BCC, symSize: 0x64 }
  - { offset: 0x2E823, size: 0x8, addend: 0x0, symName: __ZNSt3__113basic_ostreamIcNS_11char_traitsIcEEEC2B8ne180100Ev, symObjAddr: 0x2A88, symBinAddr: 0x100011C30, symSize: 0x34 }
  - { offset: 0x2E857, size: 0x8, addend: 0x0, symName: __ZNSt3__115basic_stringbufIcNS_11char_traitsIcEENS_9allocatorIcEEEC2B8ne180100Ej, symObjAddr: 0x2B00, symBinAddr: 0x100011C64, symSize: 0x58 }
...
